******************************************************************************
                  TI ARM Linker PC v16.9.6                     
******************************************************************************
>> Linked Tue Jun 22 19:03:57 2021

OUTPUT FILE NAME:   <xwr64xx_mmw_mss.xer4f>
ENTRY POINT SYMBOL: "_c_int00"  address: 000237f4


MEMORY CONFIGURATION

         name            origin    length      used     unused   attr    fill
----------------------  --------  ---------  --------  --------  ----  --------
PAGE 0:
  VECTORS               00000000   00000100  0000003c  000000c4     X
  PROG_RAM              00000100   0007ff00  0002ba38  000544c8  R  X
  DATA_RAM              08000000   00030000  000228d0  0000d730  RW  
  L3_RAM                51000000   000c0000  000c0000  00000000  RW  
  HWA_RAM               52030000   00010000  00000000  00010000  RW  
  HS_RAM                52080000   00008000  00000000  00008000  RW  

PAGE 1:
  L3_RAM                51000000   000c0000  00000000  000c0000  RW  


SEGMENT ALLOCATION MAP

run origin  load origin   length   init length attrs members
----------  ----------- ---------- ----------- ----- -------
00000000    00000000    0000003c   0000003c    r--
  00000000    00000000    0000003c   0000003c    r-- .vecs
00000100    00000100    0002ba40   0002ba40    r-x
  00000100    00000100    0002a452   0002a452    r-x .text
  0002a558    0002a558    0000104e   0000104e    r-- .const
  0002b5a8    0002b5a8    00000598   00000598    r-- .cinit
08000000    08000000    000228d8   00000000    rw-
  08000000    08000000    00010000   00000000    rw- systemHeap
  08010000    08010000    0000c400   00000000    rw- .DPC_objDetTcmbHeap
  0801c400    0801c400    000044b4   00000000    rw- .bss
  080208b8    080208b8    0000136c   00000000    rw- .data
  08021c28    08021c28    00000800   00000000    rw- .myFiqStack
  08022428    08022428    000004b0   00000000    rw- .stack
51000000    51000000    000c0000   00000000    rw-
  51000000    51000000    000c0000   00000000    rw- .l3ram


SECTION ALLOCATION MAP

 output                                  attributes/
section   page    origin      length       input sections
--------  ----  ----------  ----------   ----------------
.vecs      0    00000000    0000003c     
                  00000000    0000003c     mmw_per4ft.oer4ft (.vecs)

.text      0    00000100    0002a452     
                  00000100    00001d38     libsleep_xwr68xx.aer4f : libsleep_xwr68xx.obj (.text)
                  00001e38    0000107a     rtsv7R4_T_le_v3D16_eabi.lib : _printfi.obj (.text)
                  00002eb2    00000002     libadcbuf_xwr68xx.aer4f : adcbuf_mmwave.oer4f (.text:ADCBUF_MMWave_init)
                  00002eb4    00000c38     mmw_cli.oer4f (.text:MmwDemo_CLIInit)
                  00003aec    00000898     rtsv7R4_T_le_v3D16_eabi.lib : _scanfi.obj (.text)
                  00004384    00000710     objectdetection.oer4f (.text:DPC_ObjectDetection_ioctl)
                  00004a94    00000670     libdopplerproc_hwa_xwr68xx.aer4f : dopplerprochwa.oer4f (.text:DPU_DopplerProcHWA_config)
                  00005104    00000658     libhwa_xwr68xx.aer4f : hwa.oer4f (.text:HWA_configParamSet)
                  0000575c    000005fc     rtsv7R4_T_le_v3D16_eabi.lib : k_rem_pio2.obj (.text)
                  00005d58    00000588     mmwdemo_rfparser.oer4f (.text:MmwDemo_RFParser_parseCtrlConfig)
                  000062e0    00000581     main.oer4f (.text:MmwDemo_dataPathConfig)
                  00006861    00000001     --HOLE-- [fill = 0]
                  00006862    00000002     libhwa_xwr68xx.aer4f : hwa.oer4f (.text:HWA_init)
                  00006864    00000564     librangeproc_hwa_xwr68xx.aer4f : rangeprochwa.oer4f (.text:DPU_RangeProcHWA_process)
                  00006dc8    00000528     main.oer4f (.text:MmwDemo_initTask)
                  000072f0    00000500     objectdetection.oer4f (.text:DPC_ObjDet_rangeBiasRxChPhaseMeasure)
                  000077f0    000004e1     sysbios.aer4ft : BIOS.obj (.text:xdc_runtime_System_doPrint__I)
                  00007cd1    00000001     --HOLE-- [fill = 0]
                  00007cd2    00000002     libmmwave_xwr68xx.aer4f : mmwave_link.oer4f (.text:MMWave_maskHostIRQ)
                  00007cd4    000004a8     libadcbuf_xwr68xx.aer4f : adcbuf_mmwave.oer4f (.text:ADCBUF_MMWave_control)
                  0000817c    00000470     mmw_cli.oer4f (.text:MmwDemo_CLISensorStart)
                  000085ec    0000044a     libaoaproc_hwa_xwr68xx.aer4f : aoaprochwa.oer4f (.text:AoAProcHWA_config_EDMA)
                  00008a36    0000044a                                  : aoaprochwa.oer4f (.text:HWAutil_configHWA_extendedVelocityScheme)
                  00008e80    0000043c     librangeproc_hwa_xwr68xx.aer4f : rangeprochwa.oer4f (.text:DPU_RangeProcHWA_config)
                  000092bc    00000434     main.oer4f (.text:MmwDemo_transmitProcessedOutput)
                  000096f0    00000410     libcli_xwr68xx.aer4f : cli_mmwave.oer4f (.text:CLI_MMWaveVersion)
                  00009b00    0000040c     main.oer4f (.text:MmwDemo_DPC_ObjectDetection_dpmTask)
                  00009f0c    000003f4     rtsv7R4_T_le_v3D16_eabi.lib : s_cos.obj (.text)
                  0000a300    000003f4                                 : s_sin.obj (.text)
                  0000a6f4    00000390     objectdetection.oer4f (.text:DPC_ObjDet_AoAconfig)
                  0000aa84    00000378     main.oer4f (.text:MmwDemo_openSensor)
                  0000adfc    00000350     libaoaproc_hwa_xwr68xx.aer4f : aoaprochwa.oer4f (.text:DPU_AoAProcHWA_process)
                  0000b14c    0000034c     main.oer4f (.text:MmwDemo_processPendingDynamicCfgCommands)
                  0000b498    00000348     objectdetection.oer4f (.text:DPC_ObjectDetection_execute)
                  0000b7e0    00000348     main.oer4f (.text:MmwDemo_configCQ)
                  0000bb28    00000314     libsoc_xwr68xx.aer4f : soc_xwr68xx_mss.oer4f (.text:SOC_deviceInit)
                  0000be3c    00000304     librangeproc_hwa_xwr68xx.aer4f : rangeprochwa.oer4f (.text:rangeProcHWA_ConfigEDMA_DataOut_nonInterleave)
                  0000c140    000002f8     libcbuff_xwr68xx.aer4f : cbuff.oer4f (.text:CBUFF_createSession)
                  0000c438    00000008     libaoaproc_hwa_xwr68xx.aer4f : aoaprochwa.oer4f (.text:AOAProcHWADoneIsrCallback)
                  0000c440    000002f4     sysbios.aer4ft : BIOS.obj (.text:ti_sysbios_knl_Semaphore_pend__E)
                  0000c734    000002e4     main.oer4f (.text:MmwDemo_DPC_ObjectDetection_reportFxn)
                  0000ca18    00000008     libcfarcaproc_hwa_xwr68xx.aer4f : cfarcaprochwa.oer4f (.text:CFARCAHWADoneIsrCallback)
                  0000ca20    000002cc     sysbios.aer4ft : BIOS.obj (.text:ti_sysbios_knl_Task_Instance_finalize__E)
                  0000ccec    000002c4     libhwa_xwr68xx.aer4f : hwa.oer4f (.text:HWA_configCommon)
                  0000cfb0    000002c4     main.oer4f (.text:idle_power_cycle)
                  0000d274    000002bc     objectdetection.oer4f (.text:DPC_ObjDet_rangeConfig)
                  0000d530    000002b8     rtsv7R4_T_le_v3D16_eabi.lib : ull_div32.obj (.text)
                  0000d7e8    00000008     main.oer4f (.text:Cycleprofiler_init)
                  0000d7f0    000002a4     sysbios.aer4ft : BIOS.obj (.text:ti_sysbios_heaps_HeapMem_freeUnprotected__E)
                  0000da94    00000298     mmwdemo_rfparser.oer4f (.text:MmwDemo_RFParser_setAoAParams)
                  0000dd2c    00000284     libmmwave_xwr68xx.aer4f : mmwave_dualcore.oer4f (.text:MMWave_deviceExecuteFxn)
                  0000dfb0    00000280     libhsiheader_xwr68xx.aer4f : hsiheader.oer4f (.text:HSIHeader_createHeader)
                  0000e230    00000280     mmw_lvds_stream.oer4f (.text:MmwDemo_LVDSStreamHwConfig)
                  0000e4b0    00000280     sysbios.aer4ft : BIOS.obj (.text:ti_sysbios_family_arm_exc_Exception_excDumpContext__I)
                  0000e730    0000026c     libqspiflash_xwr68xx.aer4f : qspiflash.oer4f (.text:QSPIFlash_open)
                  0000e99c    00000268     objectdetection.oer4f (.text:DPC_ObjDet_preStartConfig)
                  0000ec04    00000264     libcbuff_xwr68xx.aer4f : cbuff.oer4f (.text:CBUFF_init)
                  0000ee68    00000264     data_path.oer4f (.text:MmwDemo_checkEdmaErrors)
                  0000f0cc    00000260     libmailbox_xwr68xx.aer4f : mailbox.oer4f (.text:Mailbox_open)
                  0000f32c    00000254     libcli_xwr68xx.aer4f : cli_mmwave.oer4f (.text:CLI_MMWaveProfileCfg)
                  0000f580    00000248     main.oer4f (.text:MmwDemo_sensorStopEpilog)
                  0000f7c8    0000022c     libcbuff_xwr68xx.aer4f : cbuff_lvds.oer4f (.text:CBUFF_openLVDS)
                  0000f9f4    0000022c     main.oer4f (.text:MmwDemo_eventCallbackFxn)
                  0000fc20    0000022c     librangeproc_hwa_xwr68xx.aer4f : rangeprochwa.oer4f (.text:rangeProcHWA_ConfigHWA)
                  0000fe4c    00000004     libedma_xwr68xx.aer4f : edma.oer4f (.text:EDMA_getNumInstances)
                  0000fe50    00000228     sysbios.aer4ft : BIOS.obj (.text:ti_sysbios_heaps_HeapMem_allocUnprotected__E)
                  00010078    00000008     libdopplerproc_hwa_xwr68xx.aer4f : dopplerprochwa.oer4f (.text:DPU_DopplerProcHWA_edmaDoneIsrCallback)
                  00010080    00000224     sysbios.aer4ft : BIOS.obj (.text:ti_sysbios_timers_rti_Timer_Module_startup__E)
                  000102a4    00000220     objectdetection.oer4f (.text:DPC_ObjectDetection_init)
                  000104c4    0000021c     libaoaproc_hwa_xwr68xx.aer4f : aoaprochwa.oer4f (.text:AoAProcHWA_XYZestimation)
                  000106e0    00000214     libuart_xwr68xx.aer4f : uartsci.oer4f (.text:UartSci_open)
                  000108f4    0000020a     libcbuff_xwr68xx.aer4f : cbuff_transfer.oer4f (.text:CBUFF_addLinkedList)
                  00010afe    00000002     libqspiflash_xwr68xx.aer4f : qspiflash.oer4f (.text:QSPIFlash_init)
                  00010b00    00000204     libcli_xwr68xx.aer4f : cli_mmwave.oer4f (.text:CLI_MMWaveChirpCfg)
                  00010d04    0000000c     libedma_xwr68xx.aer4f : edma_low_level.oer4f (.text:EDMA3ChannelToParamMap)
                  00010d10    00000204     sysbios.aer4ft : BIOS.obj (.text:ti_sysbios_knl_Task_sleep__E)
                  00010f14    00000200     libcrc_xwr68xx.aer4f : crc.oer4f (.text:CRC_open)
                  00011114    0000000c     libedma_xwr68xx.aer4f : edma_low_level.oer4f (.text:EDMAsetRegion)
                  00011120    00000200     sysbios.aer4ft : BIOS.obj (.text:ti_sysbios_knl_Task_Instance_init__E)
                  00011320    000001fa     libaoaproc_hwa_xwr68xx.aer4f : aoaprochwa.oer4f (.text:HWAutil_configHWA_azimuthHeatMap)
                  0001151a    00000002     libqspi_xwr68xx.aer4f : qspi.oer4f (.text:QSPI_init)
                  0001151c    000001f0     libdma_xwr68xx.aer4f : dma.oer4f (.text:DMA_setChannelParams)
                  0001170c    000001e4     rtsv7R4_T_le_v3D16_eabi.lib : strtod.obj (.text)
                  000118f0    000001e4                                 : strtoll.obj (.text)
                  00011ad4    000001e0     main.oer4f (.text:MmwDemo_calibRestore)
                  00011cb4    000001dc     libaoaproc_hwa_xwr68xx.aer4f : aoaprochwa.oer4f (.text:DPU_AoAProcHWA_config)
                  00011e90    000001d4     libcbuff_xwr68xx.aer4f : cbuff_edma.oer4f (.text:CBUFF_configEDMA)
                  00012064    000001d4     main.oer4f (.text:idle_power_down)
                  00012238    000001cc     objectdetection.oer4f (.text:DPC_ObjDet_quadFit)
                  00012404    0000000c     libmmwave_xwr68xx.aer4f : mmwave_dualcore.oer4f (.text:MMWave_deviceMailboxCallbackFxn)
                  00012410    000001cc     sysbios.aer4ft : BIOS.obj (.text:ti_sysbios_family_arm_v7r_vim_Hwi_dispatchIRQC__I)
                  000125dc    000001c8     libcbuff_xwr68xx.aer4f : cbuff_lvds.oer4f (.text:CBUFF_initLVDS)
                  000127a4    000001c8     libmmwavelink_xwr68xx.aer4f : rl_driver.oer4f (.text:rlDriverRxHdrRead)
                  0001296c    000001c8     rtsv7R4_T_le_v3D16_eabi.lib : fopen.obj (.text)
                  00012b34    000001c0     libedma_xwr68xx.aer4f : edma.oer4f (.text:EDMA_open)
                  00012cf4    000001b4     objectdetection.oer4f (.text:DPC_ObjDet_dopplerConfig)
                  00012ea8    000001b4     mmw_cli.oer4f (.text:MmwDemo_CLIConfigDataPort)
                  0001305c    000001b4     rtsv7R4_T_le_v3D16_eabi.lib : e_atan2.obj (.text)
                  00013210    000001b0     libmmwavelink_xwr68xx.aer4f : rl_driver.oer4f (.text:rlDriverMsgRead)
                  000133c0    000001a8     rtsv7R4_T_le_v3D16_eabi.lib : s_atan.obj (.text)
                  00013568    000001a4     libcbuff_xwr68xx.aer4f : cbuff.oer4f (.text:CBUFF_activateSession)
                  0001370c    000001a4     libcli_xwr68xx.aer4f : cli_mmwave.oer4f (.text:CLI_MMWaveSubFrameCfg)
                  000138b0    000001a4     libmmwave_xwr68xx.aer4f : mmwave_dualcore.oer4f (.text:MMWave_serializeCfg)
                  00013a54    0000000c                             : mmwave_osal.oer4f (.text:MMWave_osalMutexUnlock)
                  00013a60    0000019c     sysbios.aer4ft : BIOS.obj (.text:xdc_runtime_Error_policyDefault__E)
                  00013bfc    00000198     mmw_lvds_stream.oer4f (.text:MmwDemo_LVDSStreamSwConfig)
                  00013d94    00000194     libmmwave_xwr68xx.aer4f : mmwave_link.oer4f (.text:MMWave_openLink)
                  00013f28    00000190     libmmwavelink_xwr68xx.aer4f : rl_driver.oer4f (.text:rlDriverCmdInvoke)
                  000140b8    0000018c     libstaticclutterproc_xwr68xx.aer4f : staticclutterproc.oer4f (.text:DPU_StaticClutterProc_process)
                  00014244    0000018c     libaoaproc_hwa_xwr68xx.aer4f : aoaprochwa.oer4f (.text:aoaHwa_dopplerCompensation)
                  000143d0    00000188     libcfarcaproc_hwa_xwr68xx.aer4f : cfarcaprochwa.oer4f (.text:DPU_CFARCAProcHWA_process)
                  00014558    00000188     libedma_xwr68xx.aer4f : edma.oer4f (.text:EDMA_configChannel)
                  000146e0    00000188     libhwa_xwr68xx.aer4f : hwa.oer4f (.text:HWA_open)
                  00014868    00000008     libdopplerproc_hwa_xwr68xx.aer4f : dopplerprochwa.oer4f (.text:DPU_DopplerProcHWA_hwaDoneIsrCallback)
                  00014870    00000184     sysbios.aer4ft : BIOS.obj (.text:xdc_runtime_LoggerBuf_write8__E)
                  000149f4    00000182     libaoaproc_hwa_xwr68xx.aer4f : aoaprochwa.oer4f (.text:AoAProcHWA_angleEstimationAzimElev)
                  00014b76    00000002     libuart_xwr68xx.aer4f : uartsci.oer4f (.text:UartSci_init)
                  00014b78    00000182     mmw_cli.oer4f (.text:MmwDemo_CLICalibDcRangeSig)
                  00014cfa    00000002     rtsv7R4_T_le_v3D16_eabi.lib : i_div0.obj (.text)
                  00014cfc    00000180     libdpm_xwr68xx.aer4f : dpm_core.oer4f (.text:DPM_init)
                  00014e7c    00000180                          : dpm_msg.oer4f (.text:DPM_msgRecv)
                  00014ffc    00000180     mmw_lvds_stream.oer4f (.text:MmwDemo_LVDSStreamInit)
                  0001517c    00000174     data_path.oer4f (.text:MmwDemo_edmaOpen)
                  000152f0    00000170     libgpio_xwr68xx.aer4f : gpio.oer4f (.text:GPIO_setConfig)
                  00015460    0000016c     sysbios.aer4ft : BIOS.obj (.text:ti_sysbios_knl_Semaphore_post__E)
                  000155cc    0000016a     libaoaproc_hwa_xwr68xx.aer4f : aoaprochwa.oer4f (.text:AoAProcHWA_config_azimuthHeatMap_EDMA)
                  00015736    0000000a     libadcbuf_xwr68xx.aer4f : ADCBuf.oer4f (.text:ADCBuf_control)
                  00015740    00000168     sysbios.aer4ft : BIOS.obj (.text:ti_sysbios_family_arm_exc_Exception_excHandler__I)
                  000158a8    00000164     rtsv7R4_T_le_v3D16_eabi.lib : strtoull.obj (.text)
                  00015a0c    00000160     libqspi_xwr68xx.aer4f : qspi.oer4f (.text:QSPI_open)
                  00015b6c    00000004     libosal_xwr68xx.aer4f : HwiP_tirtos.oer4f (.text:HwiP_disableInterrupt)
                  00015b70    00000160     sysbios.aer4ft : BIOS.obj (.text:ti_sysbios_family_arm_v7r_vim_Hwi_reconfig__E)
                  00015cd0    00000158     objectdetection.oer4f (.text:DPC_ObjDet_CFARCAconfig)
                  00015e28    00000008     libosal_xwr68xx.aer4f : HwiP_tirtos.oer4f (.text:HwiP_disable)
                  00015e30    00000158     sysbios.aer4ft : BIOS.obj (.text:ti_sysbios_knl_Task_postInit__I)
                  00015f88    0000014c     libcli_xwr68xx.aer4f : cli_mmwave.oer4f (.text:CLI_MMWaveFrameCfg)
                  000160d4    0000014c                          : cli.oer4f (.text:CLI_task)
                  00016220    0000014c     libmmwave_xwr68xx.aer4f : mmwave_link.oer4f (.text:MMWave_initMMWaveLink)
                  0001636c    0000014c     mmw_lvds_stream.oer4f (.text:MmwDemo_LVDSStreamDeleteHwSession)
                  000164b8    0000014a     libuart_xwr68xx.aer4f : uartsci.oer4f (.text:UartSci_ISR)
                  00016602    00000148     libstaticclutterproc_xwr68xx.aer4f : staticclutterproc.oer4f (.text:DPU_StaticClutterProc_configEdma)
                  0001674a    00000002     mmw_per4ft.oer4ft (.text:ti_sysbios_BIOS_nullFunc__I)
                  0001674c    00000148     libhsiheader_xwr68xx.aer4f : hsiheader.oer4f (.text:HSIHeader_init)
                  00016894    00000148     libmmwavelink_xwr68xx.aer4f : rl_driver.oer4f (.text:rlDriverCmdSendRetry)
                  000169dc    00000144     mmw_cli.oer4f (.text:MmwDemo_CLICompRangeBiasAndRxChanPhaseCfg)
                  00016b20    00000140     sysbios.aer4ft : BIOS.obj (.text:ti_sysbios_heaps_HeapMem_Instance_init__E)
                  00016c60    00000140                    : BIOS.obj (.text:xdc_runtime_Core_createObject__I)
                  00016da0    0000013c     mmw_lvds_stream.oer4f (.text:MmwDemo_LVDSStreamDeleteSwSession)
                  00016edc    00000004     libosal_xwr68xx.aer4f : HwiP_tirtos.oer4f (.text:HwiP_enableInterrupt)
                  00016ee0    0000013c     sysbios.aer4ft : BIOS.obj (.text:ti_sysbios_knl_Clock_workFunc__E)
                  0001701c    00000138     mmw_cli.oer4f (.text:MmwDemo_CLICfarCfg)
                  00017154    00000138     main.oer4f (.text:MmwDemo_calibInit)
                  0001728c    00000138     main.oer4f (.text:MmwDemo_startSensor)
                  000173c4    00000134     libadcbuf_xwr68xx.aer4f : adcbuf_mmwave.oer4f (.text:ADCBUF_MMWave_open)
                  000174f8    00000134     libcfarcaproc_hwa_xwr68xx.aer4f : cfarcaprochwa.oer4f (.text:CFARHWA_cfarRange_AND_cfarDoppler)
                  0001762c    00000134                                     : cfarcaprochwa.oer4f (.text:DPU_CFARCAProcHWA_config)
                  00017760    00000134     sysbios.aer4ft : BIOS.obj (.text:xdc_runtime_Startup_startMods__I)
                  00017894    00000130     mmw_cli.oer4f (.text:MmwDemo_CLILvdsStreamCfg)
                  000179c4    00000130     mmw_lvds_stream.oer4f (.text:MmwDemo_LVDSStream_EDMAInit)
                  00017af4    00000130     main.oer4f (.text:MmwDemo_transferLVDSUserData)
                  00017c24    00000130     rtsv7R4_T_le_v3D16_eabi.lib : strtol.obj (.text)
                  00017d54    0000012c     libcfarcaproc_hwa_xwr68xx.aer4f : cfarcaprochwa.oer4f (.text:HWAutil_configCFAR)
                  00017e80    0000012c     librangeproc_hwa_xwr68xx.aer4f : rangeprochwa.oer4f (.text:rangeProcHWA_ConfigEDMADummyThreeLinks)
                  00017fac    00000128     libaoaproc_hwa_xwr68xx.aer4f : aoaprochwa.oer4f (.text:AoAProcHWA_PrepareRangeAzimuthHeatmap)
                  000180d4    00000128     main.oer4f (.text:MmwDemo_stopSensor)
                  000181fc    00000128     libmathutils.aer4f : mathutils.oer4f (.text:mathUtils_genWindow)
                  00018324    0000000c     libmmwave_xwr68xx.aer4f : mmwave_osal.oer4f (.text:MMWave_osalSemSignal)
                  00018330    00000128     sysbios.aer4ft : BIOS.obj (.text:ti_sysbios_utils_Load_updateThreadContexts__E)
                  00018458    00000124     libcli_xwr68xx.aer4f : cli_mmwave.oer4f (.text:CLI_MMWaveAdvFrameCfg)
                  0001857c    00000124                          : cli_mmwave.oer4f (.text:CLI_MMWaveContModeCfg)
                  000186a0    00000124     libedma_xwr68xx.aer4f : edma.oer4f (.text:EDMA_init)
                  000187c4    0000000c     libuart_xwr68xx.aer4f : UART.oer4f (.text:UART_Params_init)
                  000187d0    00000120     sysbios.aer4ft : BIOS.obj (.text:xdc_runtime_LoggerBuf_write4__E)
                  000188f0    00000118     mmw_cli.oer4f (.text:MmwDemo_CLIADCBufCfg)
                  00018a08    00000118     mmw_cli.oer4f (.text:MmwDemo_CLIChirpQualityRxSatMonCfg)
                  00018b20    00000118     main.oer4f (.text:main)
                  00018c38    00000008     libmmwave_xwr68xx.aer4f : mmwave.oer4f (.text:MMWave_decodeErrorLevel)
                  00018c40    00000118     sysbios.aer4ft : BIOS.obj (.text:ti_sysbios_family_arm_v7r_vim_Hwi_Instance_init__E)
                  00018d58    00000114     libedma_xwr68xx.aer4f : edma.oer4f (.text:EDMA_configErrorMonitoring)
                  00018e6c    00000110                           : edma.oer4f (.text:EDMA_transferComplete_isr)
                  00018f7c    00000110     rtsv7R4_T_le_v3D16_eabi.lib : strtoul.obj (.text)
                  0001908c    0000010c     libdpedma_hwa_xwr68xx.aer4f : dpedma.oer4f (.text:DPEDMA_configSyncAB)
                  00019198    0000010c     libdpm_xwr68xx.aer4f : dpm_msg.oer4f (.text:DPM_msgResultHandler)
                  000192a4    0000010c     libmmwave_xwr68xx.aer4f : mmwave_link.oer4f (.text:MMWave_asyncEventHandler)
                  000193b0    0000010c                             : mmwave_dualcore.oer4f (.text:MMWave_deviceInitFxn)
                  000194bc    00000004                             : mmwave_link.oer4f (.text:MMWave_disableDevice)
                  000194c0    0000010c     sysbios.aer4ft : BIOS.obj (.text:ti_sysbios_knl_Task_schedule__I)
                  000195cc    00000004     libmmwave_xwr68xx.aer4f : mmwave_link.oer4f (.text:MMWave_enableDevice)
                  000195d0    0000010c     sysbios.aer4ft : BIOS.obj (.text:xdc_runtime_Core_constructObject__I)
                  000196dc    00000108     libdma_xwr68xx.aer4f : dma.oer4f (.text:DMA_disableInterrupt)
                  000197e4    00000108     libmailbox_xwr68xx.aer4f : mailbox.oer4f (.text:Mailbox_write)
                  000198ec    00000108     mmw_cli.oer4f (.text:MmwDemo_CLICalibDataSaveRestore)
                  000199f4    00000108     main.oer4f (.text:MmwDemo_MMWave_stop)
                  00019afc    00000104     libcbuff_xwr68xx.aer4f : cbuff.oer4f (.text:CBUFF_deinit)
                  00019c00    00000104     libdpedma_hwa_xwr68xx.aer4f : dpedma.oer4f (.text:DPEDMA_configSyncA_singleFrame)
                  00019d04    00000104     libmmwave_xwr68xx.aer4f : mmwave_link.oer4f (.text:MMWave_startLink)
                  00019e08    00000008                             : mmwave_link.oer4f (.text:MMWave_mboxCallbackFxn)
                  00019e10    00000104     sysbios.aer4ft : BIOS.obj (.text:ti_sysbios_timers_rti_Timer_getFreq__E)
                  00019f14    00000100     libcli_xwr68xx.aer4f : cli_mmwave.oer4f (.text:CLI_MMWaveBPMCfgAdvanced)
                  0001a014    00000100     libdma_xwr68xx.aer4f : dma.oer4f (.text:DMA_clearChannelInterruptFlag)
                  0001a114    00000100     libmmwavelink_xwr68xx.aer4f : rl_driver.oer4f (.text:rlDriverInit)
                  0001a214    000000fc     libcbuff_xwr68xx.aer4f : cbuff.oer4f (.text:CBUFF_deleteSession)
                  0001a310    000000fc     libcrc_xwr68xx.aer4f : crc.oer4f (.text:CRC_computeSignature)
                  0001a40c    000000fc     mmw_cli.oer4f (.text:MmmwDemo_CLIIdleModeCycle)
                  0001a508    000000fc     mmw_cli.oer4f (.text:MmmwDemo_CLIIdleModeDown)
                  0001a604    000000fc     mmwdemo_adcconfig.oer4f (.text:MmwDemo_ADCBufConfig)
                  0001a700    000000fc     mmw_cli.oer4f (.text:MmwDemo_CLIChirpQualitySigImgMonCfg)
                  0001a7fc    000000fc     main.oer4f (.text:MmwDemo_dataPathStart)
                  0001a8f8    00000008     libosal_xwr68xx.aer4f : MemoryP_tirtos.oer4f (.text:MemoryP_getStats)
                  0001a900    000000fc     sysbios.aer4ft : BIOS.obj (.text:ti_sysbios_knl_Task_exit__E)
                  0001a9fc    000000fa     main.oer4f (.text:MmwDemo_setSubFramePendingState)
                  0001aaf6    00000002     mmw_per4ft.oer4ft (.text:xdc_runtime_Startup_reset__I)
                  0001aaf8    000000f8     objectdetection.oer4f (.text:DPC_ObjDet_staticClutterConfig)
                  0001abf0    000000f8     libmmwavelink_xwr68xx.aer4f : rl_driver.oer4f (.text:rlDriverRdVerifyMsg)
                  0001ace8    000000f8     mmw_per4ft.oer4ft (.text:xdc_runtime_System_printfExtend__I)
                  0001ade0    000000f4     libaoaproc_hwa_xwr68xx.aer4f : aoaprochwa.oer4f (.text:DPU_AoAProcHWA_init)
                  0001aed4    000000f4     mmw_lvds_stream.oer4f (.text:MmwDemo_configLVDSHwData)
                  0001afc8    00000008     libosal_xwr68xx.aer4f : SemaphoreP_tirtos.oer4f (.text:SemaphoreP_Params_init)
                  0001afd0    000000f0     sysbios.aer4ft : BIOS.obj (.text:ti_sysbios_family_arm_v7r_vim_Hwi_Module_startup__E)
                  0001b0c0    000000f0                    : BIOS.obj (.text:ti_sysbios_knl_Task_startCore__E)
                  0001b1b0    000000f0                    : BIOS.obj (.text:ti_sysbios_utils_Load_taskCreateHook__E)
                  0001b2a0    000000ec     rtsv7R4_T_le_v3D16_eabi.lib : s_scalbn.obj (.text)
                  0001b38c    00000004     libmmwave_xwr68xx.aer4f : mmwave_listlib.oer4f (.text:MMWave_listGetHead)
                  0001b390    000000ec     sysbios.aer4ft : BIOS.obj (.text:ti_sysbios_heaps_HeapBuf_Module_startup__E)
                  0001b47c    000000ea     libdpedma_hwa_xwr68xx.aer4f : dpedmahwa.oer4f (.text:DPEDMAHWA_configTwoHotSignature)
                  0001b566    00000002     --HOLE-- [fill = 0]
                  0001b568    000000e8     libdopplerproc_hwa_xwr68xx.aer4f : dopplerprochwa.oer4f (.text:DPU_DopplerProcHWA_process)
                  0001b650    000000e8     main.oer4f (.text:MmwDemo_platformInit)
                  0001b738    000000e8     libmmwavelink_xwr68xx.aer4f : rl_sensor.oer4f (.text:rlRfCalibDataStore)
                  0001b820    000000e8                                 : rl_sensor.oer4f (.text:rlRfPhShiftCalibDataStore)
                  0001b908    000000e5     objectdetection.oer4f (.text:DPC_ObjectDetection_frameStart)
                  0001b9ed    00000003     --HOLE-- [fill = 0]
                  0001b9f0    000000e4     libmmwavelink_xwr68xx.aer4f : rl_sensor.oer4f (.text:rlRfPhShiftCalibDataRestore)
                  0001bad4    000000e2     libedma_xwr68xx.aer4f : edma.oer4f (.text:EDMA_paramConfig_assist)
                  0001bbb6    00000002     --HOLE-- [fill = 0]
                  0001bbb8    000000e0     libcli_xwr68xx.aer4f : cli.oer4f (.text:CLI_open)
                  0001bc98    000000e0     libdma_xwr68xx.aer4f : dma.oer4f (.text:DMA_enableInterrupt)
                  0001bd78    000000e0     libcfarcaproc_hwa_xwr68xx.aer4f : cfarcaprochwa.oer4f (.text:DPU_CFARCAProcHWA_control)
                  0001be58    000000e0     rtsv7R4_T_le_v3D16_eabi.lib : s_floor.obj (.text)
                  0001bf38    000000dc     libmmwave_xwr68xx.aer4f : mmwave.oer4f (.text:MMWave_init)
                  0001c014    000000dc     mmwdemo_rfparser.oer4f (.text:MmwDemo_RFParser_parseADCBufCfg)
                  0001c0f0    000000dc     libmmwavelink_xwr68xx.aer4f : rl_driver.oer4f (.text:rlDriverMsgCmdReply)
                  0001c1cc    000000dc     rtsv7R4_T_le_v3D16_eabi.lib : setvbuf.obj (.text)
                  0001c2a8    000000d8     main.oer4f (.text:MmwDemo_isAllCfgInNonPendingState)
                  0001c380    000000d4     libdopplerproc_hwa_xwr68xx.aer4f : dopplerprochwa.oer4f (.text:DPU_DopplerProcHWA_init)
                  0001c454    000000d4     libmailbox_xwr68xx.aer4f : mailbox.oer4f (.text:Mailbox_read)
                  0001c528    000000d4     main.oer4f (.text:MmwDemo_isAllCfgInPendingState)
                  0001c5fc    000000d4     librangeproc_hwa_xwr68xx.aer4f : rangeprochwa.oer4f (.text:rangeProcHWA_ConfigEDMA_DataIn)
                  0001c6d0    000000d4     libmmwavelink_xwr68xx.aer4f : rl_sensor.oer4f (.text:rlSetMultiBpmChirpConfig)
                  0001c7a4    0000000c     libuart_xwr68xx.aer4f : uartsci_dma.oer4f (.text:UartSci_isDMAEnabled)
                  0001c7b0    000000d4     sysbios.aer4ft : BIOS.obj (.text:ti_sysbios_utils_Load_logLoads__I)
                  0001c884    000000d0     librangeproc_hwa_xwr68xx.aer4f : rangeprochwa.oer4f (.text:DPU_RangeProcHWA_control)
                  0001c954    000000d0     libsoc_xwr68xx.aer4f : soc_xwr68xx_mss.oer4f (.text:SOC_controlSecureFirewall)
                  0001ca24    000000d0     sysbios.aer4ft : exc_Exception_asm.obj (.text:ti_sysbios_family_arm_exc_Exception_excHandlerAsm__I)
                  0001caf4    0000000c                    : arm_IntrinsicsSupport_asm.obj (.text:_ti_sysbios_family_arm_IntrinsicsSupport_maxbitA)
                  0001cb00    000000d0                    : BIOS.obj (.text:ti_sysbios_utils_Load_idleFxn__E)
                  0001cbd0    000000d0                    : BIOS.obj (.text:xdc_runtime_LoggerBuf_Instance_init__E)
                  0001cca0    000000cc     libhwa_xwr68xx.aer4f : hwa.oer4f (.text:HWA_enableParamSetInterrupt)
                  0001cd6c    000000cc     mmw_cli.oer4f (.text:MmwDemo_CLIAnalogMonitorCfg)
                  0001ce38    000000cc     main.oer4f (.text:MmwDemo_measurementResultOutput)
                  0001cf04    000000cc     libmmwavelink_xwr68xx.aer4f : rl_sensor.oer4f (.text:rlRfCalibDataRestore)
                  0001cfd0    000000cc                                 : rl_sensor.oer4f (.text:rlSetChirpConfig)
                  0001d09c    000000cc     rtsv7R4_T_le_v3D16_eabi.lib : fflush.obj (.text)
                  0001d168    000000cc                                 : sscanf.obj (.text)
                  0001d234    0000000c                                 : copy_zero_init.obj (.text:decompress:ZI)
                  0001d240    000000cc     sysbios.aer4ft : BIOS.obj (.text:ti_sysbios_knl_Task_checkStacks__E)
                  0001d30c    000000ca     libdpedma_hwa_xwr68xx.aer4f : dpedmahwa.oer4f (.text:DPEDMAHWA_configOneHotSignature)
                  0001d3d6    00000002     --HOLE-- [fill = 0]
                  0001d3d8    000000c8     libmmwave_xwr68xx.aer4f : mmwave_fullcfg.oer4f (.text:MMWave_addChirp)
                  0001d4a0    000000c8                             : mmwave_link.oer4f (.text:MMWave_configBPM)
                  0001d568    000000c8                             : mmwave_fullcfg.oer4f (.text:MMWave_flushCfg)
                  0001d630    000000c8                             : mmwave_fullcfg.oer4f (.text:MMWave_getChirpHandle)
                  0001d6f8    000000c8     libsoc_xwr68xx.aer4f : soc_xwr68xx.oer4f (.text:SOC_ungateClock)
                  0001d7c0    000000c8     libmmwavelink_xwr68xx.aer4f : rl_sensor.oer4f (.text:rlSetFrameConfig)
                  0001d888    000000c4     libcbuff_xwr68xx.aer4f : cbuff_transfer.oer4f (.text:CBUFF_setupNonInterleaved_CP_ADC_CQ)
                  0001d94c    000000c4     libdpm_xwr68xx.aer4f : dpm_core.oer4f (.text:DPM_deinit)
                  0001da10    000000c4                          : dpm_core.oer4f (.text:DPM_ioctl)
                  0001dad4    0000000c     libmmwavelink_xwr68xx.aer4f : rl_driver.oer4f (.text:rlDriverGetPlatformId)
                  0001dae0    000000c4     sysbios.aer4ft : BIOS.obj (.text:ti_sysbios_family_arm_v7a_Pmu_configureCounter__E)
                  0001dba4    000000c0     librangeproc_hwa_xwr68xx.aer4f : rangeprochwa.oer4f (.text:DPU_RangeProcHWA_init)
                  0001dc64    000000c0     mmw_lvds_stream.oer4f (.text:MmwDemo_LVDSStream_EDMAAllocateCBUFFSwChannel)
                  0001dd24    000000c0     libmmwavelink_xwr68xx.aer4f : rl_driver.oer4f (.text:rlDriverMsgWrite)
                  0001dde4    0000000c     sysbios.aer4ft : BIOS.obj (.text:ti_sysbios_family_arm_v7a_Pmu_configureCounterI__I)
                  0001ddf0    000000c0                    : BIOS.obj (.text:ti_sysbios_timers_rti_Timer_startup__E)
                  0001deb0    000000be     objectdetection.oer4f (.text:DPC_ObjDet_GetRxChPhaseComp)
                  0001df6e    00000002     --HOLE-- [fill = 0]
                  0001df70    000000bc     libcli_xwr68xx.aer4f : cli.oer4f (.text:CLI_help)
                  0001e02c    000000bc     objectdetection.oer4f (.text:DPC_ObjectDetection_start)
                  0001e0e8    000000bc     libgpio_xwr68xx.aer4f : gpio.oer4f (.text:GPIO_write)
                  0001e1a4    000000bc     libmmwave_xwr68xx.aer4f : mmwave_link.oer4f (.text:MMWave_computeCRC)
                  0001e260    000000bc     rtsv7R4_T_le_v3D16_eabi.lib : open.obj (.text)
                  0001e31c    000000bb     data_path.oer4f (.text:MmwDemo_edmaInit)
                  0001e3d7    00000001     --HOLE-- [fill = 0]
                  0001e3d8    000000b8     libcbuff_xwr68xx.aer4f : cbuff.oer4f (.text:CBUFF_ISR)
                  0001e490    000000b8                            : cbuff_transfer.oer4f (.text:CBUFF_setupTransfer)
                  0001e548    000000b8     libdma_xwr68xx.aer4f : dma.oer4f (.text:DMA_getChannelInterruptFlag)
                  0001e600    000000b8     objectdetection.oer4f (.text:DPC_ObjDet_reconfigSubFrame)
                  0001e6b8    000000b8     rtsv7R4_T_le_v3D16_eabi.lib : k_cos.obj (.text)
                  0001e770    000000b6     libsoc_xwr68xx.aer4f : soc_mpu.o (.text)
                  0001e826    00000002     --HOLE-- [fill = 0]
                  0001e828    000000b4     libedma_xwr68xx.aer4f : edma.oer4f (.text:EDMA_startTransfer)
                  0001e8dc    000000b4     mmw_lvds_stream.oer4f (.text:MmwDemo_LVDSStream_EDMAAllocateCBUFFHwChannel)
                  0001e990    000000b4     sysbios.aer4ft : BIOS.obj (.text:ti_sysbios_gates_GateMutex_enter__E)
                  0001ea44    0000000c                    : BIOS.obj (.text:ti_sysbios_family_arm_v7a_Pmu_getCountI__E)
                  0001ea50    000000b4                    : BIOS.obj (.text:xdc_runtime_LoggerBuf_setFilterLevel__E)
                  0001eb04    000000b2     libuart_xwr68xx.aer4f : uartsci_dma.oer4f (.text:UartSci_openDMA)
                  0001ebb6    00000002     --HOLE-- [fill = 0]
                  0001ebb8    000000b0     libcbuff_xwr68xx.aer4f : cbuff.oer4f (.text:CBUFF_deactivateSession)
                  0001ec68    000000b0     libmmwave_xwr68xx.aer4f : mmwave_fullcfg.oer4f (.text:MMWave_addProfile)
                  0001ed18    000000b0     libmmwavelink_xwr68xx.aer4f : rl_sensor.oer4f (.text:rlSetProfileConfig)
                  0001edc8    00000008     librangeproc_hwa_xwr68xx.aer4f : rangeprochwa.oer4f (.text:rangeProcHWADoneIsrCallback)
                  0001edd0    000000b0     sysbios.aer4ft : BIOS.obj (.text:ti_sysbios_utils_Load_updateLoads__E)
                  0001ee80    000000b0                    : BIOS.obj (.text:xdc_runtime_Text_putMod__E)
                  0001ef30    000000ae     rtsv7R4_T_le_v3D16_eabi.lib : _io_perm.obj (.text)
                  0001efde    00000002     --HOLE-- [fill = 0]
                  0001efe0    000000ac     libaoaproc_hwa_xwr68xx.aer4f : aoaprochwa.oer4f (.text:AoAProcHWA_ConvertFov)
                  0001f08c    000000ac                                  : aoaprochwa.oer4f (.text:AoAProcHWA_rxChanPhaseBiasCompensation)
                  0001f138    000000ac     libesm_xwr68xx.aer4f : esm.oer4f (.text:ESM_processInterrupt)
                  0001f1e4    0000000c     mmw_per4ft.oer4ft (.text:ti_sysbios_knl_Queue_Object__get__S)
                  0001f1f0    000000ac     sysbios.aer4ft : BIOS.obj (.text:ti_sysbios_knl_Task_Module_startup__E)
                  0001f29c    00000004     libmmwave_xwr68xx.aer4f : mmwave_listlib.oer4f (.text:MMWave_listGetNext)
                  0001f2a0    000000ac     sysbios.aer4ft : BIOS.obj (.text:ti_sysbios_utils_Load_startup__E)
                  0001f34c    000000a8     libadcbuf_xwr68xx.aer4f : adcbuf_mmwave.oer4f (.text:ADCBUF_MMWave_getChanBufAddr)
                  0001f3f4    000000a8     libcli_xwr68xx.aer4f : cli_mmwave.oer4f (.text:CLI_MMWaveExtensionHelp)
                  0001f49c    000000a8     libedma_xwr68xx.aer4f : edma_low_level.oer4f (.text:EDMA3Init)
                  0001f544    000000a8     libmmwave_xwr68xx.aer4f : mmwave_link.oer4f (.text:MMWave_configureProfileChirp)
                  0001f5ec    000000a8                             : mmwave_fullcfg.oer4f (.text:MMWave_getBpmChirpHandle)
                  0001f694    000000a8     libpinmux_xwr68xx.aer4f : pinmux.oer4f (.text:Pinmux_Set_OverrideCtrl)
                  0001f73c    000000a8     libsoc_xwr68xx.aer4f : soc.oer4f (.text:SOC_deregisterSysIntListener)
                  0001f7e4    000000a8     libmmwavelink_xwr68xx.aer4f : rl_driver.oer4f (.text:rlDriverWaitForResponse)
                  0001f88c    000000a8                                 : rl_sensor.oer4f (.text:rlSetAdvFrameConfig)
                  0001f934    000000a4     libdma_xwr68xx.aer4f : dma.oer4f (.text:DMA_assignChannel)
                  0001f9d8    000000a4     libesm_xwr68xx.aer4f : esm.oer4f (.text:ESM_init)
                  0001fa7c    000000a4     libmmwave_xwr68xx.aer4f : mmwave_fullcfg.oer4f (.text:MMWave_addBpmChirp)
                  0001fb20    000000a4                             : mmwave.oer4f (.text:MMWave_start)
                  0001fbc4    000000a4     libqspiflash_xwr68xx.aer4f : qspiflash.oer4f (.text:QSPIFlash_mmapWrite)
                  0001fc68    000000a4     libsoc_xwr68xx.aer4f : soc_xwr68xx_mss.oer4f (.text:SOC_unhaltDSS)
                  0001fd0c    000000a4     rtsv7R4_T_le_v3D16_eabi.lib : k_sin.obj (.text)
                  0001fdb0    000000a2     sysbios.aer4ft : BIOS.obj (.text:xdc_runtime_Text_putSite__E)
                  0001fe52    00000002     --HOLE-- [fill = 0]
                  0001fe54    000000a0     mmw_cli.oer4f (.text:MmwDemo_CLIMeasureRangeBiasAndRxChanPhaseCfg)
                  0001fef4    000000a0     main.oer4f (.text:MmwDemo_CfgUpdate)
                  0001ff94    000000a0     libqspiflash_xwr68xx.aer4f : qspiflash.oer4f (.text:QSPIFlash_configMmapRead)
                  00020034    000000a0                                : qspiflash_device_macronix.oer4f (.text:QSPIFlash_macronix_progQuadRead)
                  000200d4    000000a0     libsoc_xwr68xx.aer4f : soc.oer4f (.text:SOC_registerSysIntListener)
                  00020174    000000a0     auto_init.aer4ft : auto_init.oer4ft (.text)
                  00020214    0000000a     libadcbuf_xwr68xx.aer4f : ADCBuf.oer4f (.text:ADCBuf_getChanBufAddr)
                  0002021e    00000002     --HOLE-- [fill = 0]
                  00020220    000000a0     sysbios.aer4ft : BIOS.obj (.text:ti_sysbios_knl_Task_blockI__E)
                  000202c0    0000009f     mmw_cli.oer4f (.text:MmwDemo_CLIGetSubframe)
                  0002035f    00000001     --HOLE-- [fill = 0]
                  00020360    0000009c     objectdetection.oer4f (.text:DPC_ObjectDetection_deinit)
                  000203fc    0000009c     libmmwave_xwr68xx.aer4f : mmwave_link.oer4f (.text:MMWave_configLink)
                  00020498    0000009c                             : mmwave_fullcfg.oer4f (.text:MMWave_getProfileHandle)
                  00020534    0000009c     libqspiflash_xwr68xx.aer4f : qspiflash_device_spansion.oer4f (.text:QSPIFlash_spansion_progQuadRead)
                  000205d0    0000009c     libuart_xwr68xx.aer4f : uartsci.oer4f (.text:UartSci_write)
                  0002066c    0000009c     rtsv7R4_T_le_v3D16_eabi.lib : memcpy_t2.obj (.text)
                  00020708    00000008     libmmwavelink_xwr68xx.aer4f : rl_driver.oer4f (.text:rlDriverConstructOutMsg)
                  00020710    0000009c     sysbios.aer4ft : BIOS.obj (.text:ti_sysbios_family_arm_v7r_vim_Hwi_initIntController__I)
                  000207ac    00000004     libmmwave_xwr68xx.aer4f : mmwave_link.oer4f (.text:MMWave_mboxClose)
                  000207b0    0000009c     sysbios.aer4ft : BIOS.obj (.text:ti_sysbios_family_arm_v7r_vim_Hwi_mapChannel__I)
                  0002084c    00000004     libmmwave_xwr68xx.aer4f : mmwave_link.oer4f (.text:MMWave_mboxRead)
                  00020850    0000009c     sysbios.aer4ft : BIOS.obj (.text:ti_sysbios_knl_Semaphore_Instance_init__E)
                  000208ec    0000009a     libdpm_xwr68xx.aer4f : dpm_msg.oer4f (.text:DPM_msgResponseHandler)
                  00020986    00000002     --HOLE-- [fill = 0]
                  00020988    00000098     libaoaproc_hwa_xwr68xx.aer4f : aoaprochwa.oer4f (.text:DPU_AoAProcHWA_control)
                  00020a20    00000098     libmmwave_xwr68xx.aer4f : mmwave_fullcfg.oer4f (.text:MMWave_getChirpCfg)
                  00020ab8    00000098     rtsv7R4_T_le_v3D16_eabi.lib : fclose.obj (.text)
                  00020b50    00000098                                 : fputc.obj (.text)
                  00020be8    00000098     sysbios.aer4ft : vim_Hwi_asm_switch.obj (.text)
                  00020c80    00000098                    : BIOS.obj (.text:ti_sysbios_utils_Load_taskDeleteHook__E)
                  00020d18    00000096     libedma_xwr68xx.aer4f : edma.oer4f (.text:EDMA_getErrorStatusInfo)
                  00020dae    00000096     libhwa_xwr68xx.aer4f : hwa.oer4f (.text:HWA_configRam)
                  00020e44    00000096     libuart_xwr68xx.aer4f : uartsci.oer4f (.text:UartSci_readChar)
                  00020eda    00000094     libcbuff_xwr68xx.aer4f : cbuff_transfer.oer4f (.text:CBUFF_setupNonInterleaved_ADC)
                  00020f6e    00000002     --HOLE-- [fill = 0]
                  00020f70    00000094     mmw_lvds_stream.oer4f (.text:MmwDemo_LVDSStream_EDMAFreeCBUFFSwChannel)
                  00021004    00000094     mmw_lvds_stream.oer4f (.text:MmwDemo_LVDSStream_SwTriggerFrameDone)
                  00021098    00000094     main.oer4f (.text:MmwDemo_convertCfarToLinear)
                  0002112c    00000094     libsoc_xwr68xx.aer4f : soc_xwr68xx.oer4f (.text:SOC_gateClock)
                  000211c0    00000094     libmmwavelink_xwr68xx.aer4f : rl_driver.oer4f (.text:rlDriverDeInit)
                  00021254    00000094                                 : rl_driver.oer4f (.text:rlDriverMsgReadCmdCtx)
                  000212e8    00000094                                 : rl_driver.oer4f (.text:rlDriverProcRdMsg)
                  0002137c    00000094     sysbios.aer4ft : vim_Hwi_asm.obj (.text:ti_sysbios_family_arm_v7r_vim_Hwi_dispatchIRQ__I)
                  00021410    00000090     libgpio_xwr68xx.aer4f : gpio.oer4f (.text:GPIO_init)
                  000214a0    00000090     libmailbox_xwr68xx.aer4f : mailbox.oer4f (.text:Mailbox_close)
                  00021530    00000090     mmw_lvds_stream.oer4f (.text:MmwDemo_LVDSStream_EDMAFreeCBUFFHwChannel)
                  000215c0    00000090     main.oer4f (.text:MmwDemo_calibSave)
                  00021650    00000090     libuart_xwr68xx.aer4f : uartsci_dma.oer4f (.text:UartSci_initiateTxDMA)
                  000216e0    00000090                           : uartsci.oer4f (.text:UartSci_read)
                  00021770    00000090     sysbios.aer4ft : BIOS.obj (.text:ti_sysbios_family_arm_v7a_Pmu_startCounter__E)
                  00021800    00000090                    : BIOS.obj (.text:ti_sysbios_knl_Task_unblockI__E)
                  00021890    00000090                    : BIOS.obj (.text:xdc_runtime_LoggerBuf_getFilterLevel__E)
                  00021920    0000008e     libaoaproc_hwa_xwr68xx.aer4f : aoaprochwa.oer4f (.text:AoAProcHWA_cfgAndTrigger_EDMA_2DFFT)
                  000219ae    0000008e     mmw_cli.oer4f (.text:MmwDemo_CLIAoAFovCfg)
                  00021a3c    0000008c     libcli_xwr68xx.aer4f : cli_mmwave.oer4f (.text:CLI_MMWaveDataOutputMode)
                  00021ac8    0000008c     objectdetection.oer4f (.text:DPC_ObjDet_GetAntGeometryDef)
                  00021b54    0000008c     libsoc_xwr68xx.aer4f : soc.oer4f (.text:SOC_init)
                  00021be0    0000008c                          : soc_xwr68xx.oer4f (.text:SOC_translateAddress)
                  00021c6c    0000008c     libuart_xwr68xx.aer4f : uartsci_dma.oer4f (.text:UartSci_initiateRxDMA)
                  00021cf8    0000008c     libmmwavelink_xwr68xx.aer4f : rl_device.oer4f (.text:rlDevicePowerOn)
                  00021d84    0000008c                                 : rl_driver.oer4f (.text:rlDriverMsgReadSpawnCtx)
                  00021e10    0000008c     sysbios.aer4ft : BIOS.obj (.text:ti_sysbios_family_arm_v7a_Pmu_getCount__E)
                  00021e9c    00000004     libmmwave_xwr68xx.aer4f : mmwave_link.oer4f (.text:MMWave_registerInterruptHandler)
                  00021ea0    0000008c     sysbios.aer4ft : BIOS.obj (.text:ti_sysbios_family_arm_v7r_vim_Hwi_Instance_finalize__E)
                  00021f2c    00000004     libmmwave_xwr68xx.aer4f : mmwave_link.oer4f (.text:MMWave_unmaskHostIRQ)
                  00021f30    0000008c     sysbios.aer4ft : BIOS.obj (.text:xdc_runtime_Memory_alloc__E)
                  00021fbc    00000088     libhwa_xwr68xx.aer4f : hwa.oer4f (.text:HWA_disableParamSetInterrupt)
                  00022044    00000088     libmmwave_xwr68xx.aer4f : mmwave_fullcfg.oer4f (.text:MMWave_getProfileCfg)
                  000220cc    00000088     mmwdemo_flash.oer4f (.text:mmwDemo_flashInit)
                  00022154    00000088     rtsv7R4_T_le_v3D16_eabi.lib : vsnprintf.obj (.text)
                  000221dc    00000086     libcbuff_xwr68xx.aer4f : cbuff_edma.oer4f (.text:CBUFF_closeEDMA)
                  00022262    00000086     mmw_cli.oer4f (.text:MmwDemo_CLIGuiMonSel)
                  000222e8    00000084     libcfarcaproc_hwa_xwr68xx.aer4f : cfarcaprochwa.oer4f (.text:DPU_CFARCAProcHWA_init)
                  0002236c    00000084     libmmwave_xwr68xx.aer4f : mmwave_dualcore.oer4f (.text:MMWave_deviceCfgAsyncEvent)
                  000223f0    00000084                             : mmwave_dualcore.oer4f (.text:MMWave_deviceEventFxn)
                  00022474    00000084                             : mmwave_fullcfg.oer4f (.text:MMWave_getNumBpmChirp)
                  000224f8    00000084                             : mmwave.oer4f (.text:MMWave_open)
                  0002257c    00000084     main.oer4f (.text:MmwDemo_configSensor)
                  00022600    00000082     libhwa_xwr68xx.aer4f : hwa.oer4f (.text:HWA_paramDoneISR)
                  00022682    00000002     --HOLE-- [fill = 0]
                  00022684    00000081     libcbuff_xwr68xx.aer4f : cbuff_edma.oer4f (.text:CBUFF_setupEDMAShadowLink)
                  00022705    00000003     --HOLE-- [fill = 0]
                  00022708    00000080     libcli_xwr68xx.aer4f : cli_mmwave.oer4f (.text:CLI_MMWaveChannelCfg)
                  00022788    00000080     libdpm_xwr68xx.aer4f : dpm_mailbox.oer4f (.text:DPM_mboxRemoteMailboxCallbackFxn)
                  00022808    00000080     libmmwave_xwr68xx.aer4f : mmwave_fullcfg.oer4f (.text:MMWave_getBpmChirpCfg)
                  00022888    00000080     libsoc_xwr68xx.aer4f : soc.oer4f (.text:SOC_getDeviceRFFreqScaleFactor)
                  00022908    00000080     libuart_xwr68xx.aer4f : uartsci.oer4f (.text:UartSci_writePolling)
                  00022988    00000080     libmmwavelink_xwr68xx.aer4f : rl_driver.oer4f (.text:rlDriverExecuteGetApi)
                  00022a08    00000008                                 : rl_driver.oer4f (.text:rlDriverGetHandle)
                  00022a10    00000080     sysbios.aer4ft : BIOS.obj (.text:ti_sysbios_timers_rti_Timer_initDevice__I)
                  00022a90    0000007e     libosal_xwr68xx.aer4f : HwiP_tirtos.oer4f (.text:HwiP_create)
                  00022b0e    00000002     --HOLE-- [fill = 0]
                  00022b10    0000007e     main.oer4f (.text:MmwDemo_dataPathStop)
                  00022b8e    00000002     --HOLE-- [fill = 0]
                  00022b90    0000007d     libcbuff_xwr68xx.aer4f : cbuff_lvds.oer4f (.text:CBUFF_initLVDSLinkListParams)
                  00022c0d    00000003     --HOLE-- [fill = 0]
                  00022c10    0000007c     libdpm_xwr68xx.aer4f : dpm_pipe.oer4f (.text:DPM_pipeSend)
                  00022c8c    0000007c     libedma_xwr68xx.aer4f : edma.oer4f (.text:EDMA_clearErrors)
                  00022d08    0000007c     libmmwave_xwr68xx.aer4f : mmwave_dualcore.oer4f (.text:MMWave_deviceOpenFxn)
                  00022d84    0000007c     libmailbox_xwr68xx.aer4f : mailbox.oer4f (.text:Mailbox_init)
                  00022e00    0000007c     mmw_cli.oer4f (.text:MmwDemo_CLICfarFovCfg)
                  00022e7c    0000007c     libuart_xwr68xx.aer4f : uartsci.oer4f (.text:UartSci_readPolling)
                  00022ef8    0000007c     sysbios.aer4ft : arm_TaskSupport_asm.obj (.text:_ti_sysbios_family_arm_TaskSupport_buildTaskStack)
                  00022f74    0000000a     libcbuff_xwr68xx.aer4f : cbuff_lvds.oer4f (.text:CBUFF_deinitLVDS)
                  00022f7e    00000002     --HOLE-- [fill = 0]
                  00022f80    0000007c     sysbios.aer4ft : BIOS.obj (.text:xdc_runtime_Core_deleteObject__I)
                  00022ffc    0000007b     data_path.oer4f (.text:MmwDemo_hwaOpen)
                  00023077    00000001     --HOLE-- [fill = 0]
                  00023078    0000007a     rtsv7R4_T_le_v3D16_eabi.lib : memset_t2.obj (.text)
                  000230f2    00000002     --HOLE-- [fill = 0]
                  000230f4    00000078     libadcbuf_xwr68xx.aer4f : adcbuf_mmwave.oer4f (.text:ADCBUF_MMWave_getCQBufAddr)
                  0002316c    00000078     libcbuff_xwr68xx.aer4f : cbuff_transfer.oer4f (.text:CBUFF_configUserBufferEDMA)
                  000231e4    00000078                            : cbuff.oer4f (.text:CBUFF_setVC)
                  0002325c    00000078     libcli_xwr68xx.aer4f : cli_mmwave.oer4f (.text:CLI_MMWaveADCCfg)
                  000232d4    00000078     libedma_xwr68xx.aer4f : edma.oer4f (.text:EDMA_configParamSet)
                  0002334c    00000078     libmmwave_xwr68xx.aer4f : mmwave_fullcfg.oer4f (.text:MMWave_getNumChirps)
                  000233c4    00000078     mmw_lvds_stream.oer4f (.text:MmwDemo_LVDSStream_HwTriggerFrameDone)
                  0002343c    00000078     main.oer4f (.text:MmwDemo_isDynObjDetCfgInNonPendingState)
                  000234b4    00000078     main.oer4f (.text:MmwDemo_isDynObjDetCfgPendingState)
                  0002352c    00000078     libqspiflash_xwr68xx.aer4f : qspiflash.oer4f (.text:QSPIFlash_mmapRead)
                  000235a4    00000078                                : qspiflash.oer4f (.text:QSPIFlash_sectorErase)
                  0002361c    00000078     libqspi_xwr68xx.aer4f : qspi.oer4f (.text:QSPI_cfgRead)
                  00023694    00000077                           : qspi.oer4f (.text:QSPI_memAccessCfg)
                  0002370b    00000001     --HOLE-- [fill = 0]
                  0002370c    00000074     libmmwave_xwr68xx.aer4f : mmwave.oer4f (.text:MMWave_config)
                  00023780    00000074                             : mmwave_dualcore.oer4f (.text:MMWave_deviceStartFxn)
                  000237f4    00000074     boot.aer4ft : boot.oer4ft (.text)
                  00023868    00000074     libmmwavelink_xwr68xx.aer4f : rl_driver.oer4f (.text:rlDriverAsyncEventHandler)
                  000238dc    00000074     rtsv7R4_T_le_v3D16_eabi.lib : getdevice.obj (.text)
                  00023950    00000074                                 : s_frexp.obj (.text)
                  000239c4    00000073     objectdetection.oer4f (.text:DPC_ObjectDetection_stop)
                  00023a37    00000001     --HOLE-- [fill = 0]
                  00023a38    00000072     libcfarcaproc_hwa_xwr68xx.aer4f : cfarcaprochwa.oer4f (.text:CFARHWA_saveConfiguration)
                  00023aaa    00000072     libmmwavelink_xwr68xx.aer4f : rl_driver.oer4f (.text:rlDriverClientCbCheck)
                  00023b1c    00000070     libhsiheader_xwr68xx.aer4f : hsiheader.oer4f (.text:HSIHeader_deleteHeader)
                  00023b8c    00000070     libhwa_xwr68xx.aer4f : hwa.oer4f (.text:HWA_getDriverAccess)
                  00023bfc    00000070     libmmwave_xwr68xx.aer4f : mmwave_dualcore.oer4f (.text:MMWave_deviceCfgFxn)
                  00023c6c    00000004                             : mmwave_link.oer4f (.text:MMWave_waitIRQStatus)
                  00023c70    00000070     sysbios.aer4ft : BIOS.obj (.text:xdc_runtime_Error_print__E)
                  00023ce0    0000006e     libcfarcaproc_hwa_xwr68xx.aer4f : cfarcaprochwa.oer4f (.text:CFARCAHWA_config_EDMA)
                  00023d4e    0000006e     main.oer4f (.text:MmwDemo_resetDynObjDetCfgPendingState)
                  00023dbc    0000006c     libdma_xwr68xx.aer4f : dma.oer4f (.text:DMA_disableChannel)
                  00023e28    0000006c                          : dma.oer4f (.text:DMA_enableChannel)
                  00023e94    0000006c     libedma_xwr68xx.aer4f : edma.oer4f (.text:EDMA_isTransferComplete)
                  00023f00    0000006c     libmmwave_xwr68xx.aer4f : mmwave_dualcore.oer4f (.text:MMWave_deviceCloseFxn)
                  00023f6c    0000006c                             : mmwave_link.oer4f (.text:MMWave_spawn)
                  00023fd8    0000006c                             : mmwave_link.oer4f (.text:MMWave_stopLink)
                  00024044    0000006c     libpinmux_xwr68xx.aer4f : pinmux.oer4f (.text:Pinmux_Set_FuncSel)
                  000240b0    0000006c     libqspiflash_xwr68xx.aer4f : qspiflash.oer4f (.text:QSPIFlashReadSFDP)
                  0002411c    0000006c     libqspi_xwr68xx.aer4f : qspi.oer4f (.text:QSPI_cfgWrite)
                  00024188    0000006c     rtsv7R4_T_le_v3D16_eabi.lib : copy_decompress_lzss.obj (.text:decompress:lzss)
                  000241f4    0000006c                                 : trgmsg.obj (.text)
                  00024260    0000006b     main.oer4f (.text:MmwDemo_mssSetHsiClk)
                  000242cb    00000001     --HOLE-- [fill = 0]
                  000242cc    0000006a     libuart_xwr68xx.aer4f : uartsci.oer4f (.text:UartSci_control)
                  00024336    00000068     objectdetection.oer4f (.text:DPC_ObjDet_MemPoolAlloc)
                  0002439e    00000002     --HOLE-- [fill = 0]
                  000243a0    00000068     libdpm_xwr68xx.aer4f : dpm_msg.oer4f (.text:DPM_msgDPCCfgHandler)
                  00024408    00000068     libmmwave_xwr68xx.aer4f : mmwave_dualcore.oer4f (.text:MMWave_deviceStopFxn)
                  00024470    00000068     libmailbox_xwr68xx.aer4f : mailbox.oer4f (.text:Mailbox_readFlush)
                  000244d8    00000068     main.oer4f (.text:MmwDemo_resetStaticCfgPendingState)
                  00024540    00000068     librangeproc_hwa_xwr68xx.aer4f : rangeprochwa.oer4f (.text:rangeProcHWA_ConfigEDMATranspose)
                  000245a8    00000068                                    : rangeprochwa.oer4f (.text:rangeProcHWA_ConfigHWACommon)
                  00024610    00000068     libmmwavelink_xwr68xx.aer4f : rl_driver.oer4f (.text:rlDriverExecuteSetApi)
                  00024678    00000068                                 : rl_driver.oer4f (.text:rlDriverHostIrqHandler)
                  000246e0    00000068     rtsv7R4_T_le_v3D16_eabi.lib : hostlseek.obj (.text)
                  00024748    00000068                                 : hostrename.obj (.text)
                  000247b0    00000066     libmmwavelink_xwr68xx.aer4f : rl_device.oer4f (.text:rlDevicePowerOff)
                  00024816    00000002     --HOLE-- [fill = 0]
                  00024818    00000064     libcli_xwr68xx.aer4f : cli_mmwave.oer4f (.text:CLI_MMWaveLowPowerCfg)
                  0002487c    00000064     libedma_xwr68xx.aer4f : edma.oer4f (.text:EDMA_getTransferControllerErrorStatusInfo)
                  000248e0    00000064                           : edma.oer4f (.text:EDMA_startDmaTransfer)
                  00024944    00000064     libhwa_xwr68xx.aer4f : hwa.oer4f (.text:HWA_getDMAChanIndex)
                  000249a8    00000064     libosal_xwr68xx.aer4f : SemaphoreP_tirtos.oer4f (.text:SemaphoreP_create)
                  00024a0c    00000064     rtsv7R4_T_le_v3D16_eabi.lib : fseek.obj (.text)
                  00024a70    00000064                                 : sprintf.obj (.text)
                  00024ad4    00000064     sysbios.aer4ft : exc_Exception_asm.obj (.text:ti_sysbios_family_arm_exc_Exception_initCore0__I)
                  00024b38    00000008                    : BIOS.obj (.text:ti_sysbios_family_arm_v7a_Pmu_getEnabled__E)
                  00024b40    00000064                    : BIOS.obj (.text:ti_sysbios_family_arm_v7r_vim_Hwi_phantomIntHandler__I)
                  00024ba4    0000000a     libdpm_xwr68xx.aer4f : dpm_core.oer4f (.text:DPM_chirpISR)
                  00024bae    00000002     --HOLE-- [fill = 0]
                  00024bb0    00000064     sysbios.aer4ft : BIOS.obj (.text:ti_sysbios_knl_Clock_logTick__E)
                  00024c14    0000000a     libdpm_xwr68xx.aer4f : dpm_core.oer4f (.text:DPM_frameStartISR)
                  00024c1e    00000002     --HOLE-- [fill = 0]
                  00024c20    00000064     sysbios.aer4ft : BIOS.obj (.text:ti_sysbios_utils_Load_logCPULoad__I)
                  00024c84    0000000a     libmmwave_xwr68xx.aer4f : mmwave_link.oer4f (.text:MMWave_closeLink)
                  00024c8e    00000002     --HOLE-- [fill = 0]
                  00024c90    00000064     sysbios.aer4ft : BIOS.obj (.text:xdc_runtime_Startup_exec__E)
                  00024cf4    00000060     libcli_xwr68xx.aer4f : cli_mmwave.oer4f (.text:CLI_MMWaveExtensionHandler)
                  00024d54    00000060     libosal_xwr68xx.aer4f : DebugP_tirtos.oer4f (.text:DebugP_log2)
                  00024db4    00000060                           : DebugP_tirtos.oer4f (.text:DebugP_log3)
                  00024e14    00000060     mmw_cli.oer4f (.text:MmwDemo_CLISensorStop)
                  00024e74    00000060     mmwdemo_flash.oer4f (.text:mmwDemo_flashRead)
                  00024ed4    0000000a     libosal_xwr68xx.aer4f : MemoryP_tirtos.oer4f (.text:MemoryP_ctrlFree)
                  00024ede    00000002     --HOLE-- [fill = 0]
                  00024ee0    00000060     sysbios.aer4ft : BIOS.obj (.text:ti_sysbios_heaps_HeapMem_alloc__E)
                  00024f40    00000060                    : BIOS.obj (.text:xdc_runtime_Assert_raise__I)
                  00024fa0    0000005f                    : BIOS.obj (.text:xdc_runtime_Text_putLab__E)
                  00024fff    00000001     --HOLE-- [fill = 0]
                  00025000    0000005e     libuart_xwr68xx.aer4f : uartsci.oer4f (.text:UartSci_writeChar)
                  0002505e    00000002     --HOLE-- [fill = 0]
                  00025060    0000005d     mmw_lvds_stream.oer4f (.text:MmwDemo_LVDSStream_EDMAAllocateCBUFFChannel)
                  000250bd    00000003     --HOLE-- [fill = 0]
                  000250c0    0000005c     libcfarcaproc_hwa_xwr68xx.aer4f : cfarcaprochwa.oer4f (.text:CFARHWA_fovConvertDoppler)
                  0002511c    0000005c                                     : cfarcaprochwa.oer4f (.text:CFARHWA_prepareHwaRunTime)
                  00025178    0000005c     libmmwave_xwr68xx.aer4f : mmwave.oer4f (.text:MMWave_close)
                  000251d4    0000005c                             : mmwave_link.oer4f (.text:MMWave_mboxOpen)
                  00025230    0000005c                             : mmwave.oer4f (.text:MMWave_stop)
                  0002528c    0000005c     libqspiflash_xwr68xx.aer4f : qspiflash.oer4f (.text:QSPIFlashGetDeviceID)
                  000252e8    0000005c     libsoc_xwr68xx.aer4f : soc.oer4f (.text:SOC_enableLVDS)
                  00025344    0000005c     rtsv7R4_T_le_v3D16_eabi.lib : hostopen.obj (.text)
                  000253a0    0000005c                                 : hostread.obj (.text)
                  000253fc    00000004     main.oer4f (.text:MmwDemo_sleep)
                  00025400    0000005c     sysbios.aer4ft : BIOS.obj (.text:ti_sysbios_utils_Load_updateCurrentThreadTime__E)
                  0002545c    0000005a     mmw_cli.oer4f (.text:MmwDemo_CLIMultiObjBeamForming)
                  000254b6    0000005a     libuart_xwr68xx.aer4f : uartsci.oer4f (.text:UartSci_readCancel)
                  00025510    0000005a     libmmwavelink_xwr68xx.aer4f : rl_driver.oer4f (.text:rlDriverCalChkSum)
                  0002556a    00000002     --HOLE-- [fill = 0]
                  0002556c    00000058     objectdetection.oer4f (.text:DPC_ObjDet_Config_MeasureRxChannelBiasCfg)
                  000255c4    00000058     libdpm_xwr68xx.aer4f : dpm_core.oer4f (.text:DPM_execute)
                  0002561c    00000058                          : dpm_mailbox.oer4f (.text:DPM_mboxInit)
                  00025674    00000058     libosal_xwr68xx.aer4f : DebugP_tirtos.oer4f (.text:DebugP_log0)
                  000256cc    00000058                           : DebugP_tirtos.oer4f (.text:DebugP_log1)
                  00025724    00000058     libedma_xwr68xx.aer4f : edma_low_level.oer4f (.text:EDMA3EnableChInShadowReg)
                  0002577c    00000058     libesm_xwr68xx.aer4f : esm.oer4f (.text:ESM_highpriority_FIQ)
                  000257d4    00000058     libhwa_xwr68xx.aer4f : hwa.oer4f (.text:HWA_getDMAconfig)
                  0002582c    00000058     libmmwave_xwr68xx.aer4f : mmwave.oer4f (.text:MMWave_execute)
                  00025884    00000058                             : mmwave_link.oer4f (.text:MMWave_initCRC)
                  000258dc    00000058     mmw_cli.oer4f (.text:MmwDemo_CLIQueryDemoStatus)
                  00025934    00000058     mmwdemo_rfparser.oer4f (.text:MmwDemo_RFParser_parseConfig)
                  0002598c    00000058     libqspiflash_xwr68xx.aer4f : qspiflash.oer4f (.text:QSPIFlash_configMmapWrite)
                  000259e4    00000058     libuart_xwr68xx.aer4f : uartsci_dma.oer4f (.text:UartSci_closeDMA)
                  00025a3c    00000058     mmwdemo_flash.oer4f (.text:mmwDemo_flashWrite)
                  00025a94    00000058     rtsv7R4_T_le_v3D16_eabi.lib : close.obj (.text)
                  00025aec    00000058                                 : hostwrite.obj (.text)
                  00025b44    00000056     libmmwavelink_xwr68xx.aer4f : rl_driver.oer4f (.text:rlDriverOsiCbCheck)
                  00025b9a    00000002     --HOLE-- [fill = 0]
                  00025b9c    00000054     libcrc_xwr68xx.aer4f : crc.oer4f (.text:CRC_getTransactionId)
                  00025bf0    00000054     libdma_xwr68xx.aer4f : dma.oer4f (.text:DMA_freeChannel)
                  00025c44    00000054     libedma_xwr68xx.aer4f : edma.oer4f (.text:EDMA_error_isr)
                  00025c98    00000054     libmmwave_xwr68xx.aer4f : mmwave_link.oer4f (.text:MMWave_initLink)
                  00025cec    00000054     mmwdemo_rfparser.oer4f (.text:MmwDemo_RFParser_getFramePeriod_ms)
                  00025d40    00000054     libqspiflash_xwr68xx.aer4f : qspiflash.oer4f (.text:QSPIFlash_writeEnable)
                  00025d94    00000054     rtsv7R4_T_le_v3D16_eabi.lib : ltoa.obj (.text)
                  00025de8    00000054     mmw_per4ft.oer4ft (.text:ti_sysbios_family_arm_v7r_vim_Hwi_create)
                  00025e3c    00000004     mmw_per4ft.oer4ft (.text:ti_sysbios_BIOS_RtsGateProxy_enter__E)
                  00025e40    00000054     sysbios.aer4ft : BIOS.obj (.text:ti_sysbios_heaps_HeapMem_getStats__E)
                  00025e94    0000000a     data_path.oer4f (.text:MmwDemo_hwaInit)
                  00025e9e    00000002     --HOLE-- [fill = 0]
                  00025ea0    00000054     sysbios.aer4ft : BIOS.obj (.text:xdc_runtime_Core_assignLabel__I)
                  00025ef4    00000052     libdpedma_hwa_xwr68xx.aer4f : dpedma.oer4f (.text:DPEDMA_setup_shadow_link)
                  00025f46    00000050     libaoaproc_hwa_xwr68xx.aer4f : aoaprochwa.oer4f (.text:AoAProc_HWAutil_configCommon)
                  00025f96    00000002     --HOLE-- [fill = 0]
                  00025f98    00000050     libcrc_xwr68xx.aer4f : crc.oer4f (.text:CRC_getSignature)
                  00025fe8    00000050     libedma_xwr68xx.aer4f : edma_low_level.oer4f (.text:EDMA3MapChToEvtQ)
                  00026038    00000050     libmmwave_xwr68xx.aer4f : mmwave.oer4f (.text:MMWave_sync)
                  00026088    00000050     libmmwavelink_xwr68xx.aer4f : rl_driver.oer4f (.text:rlDeviceIdentifyCmdDir)
                  000260d8    00000050                                 : rl_driver.oer4f (.text:rlDriverVerifyCRC)
                  00026128    00000050     rtsv7R4_T_le_v3D16_eabi.lib : atoi.obj (.text)
                  00026178    00000050                                 : exit.obj (.text)
                  000261c8    00000050                                 : u_div32.obj (.text)
                  00026218    00000008     mmw_per4ft.oer4ft (.text:xdc_runtime_Text_visitRope__I)
                  00026220    00000050     sysbios.aer4ft : BIOS.obj (.text:xdc_runtime_System_exit__E)
                  00026270    0000004e     mmwdemo_monitor.oer4f (.text:mmwDemo_cfgAnalogMonitor)
                  000262be    00000002     --HOLE-- [fill = 0]
                  000262c0    0000004c     libcli_xwr68xx.aer4f : cli.oer4f (.text:CLI_write)
                  0002630c    0000004c     libstaticclutterproc_xwr68xx.aer4f : staticclutterproc.oer4f (.text:DPU_StaticClutterProc_config)
                  00026358    0000004c     libedma_xwr68xx.aer4f : edma.oer4f (.text:EDMA_disableChannel)
                  000263a4    0000004c                           : edma.oer4f (.text:EDMA_enableChannel)
                  000263f0    0000004c     libhwa_xwr68xx.aer4f : hwa.oer4f (.text:HWA_enableDoneInterrupt)
                  0002643c    0000004c     libmailbox_xwr68xx.aer4f : mailbox.oer4f (.text:Mailbox_boxEmptyISRProcessing)
                  00026488    0000004c     libqspiflash_xwr68xx.aer4f : qspiflash_device_macronix.oer4f (.text:QSPIFlash_macronix_init)
                  000264d4    0000004c     libuart_xwr68xx.aer4f : uartsci.oer4f (.text:UartSci_writeCancel)
                  00026520    0000004c     rtsv7R4_T_le_v3D16_eabi.lib : cpy_tbl.obj (.text)
                  0002656c    00000004     mmw_per4ft.oer4ft (.text:ti_sysbios_BIOS_RtsGateProxy_leave__E)
                  00026570    0000004c     sysbios.aer4ft : BIOS.obj (.text:ti_sysbios_family_arm_v7r_vim_Hwi_getStackInfo__E)
                  000265bc    0000004c     mmw_per4ft.oer4ft (.text:ti_sysbios_knl_Task_create)
                  00026608    00000006     libosal_xwr68xx.aer4f : CycleprofilerP_tirtos.oer4f (.text:CycleprofilerP_getTimeStamp)
                  0002660e    00000002     --HOLE-- [fill = 0]
                  00026610    0000004c     sysbios.aer4ft : BIOS.obj (.text:ti_sysbios_knl_Task_stat__E)
                  0002665c    00000004     mmw_per4ft.oer4ft (.text:ti_sysbios_family_arm_TaskSupport_Module__startupDone__S)
                  00026660    0000004c     sysbios.aer4ft : BIOS.obj (.text:ti_sysbios_utils_Load_taskSwitchHook__E)
                  000266ac    0000004a     libdpm_xwr68xx.aer4f : dpm_mailbox.oer4f (.text:DPM_mboxSendResult)
                  000266f6    0000004a     libmailbox_xwr68xx.aer4f : mailbox.oer4f (.text:Mailbox_boxFullISRProcessing)
                  00026740    0000004a     mmwdemo_monitor.oer4f (.text:mmwDemo_cfgRxSaturationMonitor)
                  0002678a    00000006     libdpm_xwr68xx.aer4f : dpm_mailbox.oer4f (.text:DPM_mboxSynch)
                  00026790    0000004a     sysbios.aer4ft : BIOS.obj (.text:xdc_runtime_Core_assignParams__I)
                  000267da    00000006     libedma_xwr68xx.aer4f : edma_low_level.oer4f (.text:EDMA3ClrCCErr)
                  000267e0    0000004a     sysbios.aer4ft : BIOS.obj (.text:xdc_runtime_Text_xprintf__I)
                  0002682a    00000048     libcbuff_xwr68xx.aer4f : cbuff_transfer.oer4f (.text:CBUFF_setup_USER)
                  00026872    00000048     libcfarcaproc_hwa_xwr68xx.aer4f : cfarcaprochwa.oer4f (.text:CFARHWA_convHwaCfarDetListToDetMask)
                  000268ba    00000048     libdpm_xwr68xx.aer4f : dpm_pipe.oer4f (.text:DPM_pipeRecv)
                  00026902    00000002     --HOLE-- [fill = 0]
                  00026904    00000048     libhwa_xwr68xx.aer4f : hwa.oer4f (.text:HWA_deleteInstance)
                  0002694c    00000048                          : hwa.oer4f (.text:HWA_readCFARPeakCountReg)
                  00026994    00000048     libmmwavelink_xwr68xx.aer4f : rl_device.oer4f (.text:rlDeviceGetVersion)
                  000269dc    00000048                                 : rl_driver.oer4f (.text:rlDriverOsiInit)
                  00026a24    00000048     mmw_per4ft.oer4ft (.text:xdc_runtime_LoggerBuf_Object__create__S)
                  00026a6c    00000046     libmailbox_xwr68xx.aer4f : mailbox.oer4f (.text:CSL_FINSR)
                  00026ab2    00000046     mmw_cli.oer4f (.text:MmwDemo_CLIClutterRemoval)
                  00026af8    00000046     mmw_cli.oer4f (.text:MmwDemo_CLIExtendedMaxVelocity)
                  00026b3e    00000002     --HOLE-- [fill = 0]
                  00026b40    00000044     libadcbuf_xwr68xx.aer4f : adcbuf_mmwave.oer4f (.text:ADCBUF_MMWave_close)
                  00026b84    00000044     libcrc_xwr68xx.aer4f : crc.oer4f (.text:CRC_resetSignature)
                  00026bc8    00000044     libdpm_xwr68xx.aer4f : dpm_core.oer4f (.text:DPM_start)
                  00026c0c    00000044                          : dpm_core.oer4f (.text:DPM_stop)
                  00026c50    00000044     libmailbox_xwr68xx.aer4f : mailbox.oer4f (.text:Mailbox_boxFullISRMssDss)
                  00026c94    00000044     libsoc_xwr68xx.aer4f : soc_xwr68xx_mss.oer4f (.text:SOC_resetDMA)
                  00026cd8    00000044     rtsv7R4_T_le_v3D16_eabi.lib : hostclose.obj (.text)
                  00026d1c    00000044                                 : hostunlink.obj (.text)
                  00026d60    00000044     sysbios.aer4ft : BIOS.obj (.text:ti_sysbios_family_arm_v7r_tms570_Core_Module_startup__E)
                  00026da4    0000000a     libosal_xwr68xx.aer4f : SemaphoreP_tirtos.oer4f (.text:SemaphoreP_post)
                  00026dae    00000002     --HOLE-- [fill = 0]
                  00026db0    00000044     sysbios.aer4ft : BIOS.obj (.text:ti_sysbios_knl_Task_allBlockedFunction__I)
                  00026df4    0000000a     libuart_xwr68xx.aer4f : UART.oer4f (.text:UART_close)
                  00026dfe    00000002     --HOLE-- [fill = 0]
                  00026e00    00000044     sysbios.aer4ft : BIOS.obj (.text:xdc_runtime_LoggerBuf_Module_startup__E)
                  00026e44    0000000a     libuart_xwr68xx.aer4f : UART.oer4f (.text:UART_read)
                  00026e4e    00000002     --HOLE-- [fill = 0]
                  00026e50    00000044     sysbios.aer4ft : BIOS.obj (.text:xdc_runtime_System_atexit__E)
                  00026e94    00000042     libcbuff_xwr68xx.aer4f : cbuff_lvds.oer4f (.text:CBUFF_closeLVDS)
                  00026ed6    00000042     libedma_xwr68xx.aer4f : edma.oer4f (.text:EDMA_transferController_error_isr)
                  00026f18    00000042     libhwa_xwr68xx.aer4f : hwa.oer4f (.text:HWA_reset)
                  00026f5a    00000042     libmmwave_xwr68xx.aer4f : mmwave_link.oer4f (.text:MMWave_executeLink)
                  00026f9c    00000042     libmmwavelink_xwr68xx.aer4f : rl_controller.oer4f (.text:rlGetSubBlock)
                  00026fde    00000002     --HOLE-- [fill = 0]
                  00026fe0    00000040     libedma_xwr68xx.aer4f : edma.oer4f (.text:EDMA_linkParamSets)
                  00027020    00000040     libhwa_xwr68xx.aer4f : hwa.oer4f (.text:HWA_getHWAMemInfo)
                  00027060    00000040     mmwdemo_rfparser.oer4f (.text:MmwDemo_RFParser_getChirpEndIdx)
                  000270a0    00000040     main.oer4f (.text:MmwDemo_mmWaveCtrlTask)
                  000270e0    00000040     libqspiflash_xwr68xx.aer4f : qspiflash.oer4f (.text:QSPIFlash_progQuadRead)
                  00027120    00000040                                : qspiflash_device_spansion.oer4f (.text:QSPIFlash_spansion_init)
                  00027160    00000040     libmmwavelink_xwr68xx.aer4f : rl_driver.oer4f (.text:rlDriverValidateHdr)
                  000271a0    00000040     rtsv7R4_T_le_v3D16_eabi.lib : strtok.obj (.text)
                  000271e0    00000040     sysbios.aer4ft : BIOS.obj (.text:ti_sysbios_timers_rti_Timer_stop__E)
                  00027220    0000003e     libadcbuf_xwr68xx.aer4f : adcbuf_mmwave.oer4f (.text:CSL_FINSR)
                  0002725e    0000003e     libcbuff_xwr68xx.aer4f : cbuff.oer4f (.text:CSL_FINSR)
                  0002729c    0000003e                            : cbuff_lvds.oer4f (.text:CSL_FINSR)
                  000272da    0000003e     libcrc_xwr68xx.aer4f : crc.oer4f (.text:CSL_FINSR)
                  00027318    0000003e     libdma_xwr68xx.aer4f : dma.oer4f (.text:CSL_FINSR)
                  00027356    0000003e     libgpio_xwr68xx.aer4f : gpio.oer4f (.text:CSL_FINSR)
                  00027394    0000003e     libhwa_xwr68xx.aer4f : hwa.oer4f (.text:CSL_FINSR)
                  000273d2    0000003e     libpinmux_xwr68xx.aer4f : pinmux.oer4f (.text:CSL_FINSR)
                  00027410    0000003e     libqspi_xwr68xx.aer4f : qspi.oer4f (.text:CSL_FINSR)
                  0002744e    0000003e     libsoc_xwr68xx.aer4f : soc.oer4f (.text:CSL_FINSR)
                  0002748c    0000003e                          : soc_xwr68xx.oer4f (.text:CSL_FINSR)
                  000274ca    0000003e                          : soc_xwr68xx_mss.oer4f (.text:CSL_FINSR)
                  00027508    0000003e     libuart_xwr68xx.aer4f : uartsci.oer4f (.text:CSL_FINSR)
                  00027546    0000003e     libdpm_xwr68xx.aer4f : dpm_msg.oer4f (.text:DPM_msgStopHandler)
                  00027584    0000003e     libhwa_xwr68xx.aer4f : hwa.oer4f (.text:HWA_enable)
                  000275c2    0000003e     libmmwave_xwr68xx.aer4f : mmwave.oer4f (.text:MMWave_decodeError)
                  00027600    0000003e     libuart_xwr68xx.aer4f : uartsci.oer4f (.text:UartSci_close)
                  0002763e    0000003c     libcbuff_xwr68xx.aer4f : cbuff_transfer.oer4f (.text:CBUFF_configCQEDMA)
                  0002767a    00000002     --HOLE-- [fill = 0]
                  0002767c    0000003c     libcli_xwr68xx.aer4f : cli_mmwave.oer4f (.text:CLI_MMWaveFlushCfg)
                  000276b8    0000003c     libedma_xwr68xx.aer4f : edma.oer4f (.text:EDMA_chainChannels)
                  000276f4    0000003c                           : edma.oer4f (.text:EDMA_getErrorStatus)
                  00027730    0000003c                           : edma.oer4f (.text:EDMA_getTransferControllerErrorStatus)
                  0002776c    0000003c     libmailbox_xwr68xx.aer4f : mailbox.oer4f (.text:Mailbox_writeReset)
                  000277a8    0000003c     mmwdemo_adcconfig.oer4f (.text:MmwDemo_ADCBufOpen)
                  000277e4    0000003c     data_path.oer4f (.text:MmwDemo_EDMA_errorCallbackFxn)
                  00027820    0000003c     data_path.oer4f (.text:MmwDemo_EDMA_transferControllerErrorCallbackFxn)
                  0002785c    0000003c     libsoc_xwr68xx.aer4f : soc_xwr68xx_mss.oer4f (.text:SOC_isSecureDevice)
                  00027898    0000003c                          : soc.oer4f (.text:SOC_unhaltBSS)
                  000278d4    0000003c     sysbios.aer4ft : vim_Hwi_asm.obj (.text:ti_sysbios_family_arm_v7r_vim_Hwi_init__I)
                  00027910    0000003c                    : BIOS.obj (.text:ti_sysbios_hal_Hwi_checkStack)
                  0002794c    00000004     mmw_per4ft.oer4ft (.text:ti_sysbios_family_arm_v7r_vim_Hwi_delete)
                  00027950    0000003c     sysbios.aer4ft : BIOS.obj (.text:ti_sysbios_heaps_HeapMem_init__I)
                  0002798c    0000003a     libhwa_xwr68xx.aer4f : hwa.oer4f (.text:HWA_setDMA2ACCManualTrig)
                  000279c6    00000002     --HOLE-- [fill = 0]
                  000279c8    0000003a     libosal_xwr68xx.aer4f : HwiP_tirtos.oer4f (.text:HwiP_delete)
                  00027a02    00000038     libcbuff_xwr68xx.aer4f : cbuff_transfer.oer4f (.text:CBUFF_addUserBufferLLEntry)
                  00027a3a    00000038                            : cbuff_transfer.oer4f (.text:CBUFF_setupHeader)
                  00027a72    00000002     --HOLE-- [fill = 0]
                  00027a74    00000038     libcli_xwr68xx.aer4f : cli_mmwave.oer4f (.text:CLI_MMWaveExtensionInit)
                  00027aac    00000038     objectdetection.oer4f (.text:DPC_ObjDet_GenDopplerWindow)
                  00027ae4    00000038     libdpm_xwr68xx.aer4f : dpm_core.oer4f (.text:DPM_notifyExecute)
                  00027b1c    00000038     libedma_xwr68xx.aer4f : edma_low_level.oer4f (.text:EDMA3ClrMissEvt)
                  00027b54    00000038     libuart_xwr68xx.aer4f : UART.oer4f (.text:UART_init)
                  00027b8c    00000038     objectdetection.oer4f (.text:_DPC_Objdet_Assert)
                  00027bc4    00000038     mmwdemo_monitor.oer4f (.text:mmwDemo_cfgRxSigImgMonitor)
                  00027bfc    00000036     libmmwavelink_xwr68xx.aer4f : rl_controller.oer4f (.text:rlAppendSubBlock)
                  00027c32    00000036     rtsv7R4_T_le_v3D16_eabi.lib : strncpy.obj (.text)
                  00027c68    00000034     libadcbuf_xwr68xx.aer4f : ADCBuf.oer4f (.text:ADCBuf_open)
                  00027c9c    00000034     libedma_xwr68xx.aer4f : edma.oer4f (.text:EDMA_configTransferControllerError)
                  00027cd0    00000034     libhwa_xwr68xx.aer4f : hwa.oer4f (.text:HWA_disableDoneInterrupt)
                  00027d04    00000034     libmmwave_xwr68xx.aer4f : mmwave_link.oer4f (.text:MMWave_mboxWrite)
                  00027d38    00000034     main.oer4f (.text:MmwDemo_getNextSubFrameIndx)
                  00027d6c    00000034     libsoc_xwr68xx.aer4f : soc_xwr68xx.oer4f (.text:SOC_enableHWA)
                  00027da0    00000034                          : soc_xwr68xx_mss.oer4f (.text:SOC_hasDSPCore)
                  00027dd4    00000034                          : soc_xwr68xx.oer4f (.text:SOC_setMMWaveDSSLinkState)
                  00027e08    00000034                          : soc_xwr68xx.oer4f (.text:SOC_setMMWaveMSSLinkState)
                  00027e3c    00000034                          : soc_xwr68xx.oer4f (.text:SOC_setMSSLinkState)
                  00027e70    00000034     libuart_xwr68xx.aer4f : UART.oer4f (.text:UART_open)
                  00027ea4    0000000a                           : UART.oer4f (.text:UART_write)
                  00027eae    00000002     --HOLE-- [fill = 0]
                  00027eb0    00000034     sysbios.aer4ft : BIOS.obj (.text:ti_sysbios_family_arm_a15_TimestampProvider_get64__E)
                  00027ee4    00000034     mmw_per4ft.oer4ft (.text:ti_sysbios_knl_Semaphore_create)
                  00027f18    00000032     libcfarcaproc_hwa_xwr68xx.aer4f : cfarcaprochwa.oer4f (.text:CFARHWA_fovConvertRange)
                  00027f4a    00000002     --HOLE-- [fill = 0]
                  00027f4c    00000032     libcrc_xwr68xx.aer4f : crc.oer4f (.text:CRC_getCRCDataSelectBitValue)
                  00027f7e    00000002     --HOLE-- [fill = 0]
                  00027f80    00000032                          : crc.oer4f (.text:CRC_getCRCTypeBitValue)
                  00027fb2    00000032     libedma_xwr68xx.aer4f : edma.oer4f (.text:EDMA_configQueueThreshold)
                  00027fe4    00000032     libhwa_xwr68xx.aer4f : hwa.oer4f (.text:HWA_allParamDoneISR)
                  00028016    0000000a     libuart_xwr68xx.aer4f : UART.oer4f (.text:UART_writePolling)
                  00028020    00000032     sysbios.aer4ft : BIOS.obj (.text:ti_sysbios_hal_Hwi_initStack)
                  00028052    00000002     --HOLE-- [fill = 0]
                  00028054    00000031     main.oer4f (.text:_MmwDemo_debugAssert)
                  00028085    00000003     --HOLE-- [fill = 0]
                  00028088    00000030     libadcbuf_xwr68xx.aer4f : ADCBuf.oer4f (.text:ADCBuf_init)
                  000280b8    00000030     libcbuff_xwr68xx.aer4f : cbuff_transfer.oer4f (.text:CBUFF_addCQLLEntry)
                  000280e8    00000030     libmmwave_xwr68xx.aer4f : mmwave_listlib.oer4f (.text:MMWave_listRemoveNode)
                  00028118    00000030     mmwdemo_rfparser.oer4f (.text:MmwDemo_RFParser_getChirpStartIdx)
                  00028148    00000030     mmwdemo_rfparser.oer4f (.text:MmwDemo_RFParser_getNumLoops)
                  00028178    00000030     mmwdemo_rfparser.oer4f (.text:MmwDemo_RFParser_getProfileHandle)
                  000281a8    00000030     main.oer4f (.text:MmwDemo_getPrevSubFrameIndx)
                  000281d8    00000030     libsoc_xwr68xx.aer4f : soc.oer4f (.text:SOC_getDevicePartNumber)
                  00028208    00000030                          : soc.oer4f (.text:SOC_haltBSS)
                  00028238    00000030     mmwdemo_flash.oer4f (.text:mmwDemo_flashEraseOneSector)
                  00028268    00000030     libmmwavelink_xwr68xx.aer4f : rl_sensor.oer4f (.text:rlSensorStart)
                  00028298    00000030     mmw_per4ft.oer4ft (.text:ti_sysbios_BIOS_startFunc__I)
                  000282c8    00000006     libedma_xwr68xx.aer4f : edma_low_level.oer4f (.text:EDMA3ErrIntrHighStatusGet)
                  000282ce    00000002     --HOLE-- [fill = 0]
                  000282d0    00000030     sysbios.aer4ft : BIOS.obj (.text:ti_sysbios_family_arm_TaskSupport_start__E)
                  00028300    00000030     mmw_per4ft.oer4ft (.text:ti_sysbios_gates_GateHwi_Object__create__S)
                  00028330    00000030     mmw_per4ft.oer4ft (.text:ti_sysbios_gates_GateMutex_Object__create__S)
                  00028360    00000030     mmw_per4ft.oer4ft (.text:ti_sysbios_heaps_HeapMem_Object__create__S)
                  00028390    00000030     sysbios.aer4ft : BIOS.obj (.text:ti_sysbios_heaps_HeapMem_free__E)
                  000283c0    00000030     mmw_per4ft.oer4ft (.text:ti_sysbios_knl_Semaphore_construct)
                  000283f0    0000002f     sysbios.aer4ft : BIOS.obj (.text:xdc_runtime_Text_printVisFxn__I)
                  0002841f    00000001     --HOLE-- [fill = 0]
                  00028420    0000002e     libcfarcaproc_hwa_xwr68xx.aer4f : cfarcaprochwa.oer4f (.text:CFARHWA_triggerCFAR)
                  0002844e    0000002e     libdpm_xwr68xx.aer4f : dpm_msg.oer4f (.text:DPM_msgStartHandler)
                  0002847c    00000004     mmw_per4ft.oer4ft (.text:ti_sysbios_heaps_HeapMem_Module_GateProxy_enter__E)
                  00028480    0000002e     sysbios.aer4ft : BIOS.obj (.text:ti_sysbios_knl_Semaphore_pendTimeout__I)
                  000284ae    0000002e     mmw_per4ft.oer4ft (.text:ti_sysbios_rts_MemAlloc_alloc)
                  000284dc    0000002c     objectdetection.oer4f (.text:DPC_ObjDet_MemPoolSet)
                  00028508    0000002c     libdpm_xwr68xx.aer4f : dpm_pipe.oer4f (.text:DPM_pipeInit)
                  00028534    0000002c     libstaticclutterproc_xwr68xx.aer4f : staticclutterproc.oer4f (.text:DPU_StaticClutterProc_init)
                  00028560    0000002c     libedma_xwr68xx.aer4f : edma.oer4f (.text:EDMA_setDestinationAddress)
                  0002858c    0000002c                           : edma.oer4f (.text:EDMA_setSourceAddress)
                  000285b8    0000002c                           : edma.oer4f (.text:EDMA_validate_channelIdchannelType)
                  000285e4    0000002c     libgpio_xwr68xx.aer4f : gpio.oer4f (.text:GPIO_HighPriorityISR)
                  00028610    0000002c                           : gpio.oer4f (.text:GPIO_LowPriorityISR)
                  0002863c    0000002c     libmmwave_xwr68xx.aer4f : mmwave_osal.oer4f (.text:MMWave_osalMutexCreate)
                  00028668    0000002c                             : mmwave_osal.oer4f (.text:MMWave_osalSemCreate)
                  00028694    0000002c     libsoc_xwr68xx.aer4f : soc_xwr68xx_mss.oer4f (.text:SOC_waitBSSPowerUp)
                  000286c0    0000002c     libmmwavelink_xwr68xx.aer4f : rl_device.oer4f (.text:rlDeviceGetMssVersion)
                  000286ec    0000002c                                 : rl_sensor.oer4f (.text:rlSensorStop)
                  00028718    0000002c     rtsv7R4_T_le_v3D16_eabi.lib : e_sqrt.obj (.text)
                  00028744    0000002c                                 : unlink.obj (.text)
                  00028770    0000002c     mmw_per4ft.oer4ft (.text:ti_sysbios_BIOS_atExitFunc__I)
                  0002879c    0000002c     mmw_per4ft.oer4ft (.text:ti_sysbios_knl_Clock_doTick__I)
                  000287c8    0000002c     mmw_per4ft.oer4ft (.text:ti_sysbios_knl_Queue_construct)
                  000287f4    0000000a     libmathutils.aer4f : mathutils.oer4f (.text:mathUtils_floorLog2)
                  000287fe    00000002     --HOLE-- [fill = 0]
                  00028800    0000002c     sysbios.aer4ft : BIOS.obj (.text:ti_sysbios_timers_rti_Timer_periodicStub__E)
                  0002882c    0000002a     libdpm_xwr68xx.aer4f : dpm_pipe.oer4f (.text:DPM_pipeDeinit)
                  00028856    0000002a     libedma_xwr68xx.aer4f : edma.oer4f (.text:EDMA_isError)
                  00028880    0000002a     main.oer4f (.text:MmwDemo_isDynObjDetCommonCfgInNonPendingState)
                  000288aa    0000002a     main.oer4f (.text:MmwDemo_isDynObjDetCommonCfgPendingState)
                  000288d4    0000002a     libsoc_xwr68xx.aer4f : soc.oer4f (.text:SOC_SystemISR)
                  000288fe    0000002a     rtsv7R4_T_le_v3D16_eabi.lib : strspn.obj (.text)
                  00028928    00000028     libcbuff_xwr68xx.aer4f : cbuff.oer4f (.text:CBUFF_ErrorISR)
                  00028950    00000028                            : cbuff.oer4f (.text:CBUFF_FrameStartISR)
                  00028978    00000028     libdpm_xwr68xx.aer4f : dpm_mailbox.oer4f (.text:DPM_mboxDeinit)
                  000289a0    00000028                          : dpm_msg.oer4f (.text:DPM_msgInitHeader)
                  000289c8    00000028     librangeproc_hwa_xwr68xx.aer4f : rangeprochwa.oer4f (.text:DPU_RangeProcHWA_deinit)
                  000289f0    00000028     libmailbox_xwr68xx.aer4f : mailbox.oer4f (.text:Mailbox_Config_init)
                  00028a18    00000028     main.oer4f (.text:MmwDemo_DPC_ObjectDetection_processFrameBeginCallBackFxn)
                  00028a40    00000028     main.oer4f (.text:MmwDemo_DPC_ObjectDetection_processInterFrameBeginCallBackFxn)
                  00028a68    00000028     main.oer4f (.text:MmwDemo_dataPathOpen)
                  00028a90    00000028     libqspiflash_xwr68xx.aer4f : qspiflash.oer4f (.text:QSPIFlash_getExtFlashAddr)
                  00028ab8    00000028     libuart_xwr68xx.aer4f : uartsci_dma.oer4f (.text:UartSci_RxDMACallbackFxn)
                  00028ae0    00000028                           : uartsci_dma.oer4f (.text:UartSci_TxDMACallbackFxn)
                  00028b08    00000028     libmmwavelink_xwr68xx.aer4f : rl_device.oer4f (.text:rlDeviceGetMmWaveLinkVersion)
                  00028b30    00000028                                 : rl_driver.oer4f (.text:rlDriverConstructInMsg)
                  00028b58    00000028     rtsv7R4_T_le_v3D16_eabi.lib : lseek.obj (.text)
                  00028b80    00000028                                 : write.obj (.text)
                  00028ba8    00000006     libedma_xwr68xx.aer4f : edma_low_level.oer4f (.text:EDMA3GetCCErrStatus)
                  00028bae    00000002     --HOLE-- [fill = 0]
                  00028bb0    00000028     sysbios.aer4ft : BIOS.obj (.text:ti_sysbios_knl_Idle_run__E)
                  00028bd8    00000006     libedma_xwr68xx.aer4f : edma_low_level.oer4f (.text:EDMA3GetErrIntrStatus)
                  00028bde    00000002     --HOLE-- [fill = 0]
                  00028be0    00000028     sysbios.aer4ft : BIOS.obj (.text:xdc_runtime_SysStd_abort__E)
                  00028c08    00000006     libedma_xwr68xx.aer4f : edma_low_level.oer4f (.text:EDMA3QdmaGetErrIntrStatus)
                  00028c0e    00000002     --HOLE-- [fill = 0]
                  00028c10    00000028     sysbios.aer4ft : BIOS.obj (.text:xdc_runtime_System_aprintf_va__F)
                  00028c38    00000026     libstaticclutterproc_xwr68xx.aer4f : staticclutterproc.oer4f (.text:DPU_StaticClutterProc_waitInData)
                  00028c5e    00000026                                        : staticclutterproc.oer4f (.text:DPU_StaticClutterProc_waitOutData)
                  00028c84    00000026     libmmwavelink_xwr68xx.aer4f : rl_monitoring.oer4f (.text:rlRfAnaMonConfig)
                  00028caa    00000026                                 : rl_sensor.oer4f (.text:rlRfGetTemperatureReport)
                  00028cd0    00000026                                 : rl_sensor.oer4f (.text:rlRfInitCalibConfig)
                  00028cf6    00000026                                 : rl_sensor.oer4f (.text:rlRfRunTimeCalibConfig)
                  00028d1c    00000026                                 : rl_monitoring.oer4f (.text:rlRfRxIfSatMonConfig)
                  00028d42    00000026                                 : rl_monitoring.oer4f (.text:rlRfRxSigImgMonConfig)
                  00028d68    00000026                                 : rl_sensor.oer4f (.text:rlRfSetCalMonFreqLimitConfig)
                  00028d8e    00000026                                 : rl_sensor.oer4f (.text:rlRfSetDeviceCfg)
                  00028db4    00000026                                 : rl_sensor.oer4f (.text:rlRfSetLdoBypassConfig)
                  00028dda    00000026                                 : rl_sensor.oer4f (.text:rlSetAdcOutConfig)
                  00028e00    00000026                                 : rl_sensor.oer4f (.text:rlSetBpmCommonConfig)
                  00028e26    00000026                                 : rl_sensor.oer4f (.text:rlSetChannelConfig)
                  00028e4c    00000026                                 : rl_sensor.oer4f (.text:rlSetContModeConfig)
                  00028e72    00000026                                 : rl_sensor.oer4f (.text:rlSetPowerSaveModeConfig)
                  00028e98    00000026     rtsv7R4_T_le_v3D16_eabi.lib : memcmp.obj (.text)
                  00028ebe    00000002     --HOLE-- [fill = 0]
                  00028ec0    00000026     sysbios.aer4ft : BIOS.obj (.text:xdc_runtime_System_printf_va__F)
                  00028ee6    00000024     libcrc_xwr68xx.aer4f : crc.oer4f (.text:CRC_isTransactionIdValid)
                  00028f0a    00000024     objectdetection.oer4f (.text:DPC_ObjDet_GetDopplerWinGenLen)
                  00028f2e    00000024     objectdetection.oer4f (.text:DPC_ObjDet_GetRangeWinGenLen)
                  00028f52    00000002     --HOLE-- [fill = 0]
                  00028f54    00000024     libedma_xwr68xx.aer4f : edma_low_level.oer4f (.text:EDMA3ClrEvt)
                  00028f78    00000024                           : edma_low_level.oer4f (.text:EDMA3ClrIntr)
                  00028f9c    00000024                           : edma_low_level.oer4f (.text:EDMA3DisableDmaEvt)
                  00028fc0    00000024                           : edma_low_level.oer4f (.text:EDMA3DisableEvtIntr)
                  00028fe4    00000024                           : edma_low_level.oer4f (.text:EDMA3EnableDmaEvt)
                  00029008    00000024                           : edma_low_level.oer4f (.text:EDMA3EnableEvtIntr)
                  0002902c    00000024                           : edma_low_level.oer4f (.text:EDMA3SetEvt)
                  00029050    00000024                           : edma.oer4f (.text:EDMA_clearTransferControllerErrors)
                  00029074    00000024     libgpio_xwr68xx.aer4f : gpio.oer4f (.text:GPIO_processInterrupt)
                  00029098    00000024     libhsiheader_xwr68xx.aer4f : hsiheader.oer4f (.text:HSIHeader_processUserBuffer)
                  000290bc    00000024     libsoc_xwr68xx.aer4f : soc_xwr68xx.oer4f (.text:SOC_isDSSOperational)
                  000290e0    00000024                          : soc_xwr68xx.oer4f (.text:SOC_isMMWaveDSSOperational)
                  00029104    00000024                          : soc_xwr68xx.oer4f (.text:SOC_isMMWaveMSSOperational)
                  00029128    00000024     libmmwavelink_xwr68xx.aer4f : rl_device.oer4f (.text:rlDeviceSetHsiClk)
                  0002914c    00000024                                 : rl_sensor.oer4f (.text:rlEnableContMode)
                  00029170    00000024                                 : rl_sensor.oer4f (.text:rlRfSetCalMonTimeUnitConfig)
                  00029194    00000024                                 : rl_sensor.oer4f (.text:rlSetLowPowerModeConfig)
                  000291b8    00000024     mmw_per4ft.oer4ft (.text:ti_sysbios_BIOS_registerRTSLock__I)
                  000291dc    00000024     mmw_per4ft.oer4ft (.text:ti_sysbios_BIOS_removeRTSLock__I)
                  00029200    00000024     mmw_per4ft.oer4ft (.text:ti_sysbios_gates_GateMutex_Object__delete__S)
                  00029224    0000000a     sysbios.aer4ft : tms570_Core_asm.obj (.text:ti_sysbios_family_arm_v7r_tms570_Core_getId__E)
                  0002922e    00000002     --HOLE-- [fill = 0]
                  00029230    00000024                    : BIOS.obj (.text:ti_sysbios_knl_Clock_Module_startup__E)
                  00029254    00000024     mmw_per4ft.oer4ft (.text:ti_sysbios_knl_Semaphore_Object__delete__S)
                  00029278    00000022     libcbuff_xwr68xx.aer4f : cbuff_transfer.oer4f (.text:CBUFF_initLinkedList)
                  0002929a    00000022     objectdetection.oer4f (.text:DPC_ObjDet_GenRangeWindow)
                  000292bc    00000022     libqspiflash_xwr68xx.aer4f : qspiflash.oer4f (.text:QSPIFlashReadCmd)
                  000292de    00000022     libuart_xwr68xx.aer4f : uartsci.oer4f (.text:UartSci_disableRxDMA)
                  00029300    00000022                           : uartsci.oer4f (.text:UartSci_enableRxDMA)
                  00029322    00000022     rtsv7R4_T_le_v3D16_eabi.lib : strcspn.obj (.text)
                  00029344    00000020     libdpm_xwr68xx.aer4f : dpm_listlib.oer4f (.text:DPM_listCat)
                  00029364    00000020     libedma_xwr68xx.aer4f : edma_low_level.oer4f (.text:EDMA3QdmaClrMissEvt)
                  00029384    00000020     libesm_xwr68xx.aer4f : esm.oer4f (.text:ESM_lowpriority_IRQ)
                  000293a4    00000020     libhsiheader_xwr68xx.aer4f : hsiheader.oer4f (.text:HSIHeader_processCQ)
                  000293c4    00000020     libmmwave_xwr68xx.aer4f : mmwave_listlib.oer4f (.text:MMWave_listCat)
                  000293e4    00000020     mmwdemo_rfparser.oer4f (.text:MmwDemo_RFParser_getNumSubFrames)
                  00029404    00000020     libpinmux_xwr68xx.aer4f : pinmux.oer4f (.text:Pinmux_Unlock)
                  00029424    00000020     libmmwavelink_xwr68xx.aer4f : rl_sensor.oer4f (.text:rlRfInit)
                  00029444    0000000a     mmw_per4ft.oer4ft (.text:xdc_runtime_IHeap_alloc)
                  0002944e    00000002     --HOLE-- [fill = 0]
                  00029450    00000020     sysbios.aer4ft : BIOS.obj (.text:ti_sysbios_family_arm_TaskSupport_stackUsed__E)
                  00029470    00000020                    : BIOS.obj (.text:ti_sysbios_family_arm_a15_TimestampProvider_autoRefreshFxn__I)
                  00029490    00000020                    : BIOS.obj (.text:ti_sysbios_family_arm_v7a_Pmu_Module_startup__E)
                  000294b0    00000020     mmw_per4ft.oer4ft (.text:ti_sysbios_family_arm_v7r_vim_Hwi_Object__delete__S)
                  000294d0    00000020     sysbios.aer4ft : BIOS.obj (.text:ti_sysbios_family_arm_v7r_vim_Hwi_disableInterrupt__E)
                  000294f0    00000020                    : BIOS.obj (.text:ti_sysbios_family_arm_v7r_vim_Hwi_enableInterrupt__E)
                  00029510    00000020     mmw_per4ft.oer4ft (.text:ti_sysbios_gates_GateHwi_Object__delete__S)
                  00029530    00000020     mmw_per4ft.oer4ft (.text:ti_sysbios_heaps_HeapMem_Object__delete__S)
                  00029550    00000020     mmw_per4ft.oer4ft (.text:ti_sysbios_knl_Semaphore_destruct)
                  00029570    00000020     mmw_per4ft.oer4ft (.text:xdc_runtime_LoggerBuf_Object__delete__S)
                  00029590    0000001e     libaoaproc_hwa_xwr68xx.aer4f : aoaprochwa.oer4f (.text:AOAHWA_waitEdma)
                  000295ae    0000001e     libcfarcaproc_hwa_xwr68xx.aer4f : cfarcaprochwa.oer4f (.text:CFARHWA_isHwaCfarDetected)
                  000295cc    0000001e     libdpm_xwr68xx.aer4f : dpm_pipe.oer4f (.text:DPM_pipeDequeue)
                  000295ea    0000001e     libmmwave_xwr68xx.aer4f : mmwave_fullcfg.oer4f (.text:MMWave_internalDelChirp)
                  00029608    0000001e     main.oer4f (.text:MmwDemo_resetDynObjDetCommonCfgPendingState)
                  00029626    0000001e     libsoc_xwr68xx.aer4f : soc_xwr68xx_mss.oer4f (.text:SOC_getOutAddr_LUTType)
                  00029644    0000001e     mmw_per4ft.oer4ft (.text:ti_sysbios_BIOS_errorRaiseHook__I)
                  00029662    0000001c     libcrc_xwr68xx.aer4f : crc.oer4f (.text:CRC_releaseTransactionId)
                  0002967e    0000001c     libadcbuf_xwr68xx.aer4f : adcbuf_mmwave.oer4f (.text:CSL_FEXTR)
                  0002969a    0000001c     libcbuff_xwr68xx.aer4f : cbuff.oer4f (.text:CSL_FEXTR)
                  000296b6    0000001c                            : cbuff_lvds.oer4f (.text:CSL_FEXTR)
                  000296d2    0000001c     libdma_xwr68xx.aer4f : dma.oer4f (.text:CSL_FEXTR)
                  000296ee    0000001c     libhsiheader_xwr68xx.aer4f : hsiheader.oer4f (.text:CSL_FEXTR)
                  0002970a    0000001c     libhwa_xwr68xx.aer4f : hwa.oer4f (.text:CSL_FEXTR)
                  00029726    0000001c     libmmwave_xwr68xx.aer4f : mmwave.oer4f (.text:CSL_FEXTR)
                  00029742    0000001c     libsoc_xwr68xx.aer4f : soc.oer4f (.text:CSL_FEXTR)
                  0002975e    0000001c                          : soc_xwr68xx.oer4f (.text:CSL_FEXTR)
                  0002977a    0000001c                          : soc_xwr68xx_mss.oer4f (.text:CSL_FEXTR)
                  00029796    0000001c     libuart_xwr68xx.aer4f : uartsci.oer4f (.text:CSL_FEXTR)
                  000297b2    0000001c     libdpm_xwr68xx.aer4f : dpm_listlib.oer4f (.text:DPM_listRemove)
                  000297ce    00000002     --HOLE-- [fill = 0]
                  000297d0    0000001c     libaoaproc_hwa_xwr68xx.aer4f : aoaprochwa.oer4f (.text:DPU_AoAProcHWA_deinit)
                  000297ec    0000001c     libstaticclutterproc_xwr68xx.aer4f : staticclutterproc.oer4f (.text:DPU_StaticClutterProc_deinit)
                  00029808    0000001c     libmmwave_xwr68xx.aer4f : mmwave_listlib.oer4f (.text:MMWave_listRemove)
                  00029824    0000001c     libsoc_xwr68xx.aer4f : soc_xwr68xx_mss.oer4f (.text:SOC_getInAddr_LUTType)
                  00029840    0000001c     sysbios.aer4ft : arm_TaskSupport_asm.obj (.text:_ti_sysbios_family_arm_TaskSupport_glue)
                  0002985c    0000001c                    : arm_TaskSupport_asm.obj (.text:_ti_sysbios_family_arm_TaskSupport_swap__E)
                  00029878    0000001c     rtsv7R4_T_le_v3D16_eabi.lib : memccpy.obj (.text)
                  00029894    0000001c     mmw_per4ft.oer4ft (.text:ti_sysbios_BIOS_rtsLock__I)
                  000298b0    0000001c     sysbios.aer4ft : BIOS.obj (.text:ti_sysbios_family_arm_v7r_vim_Hwi_clearInterrupt__E)
                  000298cc    00000004     mmw_per4ft.oer4ft (.text:ti_sysbios_heaps_HeapMem_Module_GateProxy_leave__E)
                  000298d0    0000001c     sysbios.aer4ft : BIOS.obj (.text:ti_sysbios_gates_GateMutex_Instance_init__E)
                  000298ec    00000004     mmw_per4ft.oer4ft (.text:ti_sysbios_knl_Clock_TimerProxy_getMaxTicks__E)
                  000298f0    0000001c     sysbios.aer4ft : BIOS.obj (.text:ti_sysbios_gates_GateMutex_leave__E)
                  0002990c    0000001c     mmw_per4ft.oer4ft (.text:ti_sysbios_knl_Queue_destruct)
                  00029928    00000006     libosal_xwr68xx.aer4f : HwiP_tirtos.oer4f (.text:HwiP_restore)
                  0002992e    00000002     --HOLE-- [fill = 0]
                  00029930    0000001c     sysbios.aer4ft : BIOS.obj (.text:ti_sysbios_knl_Task_restoreHwi__E)
                  0002994c    00000004     mmw_per4ft.oer4ft (.text:ti_sysbios_knl_Semaphore_delete)
                  00029950    0000001c     sysbios.aer4ft : BIOS.obj (.text:xdc_runtime_LoggerBuf_Instance_finalize__E)
                  0002996c    0000001a     libcbuff_xwr68xx.aer4f : cbuff_lvds.oer4f (.text:CBUFF_finalizeLVDSLinkListParams)
                  00029986    0000001a     objectdetection.oer4f (.text:DPC_ObjDet_MemPoolReset)
                  000299a0    0000001a     libdpm_xwr68xx.aer4f : dpm_listlib.oer4f (.text:DPM_listAdd)
                  000299ba    0000001a                          : dpm_mailbox.oer4f (.text:DPM_mboxMsgSend)
                  000299d4    0000001a                          : dpm_msg.oer4f (.text:DPM_msgAssertHandler)
                  000299ee    0000001a                          : dpm_msg.oer4f (.text:DPM_msgDPCInfoHandler)
                  00029a08    0000001a     libedma_xwr68xx.aer4f : edma_low_level.oer4f (.text:EDMA3SetPaRAM)
                  00029a22    0000001a     libmmwave_xwr68xx.aer4f : mmwave_dualcore.oer4f (.text:MMWave_deviceSyncFxn)
                  00029a3c    0000001a                             : mmwave.oer4f (.text:MMWave_encodeError)
                  00029a56    0000001a                             : mmwave_listlib.oer4f (.text:MMWave_listAdd)
                  00029a70    0000001a     mmw_per4ft.oer4ft (.text:free)
                  00029a8a    0000001a     libmmwavelink_xwr68xx.aer4f : rl_sensor.oer4f (.text:rlGetRfDieId)
                  00029aa4    0000001a     rtsv7R4_T_le_v3D16_eabi.lib : s_copysign.obj (.text)
                  00029abe    0000001a     sysbios.aer4ft : a15_TimestampProvider_asm.obj (.text:ti_sysbios_family_arm_a15_TimestampProvider_initCCNT__I)
                  00029ad8    0000001a     mmw_per4ft.oer4ft (.text:xdc_runtime_System_aprintf__E)
                  00029af2    0000001a     mmw_per4ft.oer4ft (.text:xdc_runtime_System_printf__E)
                  00029b0c    00000018     libadcbuf_xwr68xx.aer4f : adcbuf_mmwave.oer4f (.text:ADCBUFContinuousModeCtrl)
                  00029b24    00000018     libcli_xwr68xx.aer4f : cli_mmwave.oer4f (.text:CLI_getMMWaveExtensionOpenConfig)
                  00029b3c    00000018     libcbuff_xwr68xx.aer4f : cbuff_transfer.oer4f (.text:CSL_FINSR)
                  00029b54    00000018     libdpm_xwr68xx.aer4f : dpm_msg.oer4f (.text:DPM_msgBSSFaultHandler)
                  00029b6c    00000018     libcfarcaproc_hwa_xwr68xx.aer4f : cfarcaprochwa.oer4f (.text:DPU_CFARCAProcHWA_deinit)
                  00029b84    00000018     libdopplerproc_hwa_xwr68xx.aer4f : dopplerprochwa.oer4f (.text:DPU_DopplerProcHWA_deinit)
                  00029b9c    00000018     libedma_xwr68xx.aer4f : edma_low_level.oer4f (.text:EDMA3DisableQdmaEvt)
                  00029bb4    00000018                           : edma_low_level.oer4f (.text:EDMA3EnableQdmaEvt)
                  00029bcc    00000018     libmmwave_xwr68xx.aer4f : mmwave_osal.oer4f (.text:MMWave_osalMutexLock)
                  00029be4    00000018                             : mmwave_osal.oer4f (.text:MMWave_osalSemWait)
                  00029bfc    00000018     libmailbox_xwr68xx.aer4f : mailbox.oer4f (.text:Mailbox_boxEmptyISRBss)
                  00029c14    00000018                              : mailbox.oer4f (.text:Mailbox_boxEmptyISRMssDss)
                  00029c2c    00000018                              : mailbox.oer4f (.text:Mailbox_boxFullISRBss)
                  00029c44    00000018     main.oer4f (.text:MmwDemo_dataPathInit)
                  00029c5c    00000018     main.oer4f (.text:MmwDemo_getTemperatureReport)
                  00029c74    00000018     libmmwavelink_xwr68xx.aer4f : rl_device.oer4f (.text:rlDeviceGetRfVersion)
                  00029c8c    00000018                                 : rl_driver.oer4f (.text:rlDriverCalCRC)
                  00029ca4    00000018                                 : rl_driver.oer4f (.text:rlDriverFillPayload)
                  00029cbc    00000018     rtsv7R4_T_le_v3D16_eabi.lib : args_main.obj (.text)
                  00029cd4    00000018                                 : ll_mul_t2.obj (.text)
                  00029cec    00000018                                 : strcmp.obj (.text)
                  00029d04    00000018                                 : strrchr.obj (.text)
                  00029d1c    00000018     mmw_per4ft.oer4ft (.text:ti_sysbios_BIOS_rtsUnlock__I)
                  00029d34    00000018     sysbios.aer4ft : BIOS.obj (.text:ti_sysbios_family_arm_v7a_Pmu_initCounters__I)
                  00029d4c    00000018     mmw_per4ft.oer4ft (.text:ti_sysbios_family_arm_v7r_vim_Hwi_Module__startupDone__F)
                  00029d64    00000018     mmw_per4ft.oer4ft (.text:ti_sysbios_family_arm_v7r_vim_Hwi_Params__init__S)
                  00029d7c    00000018     mmw_per4ft.oer4ft (.text:ti_sysbios_gates_GateHwi_Handle__label__S)
                  00029d94    00000018     mmw_per4ft.oer4ft (.text:ti_sysbios_gates_GateMutex_Handle__label__S)
                  00029dac    00000018     mmw_per4ft.oer4ft (.text:ti_sysbios_heaps_HeapMem_Handle__label__S)
                  00029dc4    00000018     mmw_per4ft.oer4ft (.text:ti_sysbios_knl_Semaphore_Params__init__S)
                  00029ddc    00000018     mmw_per4ft.oer4ft (.text:ti_sysbios_knl_Task_Params__init__S)
                  00029df4    0000000a     mmw_per4ft.oer4ft (.text:xdc_runtime_IHeap_free)
                  00029dfe    00000002     --HOLE-- [fill = 0]
                  00029e00    00000018     sysbios.aer4ft : BIOS.obj (.text:ti_sysbios_knl_Task_enter__I)
                  00029e18    00000018     mmw_per4ft.oer4ft (.text:ti_sysbios_timers_rti_Timer_Module__startupDone__F)
                  00029e30    00000018     sysbios.aer4ft : BIOS.obj (.text:xdc_runtime_Error_init__E)
                  00029e48    00000018     mmw_per4ft.oer4ft (.text:xdc_runtime_LoggerBuf_Handle__label__S)
                  00029e60    00000016     libcbuff_xwr68xx.aer4f : cbuff_transfer.oer4f (.text:CBUFF_shutdownTransfer)
                  00029e76    00000016     objectdetection.oer4f (.text:DPC_ObjDet_Config_StaticClutterRemovalCfg)
                  00029e8c    00000016     librangeproc_hwa_xwr68xx.aer4f : rangeprochwa.oer4f (.text:rangeProcHWA_EDMA_transferCompletionCallbackFxn)
                  00029ea2    00000016     rtsv7R4_T_le_v3D16_eabi.lib : strchr.obj (.text)
                  00029eb8    00000016                                 : strlen.obj (.text)
                  00029ece    00000016     mmw_per4ft.oer4ft (.text:ti_sysbios_BIOS_exitFunc__I)
                  00029ee4    0000000a     mmw_per4ft.oer4ft (.text:xdc_runtime_IHeap_getStats)
                  00029eee    00000002     --HOLE-- [fill = 0]
                  00029ef0    00000016     sysbios.aer4ft : BIOS.obj (.text:ti_sysbios_knl_Idle_loop__E)
                  00029f06    00000016     main.oer4f (.text:ti_sysbios_knl_Semaphore_Params_init)
                  00029f1c    00000016     mmw_lvds_stream.oer4f (.text:ti_sysbios_knl_Semaphore_Params_init)
                  00029f32    00000016     main.oer4f (.text:ti_sysbios_knl_Task_Params_init)
                  00029f48    00000006     libmmwavelink_xwr68xx.aer4f : rl_controller.oer4f (.text:rlGetSubBlockId)
                  00029f4e    00000002     --HOLE-- [fill = 0]
                  00029f50    00000016     sysbios.aer4ft : BIOS.obj (.text:ti_sysbios_knl_Task_sleepTimeout__I)
                  00029f66    00000014     libosal_xwr68xx.aer4f : CycleprofilerP_tirtos.oer4f (.text:CycleprofilerP_init)
                  00029f7a    00000014     objectdetection.oer4f (.text:DPC_ObjDet_MemPoolGetMaxUsage)
                  00029f8e    00000002     --HOLE-- [fill = 0]
                  00029f90    00000014     libedma_xwr68xx.aer4f : edma_low_level.oer4f (.text:EDMA3GetIntrStatus)
                  00029fa4    00000014                           : edma_low_level.oer4f (.text:EDMA3IntrStatusHighGet)
                  00029fb8    00000014                           : edma_low_level.oer4f (.text:EDMA3MapQdmaChToPaRAM)
                  00029fcc    00000014     libosal_xwr68xx.aer4f : HwiP_tirtos.oer4f (.text:HwiP_Params_init)
                  00029fe0    00000014     libmmwave_xwr68xx.aer4f : mmwave_fullcfg.oer4f (.text:MMWave_internalDelBpmChirp)
                  00029ff4    00000014                             : mmwave_fullcfg.oer4f (.text:MMWave_internalDelProfile)
                  0002a008    00000014                             : mmwave_osal.oer4f (.text:MMWave_osalMutexDelete)
                  0002a01c    00000014                             : mmwave_osal.oer4f (.text:MMWave_osalSemDelete)
                  0002a030    00000014     libpinmux_xwr68xx.aer4f : pinmux.oer4f (.text:Pinmux_Lock)
                  0002a044    00000014     libuart_xwr68xx.aer4f : uartsci.oer4f (.text:UartSci_disableTxDMA)
                  0002a058    00000014                           : uartsci.oer4f (.text:UartSci_enableTxDMA)
                  0002a06c    00000014     libosal_xwr68xx.aer4f : DebugP_tirtos.oer4f (.text:_DebugP_assert)
                  0002a080    00000014     libmathutils.aer4f : mathutils.oer4f (.text:mathUtils_ceilLog2)
                  0002a094    00000014     libmmwavelink_xwr68xx.aer4f : rl_controller.oer4f (.text:rlAppendDummy)
                  0002a0a8    00000014                                 : rl_driver.oer4f (.text:rlDriverIsDeviceMapValid)
                  0002a0bc    00000014     rtsv7R4_T_le_v3D16_eabi.lib : _lock.obj (.text)
                  0002a0d0    00000014                                 : strcpy.obj (.text)
                  0002a0e4    00000014     mmw_per4ft.oer4ft (.text:ti_sysbios_heaps_HeapMem_Object__get__S)
                  0002a0f8    00000014     mmw_per4ft.oer4ft (.text:xdc_runtime_LoggerBuf_Object__get__S)
                  0002a10c    00000012     libcrc_xwr68xx.aer4f : crc.oer4f (.text:CRC_initConfigParams)
                  0002a11e    00000012     libedma_xwr68xx.aer4f : edma_low_level.oer4f (.text:EDMA3SetQdmaTrigWord)
                  0002a130    00000012     mmw_lvds_stream.oer4f (.text:HSIHeader_toCBUFFUnits)
                  0002a142    00000012     libmmwave_xwr68xx.aer4f : mmwave_dualcore.oer4f (.text:MMWave_deviceGetDeviceInfo)
                  0002a154    00000012     libosal_xwr68xx.aer4f : MemoryP_tirtos.oer4f (.text:MemoryP_ctrlAlloc)
                  0002a166    00000012                           : SemaphoreP_tirtos.oer4f (.text:SemaphoreP_pend)
                  0002a178    00000012     libmathutils.aer4f : mathutils.oer4f (.text:mathUtils_pow2roundup)
                  0002a18a    00000006     libmmwavelink_xwr68xx.aer4f : rl_controller.oer4f (.text:rlGetSubBlockLen)
                  0002a190    00000012     sysbios.aer4ft : BIOS.obj (.text:ti_sysbios_hal_Hwi_Module_startup__E)
                  0002a1a2    0000000e     objectdetection.oer4f (.text:DPC_ObjDet_MemPoolGet)
                  0002a1b0    00000012     sysbios.aer4ft : BIOS.obj (.text:xdc_runtime_LoggerBuf_write1__E)
                  0002a1c2    0000000e     mmw_lvds_stream.oer4f (.text:HSIHeader_getHeaderSize)
                  0002a1d0    00000012     sysbios.aer4ft : BIOS.obj (.text:xdc_runtime_LoggerBuf_write2__E)
                  0002a1e2    00000012     mmw_per4ft.oer4ft (.text:xdc_runtime_Startup_exec__I)
                  0002a1f4    00000010     libadcbuf_xwr68xx.aer4f : ADCBuf.oer4f (.text:ADCBuf_Params_init)
                  0002a204    00000010     libaoaproc_hwa_xwr68xx.aer4f : aoaprochwa.oer4f (.text:AoAProcHWA_trigger_EDMA_3DFFT)
                  0002a214    00000010     libcli_xwr68xx.aer4f : cli_mmwave.oer4f (.text:CLI_getMMWaveExtensionConfig)
                  0002a224    00000010     libcrc_xwr68xx.aer4f : crc.oer4f (.text:CRC_getSignatureRegister)
                  0002a234    00000010     libaoaproc_hwa_xwr68xx.aer4f : aoaprochwa.oer4f (.text:DPU_AoAProcHWA_getNumHwaParamSets)
                  0002a244    00000010     data_path.oer4f (.text:MmwDemo_dataPathObjInit)
                  0002a254    00000010     libqspiflash_xwr68xx.aer4f : qspiflash.oer4f (.text:QSPIFlashWriteCmd)
                  0002a264    00000010     libqspi_xwr68xx.aer4f : qspi.oer4f (.text:QSPI_Params_init)
                  0002a274    00000006     rtsv7R4_T_le_v3D16_eabi.lib : atof.obj (.text)
                  0002a27a    00000006     sysbios.aer4ft : a15_TimestampProvider_asm.obj (.text:ti_sysbios_family_arm_a15_TimestampProvider_get32__E)
                  0002a280    00000010                    : BIOS.obj (.text:ti_sysbios_BIOS_getCpuFreq__E)
                  0002a290    00000010                    : BIOS.obj (.text:ti_sysbios_BIOS_setThreadType__E)
                  0002a2a0    00000010                    : BIOS.obj (.text:ti_sysbios_BIOS_start__E)
                  0002a2b0    00000010                    : BIOS.obj (.text:ti_sysbios_family_arm_a15_TimestampProvider_Module_startup__E)
                  0002a2c0    00000010                    : BIOS.obj (.text:ti_sysbios_family_arm_v7a_Pmu_disableInterruptI__E)
                  0002a2d0    00000010                    : BIOS.obj (.text:ti_sysbios_family_arm_v7a_Pmu_enableInterruptI__E)
                  0002a2e0    00000010                    : BIOS.obj (.text:ti_sysbios_family_arm_v7a_Pmu_getNumCounters__E)
                  0002a2f0    00000010                    : BIOS.obj (.text:ti_sysbios_family_arm_v7a_Pmu_startCounterI__E)
                  0002a300    00000010                    : BIOS.obj (.text:ti_sysbios_family_arm_v7a_Pmu_stopCounterI__E)
                  0002a310    00000010                    : BIOS.obj (.text:ti_sysbios_gates_GateMutex_Instance_finalize__E)
                  0002a320    00000010     mmw_per4ft.oer4ft (.text:ti_sysbios_heaps_HeapBuf_Object__get__S)
                  0002a330    00000010     sysbios.aer4ft : BIOS.obj (.text:ti_sysbios_knl_Semaphore_Instance_finalize__E)
                  0002a340    00000010     mmw_per4ft.oer4ft (.text:ti_sysbios_knl_Task_Object__get__S)
                  0002a350    00000010     sysbios.aer4ft : BIOS.obj (.text:ti_sysbios_knl_Task_disable__E)
                  0002a360    00000010                    : BIOS.obj (.text:xdc_runtime_LoggerBuf_write0__E)
                  0002a370    00000010                    : BIOS.obj (.text:xdc_runtime_Memory_free__E)
                  0002a380    00000010                    : BIOS.obj (.text:xdc_runtime_Memory_getStats__E)
                  0002a390    0000000e     libsoc_xwr68xx.aer4f : soc_xwr68xx_mss.oer4f (.text:SOC_microDelay)
                  0002a39e    0000000e     libosal_xwr68xx.aer4f : SemaphoreP_tirtos.oer4f (.text:SemaphoreP_delete)
                  0002a3ac    0000000e     rtsv7R4_T_le_v3D16_eabi.lib : copy_decompress_none.obj (.text:decompress:none)
                  0002a3ba    0000000e     sysbios.aer4ft : a15_TimestampProvider_asm.obj (.text:ti_sysbios_family_arm_a15_TimestampProvider_getOverflowCCNT__I)
                  0002a3c8    00000004     mmw_per4ft.oer4ft (.text:xdc_runtime_LoggerBuf_Module_GateProxy_enter__E)
                  0002a3cc    00000004     mmw_per4ft.oer4ft (.text:xdc_runtime_LoggerBuf_Module_GateProxy_leave__E)
                  0002a3d0    0000000e     sysbios.aer4ft : BIOS.obj (.text:ti_sysbios_knl_Queue_empty__E)
                  0002a3de    00000002     --HOLE-- [fill = 0]
                  0002a3e0    0000000c                    : BIOS.obj (.text:ti_sysbios_family_arm_TaskSupport_checkStack__E)
                  0002a3ec    00000004     mmw_per4ft.oer4ft (.text:xdc_runtime_System_Module_GateProxy_enter__E)
                  0002a3f0    0000000c     sysbios.aer4ft : BIOS.obj (.text:ti_sysbios_family_arm_TaskSupport_getStackAlignment__E)
                  0002a3fc    00000004     mmw_per4ft.oer4ft (.text:xdc_runtime_System_Module_GateProxy_leave__E)
                  0002a400    0000000c     sysbios.aer4ft : BIOS.obj (.text:ti_sysbios_family_arm_exc_Exception_Module_startup__E)
                  0002a40c    00000004     --HOLE-- [fill = 0]
                  0002a410    0000000c                    : BIOS.obj (.text:ti_sysbios_family_arm_v7r_vim_Hwi_switchFromBootStack__E)
                  0002a41c    00000004     --HOLE-- [fill = 0]
                  0002a420    0000000c                    : BIOS.obj (.text:ti_sysbios_utils_Load_getCPULoad__E)
                  0002a42c    00000004     --HOLE-- [fill = 0]
                  0002a430    0000000c                    : BIOS.obj (.text:ti_sysbios_utils_Load_taskRegHook__E)
                  0002a43c    00000004     --HOLE-- [fill = 0]
                  0002a440    0000000c                    : BIOS.obj (.text:xdc_runtime_Startup_rtsDone__E)
                  0002a44c    00000004     --HOLE-- [fill = 0]
                  0002a450    0000000c                    : BIOS.obj (.text:xdc_runtime_SysStd_exit__E)
                  0002a45c    00000004     --HOLE-- [fill = 0]
                  0002a460    0000000a                    : BIOS.obj (.text:xdc_runtime_LoggerBuf_disable__E)
                  0002a46a    00000006     --HOLE-- [fill = 0]
                  0002a470    0000000a                    : BIOS.obj (.text:xdc_runtime_LoggerBuf_enable__E)
                  0002a47a    00000006     --HOLE-- [fill = 0]
                  0002a480    00000008                    : BIOS.obj (.text:ti_sysbios_gates_GateHwi_enter__E)
                  0002a488    00000008     --HOLE-- [fill = 0]
                  0002a490    00000006                    : BIOS.obj (.text:ti_sysbios_family_arm_v7r_vim_Hwi_startup__E)
                  0002a496    0000000a     --HOLE-- [fill = 0]
                  0002a4a0    00000006                    : BIOS.obj (.text:ti_sysbios_gates_GateHwi_leave__E)
                  0002a4a6    0000000a     --HOLE-- [fill = 0]
                  0002a4b0    00000006                    : BIOS.obj (.text:ti_sysbios_heaps_HeapMem_isBlocking__E)
                  0002a4b6    0000000a     --HOLE-- [fill = 0]
                  0002a4c0    00000006                    : BIOS.obj (.text:ti_sysbios_knl_Queue_Instance_init__E)
                  0002a4c6    0000000a     --HOLE-- [fill = 0]
                  0002a4d0    00000006                    : BIOS.obj (.text:xdc_runtime_System_Module_startup__E)
                  0002a4d6    0000000a     --HOLE-- [fill = 0]
                  0002a4e0    00000004                    : BIOS.obj (.text:ti_sysbios_gates_GateHwi_query__E)
                  0002a4e4    0000000c     --HOLE-- [fill = 0]
                  0002a4f0    00000004                    : BIOS.obj (.text:ti_sysbios_gates_GateMutex_query__E)
                  0002a4f4    0000000c     --HOLE-- [fill = 0]
                  0002a500    00000004                    : BIOS.obj (.text:ti_sysbios_knl_Task_startup__E)
                  0002a504    0000000c     --HOLE-- [fill = 0]
                  0002a510    00000004                    : BIOS.obj (.text:ti_sysbios_timers_rti_Timer_getMaxTicks__E)
                  0002a514    0000000c     --HOLE-- [fill = 0]
                  0002a520    00000004                    : BIOS.obj (.text:xdc_runtime_SysStd_putch__E)
                  0002a524    0000000c     --HOLE-- [fill = 0]
                  0002a530    00000004                    : BIOS.obj (.text:xdc_runtime_SysStd_ready__E)
                  0002a534    0000000c     --HOLE-- [fill = 0]
                  0002a540    00000002                    : BIOS.obj (.text:ti_sysbios_BIOS_linkedWithIncorrectBootLibrary__E)
                  0002a542    0000000e     --HOLE-- [fill = 0]
                  0002a550    00000002                    : BIOS.obj (.text:ti_sysbios_gates_GateHwi_Instance_init__E)

.const     0    0002a558    0000104e     
                  0002a558    000002b8     libmmwavelink_xwr68xx.aer4f : rl_sensor.oer4f (.const:$O1$$)
                  0002a810    00000158     rtsv7R4_T_le_v3D16_eabi.lib : k_rem_pio2.obj (.const:$O1$$)
                  0002a968    00000101                                 : ctype.obj (.const:.string:_ctypes_)
                  0002aa69    00000001     mmw_per4ft.oer4ft (.const:xdc_runtime_Text_charTab__A)
                  0002aa6a    00000002     mmw_per4ft.oer4ft (.const:ti_sysbios_family_arm_exc_Exception_Module__id__C)
                  0002aa6c    000000a0     libcli_xwr68xx.aer4f : cli_mmwave.oer4f (.const:.string)
                  0002ab0c    00000004                          : cli.oer4f (.const:.string:$P$T0$1)
                  0002ab10    00000098     rtsv7R4_T_le_v3D16_eabi.lib : s_atan.obj (.const:$O1$$)
                  0002aba8    00000098                                 : strtod.obj (.const:$O1$$)
                  0002ac40    00000088     libmmwavelink_xwr68xx.aer4f : rl_driver.oer4f (.const:$O2$$)
                  0002acc8    00000080     mmw_per4ft.oer4ft (.const:ti_sysbios_family_arm_v7r_vim_Hwi_channelMap__A)
                  0002ad48    00000058     mmw_per4ft.oer4ft (.const:.string)
                  0002ada0    00000044     mmw_per4ft.oer4ft (.const:ti_sysbios_knl_Task_Object__PARAMS__C)
                  0002ade4    00000040     libhwa_xwr68xx.aer4f : hwa.oer4f (.const:gHwaTrigSignatures)
                  0002ae24    0000003c     libuart_xwr68xx.aer4f : UART.oer4f (.const:UART_defaultParams)
                  0002ae60    0000003c     mmw_per4ft.oer4ft (.const:xdc_runtime_LoggerBuf_Module__FXNS__C)
                  0002ae9c    00000038     libedma_xwr68xx.aer4f : edma_xwr1xxx.oer4f (.const:gEdmaHwAttrs)
                  0002aed4    00000030     mmw_per4ft.oer4ft (.const:ti_sysbios_family_arm_v7r_vim_Hwi_Object__PARAMS__C)
                  0002af04    00000030     mmw_per4ft.oer4ft (.const:xdc_runtime_Startup_sfxnTab__A)
                  0002af34    00000028     libdpm_xwr68xx.aer4f : dpm_msg.oer4f (.const:gDPMMessageFxnTable)
                  0002af5c    00000028     mmw_per4ft.oer4ft (.const:ti_sysbios_heaps_HeapMem_Module__FXNS__C)
                  0002af84    00000028     mmw_per4ft.oer4ft (.const:xdc_runtime_LoggerBuf_Object__PARAMS__C)
                  0002afac    00000024     libmailbox_xwr68xx.aer4f : mailbox.oer4f (.const:Mailbox_defaultCfg)
                  0002afd0    00000024     mmw_per4ft.oer4ft (.const:ti_sysbios_gates_GateHwi_Module__FXNS__C)
                  0002aff4    00000024     mmw_per4ft.oer4ft (.const:ti_sysbios_gates_GateMutex_Module__FXNS__C)
                  0002b018    00000024     mmw_per4ft.oer4ft (.const:ti_sysbios_heaps_HeapMem_Object__PARAMS__C)
                  0002b03c    00000024     mmw_per4ft.oer4ft (.const:ti_sysbios_knl_Semaphore_Object__PARAMS__C)
                  0002b060    00000020     libcli_xwr68xx.aer4f : cli_mmwave.oer4f (.const:$P$T0$1)
                  0002b080    00000020     libhwa_xwr68xx.aer4f : hwa.oer4f (.const:$P$T0$1)
                  0002b0a0    00000020     mmw_per4ft.oer4ft (.const:ti_sysbios_family_arm_v7r_vim_Hwi_Object__DESC__C)
                  0002b0c0    00000020     mmw_per4ft.oer4ft (.const:ti_sysbios_gates_GateHwi_Object__DESC__C)
                  0002b0e0    00000020     mmw_per4ft.oer4ft (.const:ti_sysbios_gates_GateMutex_Object__DESC__C)
                  0002b100    00000020     mmw_per4ft.oer4ft (.const:ti_sysbios_heaps_HeapMem_Object__DESC__C)
                  0002b120    00000020     mmw_per4ft.oer4ft (.const:ti_sysbios_knl_Queue_Object__DESC__C)
                  0002b140    00000020     mmw_per4ft.oer4ft (.const:ti_sysbios_knl_Semaphore_Object__DESC__C)
                  0002b160    00000020     mmw_per4ft.oer4ft (.const:ti_sysbios_knl_Task_Object__DESC__C)
                  0002b180    00000020     mmw_per4ft.oer4ft (.const:xdc_runtime_LoggerBuf_Object__DESC__C)
                  0002b1a0    00000018     mmw_per4ft.oer4ft (.const:ti_sysbios_gates_GateHwi_Object__PARAMS__C)
                  0002b1b8    00000018     mmw_per4ft.oer4ft (.const:ti_sysbios_gates_GateMutex_Object__PARAMS__C)
                  0002b1d0    00000018     mmw_per4ft.oer4ft (.const:ti_sysbios_knl_Queue_Object__PARAMS__C)
                  0002b1e8    00000018     mmw_per4ft.oer4ft (.const:ti_sysbios_knl_Task_hooks__A)
                  0002b200    00000018     mmw_per4ft.oer4ft (.const:xdc_runtime_Startup_sfxnRts__A)
                  0002b218    00000014     libadcbuf_xwr68xx.aer4f : adcbuf_mmwave.oer4f (.const:gADCBufFxnTable)
                  0002b22c    00000010     rtsv7R4_T_le_v3D16_eabi.lib : _scanfi.obj (.const:$O1$$)
                  0002b23c    00000010     libadcbuf_xwr68xx.aer4f : ADCBuf.oer4f (.const:ADCBuf_defaultParams)
                  0002b24c    00000010     libedma_xwr68xx.aer4f : edma.oer4f (.const:EDMA_config$1)
                  0002b25c    00000010     libqspi_xwr68xx.aer4f : qspi.oer4f (.const:QSPI_defaultParams)
                  0002b26c    00000010     libadcbuf_xwr68xx.aer4f : adcbuf_xwr1xxx.oer4f (.const:gADCBufHwCfg)
                  0002b27c    00000010     mmw_per4ft.oer4ft (.const:ti_sysbios_family_arm_v7r_vim_Hwi_intReqEnaSet__A)
                  0002b28c    00000010     mmw_per4ft.oer4ft (.const:ti_sysbios_family_arm_v7r_vim_Hwi_wakeEnaSet__A)
                  0002b29c    0000000c     mmw_per4ft.oer4ft (.const:ti_sysbios_knl_Idle_funcList__A)
                  0002b2a8    00000008     mmw_per4ft.oer4ft (.const:ti_sysbios_knl_Idle_funcList__C)
                  0002b2b0    00000008     mmw_per4ft.oer4ft (.const:ti_sysbios_knl_Task_hooks__C)
                  0002b2b8    00000008     mmw_per4ft.oer4ft (.const:xdc_runtime_Startup_firstFxns__A)
                  0002b2c0    00000008     mmw_per4ft.oer4ft (.const:xdc_runtime_Startup_firstFxns__C)
                  0002b2c8    00000008     mmw_per4ft.oer4ft (.const:xdc_runtime_Startup_lastFxns__C)
                  0002b2d0    00000004     mmw_per4ft.oer4ft (.const:ti_sysbios_family_arm_TaskSupport_stackAlignment__C)
                  0002b2d4    00000004     mmw_per4ft.oer4ft (.const:ti_sysbios_family_arm_exc_Exception_E_dataAbort__C)
                  0002b2d8    00000004     mmw_per4ft.oer4ft (.const:ti_sysbios_family_arm_exc_Exception_E_prefetchAbort__C)
                  0002b2dc    00000004     mmw_per4ft.oer4ft (.const:ti_sysbios_family_arm_exc_Exception_E_swi__C)
                  0002b2e0    00000004     mmw_per4ft.oer4ft (.const:ti_sysbios_family_arm_exc_Exception_E_undefinedInstruction__C)
                  0002b2e4    00000004     mmw_per4ft.oer4ft (.const:ti_sysbios_family_arm_exc_Exception_excHookFuncs__A)
                  0002b2e8    00000004     mmw_per4ft.oer4ft (.const:ti_sysbios_family_arm_exc_Exception_excHookFuncs__C)
                  0002b2ec    00000004     mmw_per4ft.oer4ft (.const:ti_sysbios_family_arm_v7a_Pmu_A_invalidCounterId__C)
                  0002b2f0    00000004     mmw_per4ft.oer4ft (.const:ti_sysbios_family_arm_v7a_Pmu_Module__diagsEnabled__C)
                  0002b2f4    00000004     mmw_per4ft.oer4ft (.const:ti_sysbios_family_arm_v7a_Pmu_Module__diagsIncluded__C)
                  0002b2f8    00000004     mmw_per4ft.oer4ft (.const:ti_sysbios_family_arm_v7a_Pmu_Module__diagsMask__C)
                  0002b2fc    00000004     mmw_per4ft.oer4ft (.const:ti_sysbios_family_arm_v7r_tms570_Core_E_mismatchedIds__C)
                  0002b300    00000004     mmw_per4ft.oer4ft (.const:ti_sysbios_family_arm_v7r_tms570_Core_id__C)
                  0002b304    00000004     mmw_per4ft.oer4ft (.const:ti_sysbios_family_arm_v7r_vim_Hwi_A_badChannelId__C)
                  0002b308    00000004     mmw_per4ft.oer4ft (.const:ti_sysbios_family_arm_v7r_vim_Hwi_E_alreadyDefined__C)
                  0002b30c    00000004     mmw_per4ft.oer4ft (.const:ti_sysbios_family_arm_v7r_vim_Hwi_E_badIntNum__C)
                  0002b310    00000004     mmw_per4ft.oer4ft (.const:ti_sysbios_family_arm_v7r_vim_Hwi_E_phantomInterrupt__C)
                  0002b314    00000004     mmw_per4ft.oer4ft (.const:ti_sysbios_family_arm_v7r_vim_Hwi_E_undefined__C)
                  0002b318    00000004     mmw_per4ft.oer4ft (.const:ti_sysbios_family_arm_v7r_vim_Hwi_E_unsupportedMaskingOption__C)
                  0002b31c    00000004     mmw_per4ft.oer4ft (.const:ti_sysbios_family_arm_v7r_vim_Hwi_LD_end__C)
                  0002b320    00000004     mmw_per4ft.oer4ft (.const:ti_sysbios_family_arm_v7r_vim_Hwi_LM_begin__C)
                  0002b324    00000004     mmw_per4ft.oer4ft (.const:ti_sysbios_family_arm_v7r_vim_Hwi_Module__diagsEnabled__C)
                  0002b328    00000004     mmw_per4ft.oer4ft (.const:ti_sysbios_family_arm_v7r_vim_Hwi_Module__diagsIncluded__C)
                  0002b32c    00000004     mmw_per4ft.oer4ft (.const:ti_sysbios_family_arm_v7r_vim_Hwi_Module__diagsMask__C)
                  0002b330    00000004     mmw_per4ft.oer4ft (.const:ti_sysbios_family_arm_v7r_vim_Hwi_Module__loggerFxn1__C)
                  0002b334    00000004     mmw_per4ft.oer4ft (.const:ti_sysbios_family_arm_v7r_vim_Hwi_Module__loggerFxn8__C)
                  0002b338    00000004     mmw_per4ft.oer4ft (.const:ti_sysbios_family_arm_v7r_vim_Hwi_Module__loggerObj__C)
                  0002b33c    00000004     mmw_per4ft.oer4ft (.const:ti_sysbios_family_arm_v7r_vim_Hwi_NUM_INTERRUPTS__C)
                  0002b340    00000004     mmw_per4ft.oer4ft (.const:ti_sysbios_family_arm_v7r_vim_Hwi_channelMap__C)
                  0002b344    00000004     mmw_per4ft.oer4ft (.const:ti_sysbios_family_arm_v7r_vim_Hwi_intReqEnaSet__C)
                  0002b348    00000004     mmw_per4ft.oer4ft (.const:ti_sysbios_family_arm_v7r_vim_Hwi_phantomFunc__C)
                  0002b34c    00000004     mmw_per4ft.oer4ft (.const:ti_sysbios_family_arm_v7r_vim_Hwi_taskDisable__C)
                  0002b350    00000004     mmw_per4ft.oer4ft (.const:ti_sysbios_family_arm_v7r_vim_Hwi_taskRestoreHwi__C)
                  0002b354    00000004     mmw_per4ft.oer4ft (.const:ti_sysbios_family_arm_v7r_vim_Hwi_wakeEnaSet__C)
                  0002b358    00000004     mmw_per4ft.oer4ft (.const:ti_sysbios_gates_GateMutex_A_badContext__C)
                  0002b35c    00000004     mmw_per4ft.oer4ft (.const:ti_sysbios_gates_GateMutex_Instance_State_sem__O)
                  0002b360    00000004     mmw_per4ft.oer4ft (.const:ti_sysbios_gates_GateMutex_Module__diagsEnabled__C)
                  0002b364    00000004     mmw_per4ft.oer4ft (.const:ti_sysbios_gates_GateMutex_Module__diagsIncluded__C)
                  0002b368    00000004     mmw_per4ft.oer4ft (.const:ti_sysbios_gates_GateMutex_Module__diagsMask__C)
                  0002b36c    00000004     mmw_per4ft.oer4ft (.const:ti_sysbios_hal_Hwi_E_stackOverflow__C)
                  0002b370    00000004     mmw_per4ft.oer4ft (.const:ti_sysbios_heaps_HeapBuf_Instance_State_freeList__O)
                  0002b374    00000004     mmw_per4ft.oer4ft (.const:ti_sysbios_heaps_HeapBuf_Object__count__C)
                  0002b378    00000004     mmw_per4ft.oer4ft (.const:ti_sysbios_heaps_HeapBuf_numConstructedHeaps__C)
                  0002b37c    00000004     mmw_per4ft.oer4ft (.const:ti_sysbios_heaps_HeapMem_A_align__C)
                  0002b380    00000004     mmw_per4ft.oer4ft (.const:ti_sysbios_heaps_HeapMem_A_heapSize__C)
                  0002b384    00000004     mmw_per4ft.oer4ft (.const:ti_sysbios_heaps_HeapMem_A_invalidFree__C)
                  0002b388    00000004     mmw_per4ft.oer4ft (.const:ti_sysbios_heaps_HeapMem_A_zeroBlock__C)
                  0002b38c    00000004     mmw_per4ft.oer4ft (.const:ti_sysbios_heaps_HeapMem_E_memory__C)
                  0002b390    00000004     mmw_per4ft.oer4ft (.const:ti_sysbios_heaps_HeapMem_Module__diagsEnabled__C)
                  0002b394    00000004     mmw_per4ft.oer4ft (.const:ti_sysbios_heaps_HeapMem_Module__diagsIncluded__C)
                  0002b398    00000004     mmw_per4ft.oer4ft (.const:ti_sysbios_heaps_HeapMem_Module__diagsMask__C)
                  0002b39c    00000004     mmw_per4ft.oer4ft (.const:ti_sysbios_heaps_HeapMem_Module__gateObj__C)
                  0002b3a0    00000004     mmw_per4ft.oer4ft (.const:ti_sysbios_heaps_HeapMem_Object__count__C)
                  0002b3a4    00000004     mmw_per4ft.oer4ft (.const:ti_sysbios_heaps_HeapMem_reqAlign__C)
                  0002b3a8    00000004     mmw_per4ft.oer4ft (.const:ti_sysbios_knl_Clock_LM_begin__C)
                  0002b3ac    00000004     mmw_per4ft.oer4ft (.const:ti_sysbios_knl_Clock_LM_tick__C)
                  0002b3b0    00000004     mmw_per4ft.oer4ft (.const:ti_sysbios_knl_Clock_LW_delayed__C)
                  0002b3b4    00000004     mmw_per4ft.oer4ft (.const:ti_sysbios_knl_Clock_Module_State_clockQ__O)
                  0002b3b8    00000004     mmw_per4ft.oer4ft (.const:ti_sysbios_knl_Clock_Module__diagsEnabled__C)
                  0002b3bc    00000004     mmw_per4ft.oer4ft (.const:ti_sysbios_knl_Clock_Module__diagsIncluded__C)
                  0002b3c0    00000004     mmw_per4ft.oer4ft (.const:ti_sysbios_knl_Clock_Module__diagsMask__C)
                  0002b3c4    00000004     mmw_per4ft.oer4ft (.const:ti_sysbios_knl_Clock_Module__loggerFxn1__C)
                  0002b3c8    00000004     mmw_per4ft.oer4ft (.const:ti_sysbios_knl_Clock_Module__loggerFxn2__C)
                  0002b3cc    00000004     mmw_per4ft.oer4ft (.const:ti_sysbios_knl_Clock_Module__loggerObj__C)
                  0002b3d0    00000004     mmw_per4ft.oer4ft (.const:ti_sysbios_knl_Semaphore_A_badContext__C)
                  0002b3d4    00000004     mmw_per4ft.oer4ft (.const:ti_sysbios_knl_Semaphore_A_noEvents__C)
                  0002b3d8    00000004     mmw_per4ft.oer4ft (.const:ti_sysbios_knl_Semaphore_A_overflow__C)
                  0002b3dc    00000004     mmw_per4ft.oer4ft (.const:ti_sysbios_knl_Semaphore_A_pendTaskDisabled__C)
                  0002b3e0    00000004     mmw_per4ft.oer4ft (.const:ti_sysbios_knl_Semaphore_Instance_State_pendQ__O)
                  0002b3e4    00000004     mmw_per4ft.oer4ft (.const:ti_sysbios_knl_Semaphore_LM_pend__C)
                  0002b3e8    00000004     mmw_per4ft.oer4ft (.const:ti_sysbios_knl_Semaphore_LM_post__C)
                  0002b3ec    00000004     mmw_per4ft.oer4ft (.const:ti_sysbios_knl_Semaphore_Module__diagsEnabled__C)
                  0002b3f0    00000004     mmw_per4ft.oer4ft (.const:ti_sysbios_knl_Semaphore_Module__diagsIncluded__C)
                  0002b3f4    00000004     mmw_per4ft.oer4ft (.const:ti_sysbios_knl_Semaphore_Module__diagsMask__C)
                  0002b3f8    00000004     mmw_per4ft.oer4ft (.const:ti_sysbios_knl_Semaphore_Module__loggerFxn2__C)
                  0002b3fc    00000004     mmw_per4ft.oer4ft (.const:ti_sysbios_knl_Semaphore_Module__loggerFxn4__C)
                  0002b400    00000004     mmw_per4ft.oer4ft (.const:ti_sysbios_knl_Semaphore_Module__loggerObj__C)
                  0002b404    00000004     mmw_per4ft.oer4ft (.const:ti_sysbios_knl_Task_A_badPriority__C)
                  0002b408    00000004     mmw_per4ft.oer4ft (.const:ti_sysbios_knl_Task_A_badTaskState__C)
                  0002b40c    00000004     mmw_per4ft.oer4ft (.const:ti_sysbios_knl_Task_A_badThreadType__C)
                  0002b410    00000004     mmw_per4ft.oer4ft (.const:ti_sysbios_knl_Task_A_badTimeout__C)
                  0002b414    00000004     mmw_per4ft.oer4ft (.const:ti_sysbios_knl_Task_A_noPendElem__C)
                  0002b418    00000004     mmw_per4ft.oer4ft (.const:ti_sysbios_knl_Task_A_sleepTaskDisabled__C)
                  0002b41c    00000004     mmw_per4ft.oer4ft (.const:ti_sysbios_knl_Task_E_spOutOfBounds__C)
                  0002b420    00000004     mmw_per4ft.oer4ft (.const:ti_sysbios_knl_Task_E_stackOverflow__C)
                  0002b424    00000004     mmw_per4ft.oer4ft (.const:ti_sysbios_knl_Task_LD_block__C)
                  0002b428    00000004     mmw_per4ft.oer4ft (.const:ti_sysbios_knl_Task_LD_exit__C)
                  0002b42c    00000004     mmw_per4ft.oer4ft (.const:ti_sysbios_knl_Task_LD_ready__C)
                  0002b430    00000004     mmw_per4ft.oer4ft (.const:ti_sysbios_knl_Task_LM_sleep__C)
                  0002b434    00000004     mmw_per4ft.oer4ft (.const:ti_sysbios_knl_Task_LM_switch__C)
                  0002b438    00000004     mmw_per4ft.oer4ft (.const:ti_sysbios_knl_Task_Module_State_inactiveQ__O)
                  0002b43c    00000004     mmw_per4ft.oer4ft (.const:ti_sysbios_knl_Task_Module__diagsEnabled__C)
                  0002b440    00000004     mmw_per4ft.oer4ft (.const:ti_sysbios_knl_Task_Module__diagsIncluded__C)
                  0002b444    00000004     mmw_per4ft.oer4ft (.const:ti_sysbios_knl_Task_Module__diagsMask__C)
                  0002b448    00000004     mmw_per4ft.oer4ft (.const:ti_sysbios_knl_Task_Module__loggerFxn2__C)
                  0002b44c    00000004     mmw_per4ft.oer4ft (.const:ti_sysbios_knl_Task_Module__loggerFxn4__C)
                  0002b450    00000004     mmw_per4ft.oer4ft (.const:ti_sysbios_knl_Task_Module__loggerObj__C)
                  0002b454    00000004     mmw_per4ft.oer4ft (.const:ti_sysbios_knl_Task_Object__count__C)
                  0002b458    00000004     mmw_per4ft.oer4ft (.const:ti_sysbios_knl_Task_Object__heap__C)
                  0002b45c    00000004     mmw_per4ft.oer4ft (.const:ti_sysbios_knl_Task_allBlockedFunc__C)
                  0002b460    00000004     mmw_per4ft.oer4ft (.const:ti_sysbios_knl_Task_defaultStackHeap__C)
                  0002b464    00000004     mmw_per4ft.oer4ft (.const:ti_sysbios_knl_Task_defaultStackSize__C)
                  0002b468    00000004     mmw_per4ft.oer4ft (.const:ti_sysbios_knl_Task_numConstructedTasks__C)
                  0002b46c    00000004     mmw_per4ft.oer4ft (.const:ti_sysbios_timers_rti_Timer_E_cannotSupport__C)
                  0002b470    00000004     mmw_per4ft.oer4ft (.const:ti_sysbios_timers_rti_Timer_Module__diagsEnabled__C)
                  0002b474    00000004     mmw_per4ft.oer4ft (.const:ti_sysbios_timers_rti_Timer_Module__diagsIncluded__C)
                  0002b478    00000004     mmw_per4ft.oer4ft (.const:ti_sysbios_timers_rti_Timer_Module__diagsMask__C)
                  0002b47c    00000004     mmw_per4ft.oer4ft (.const:ti_sysbios_timers_rti_Timer_numTimerDevices__C)
                  0002b480    00000004     mmw_per4ft.oer4ft (.const:ti_sysbios_timers_rti_Timer_startupNeeded__C)
                  0002b484    00000004     mmw_per4ft.oer4ft (.const:ti_sysbios_utils_Load_LS_cpuLoad__C)
                  0002b488    00000004     mmw_per4ft.oer4ft (.const:ti_sysbios_utils_Load_LS_taskLoad__C)
                  0002b48c    00000004     mmw_per4ft.oer4ft (.const:ti_sysbios_utils_Load_Module_State_taskList__O)
                  0002b490    00000004     mmw_per4ft.oer4ft (.const:ti_sysbios_utils_Load_Module__diagsEnabled__C)
                  0002b494    00000004     mmw_per4ft.oer4ft (.const:ti_sysbios_utils_Load_Module__diagsIncluded__C)
                  0002b498    00000004     mmw_per4ft.oer4ft (.const:ti_sysbios_utils_Load_Module__diagsMask__C)
                  0002b49c    00000004     mmw_per4ft.oer4ft (.const:ti_sysbios_utils_Load_Module__loggerFxn1__C)
                  0002b4a0    00000004     mmw_per4ft.oer4ft (.const:ti_sysbios_utils_Load_Module__loggerFxn4__C)
                  0002b4a4    00000004     mmw_per4ft.oer4ft (.const:ti_sysbios_utils_Load_Module__loggerObj__C)
                  0002b4a8    00000004     mmw_per4ft.oer4ft (.const:ti_sysbios_utils_Load_postUpdate__C)
                  0002b4ac    00000004     mmw_per4ft.oer4ft (.const:ti_sysbios_utils_Load_windowInMs__C)
                  0002b4b0    00000004     mmw_per4ft.oer4ft (.const:xdc_runtime_Assert_E_assertFailed__C)
                  0002b4b4    00000004     mmw_per4ft.oer4ft (.const:xdc_runtime_Core_A_initializedParams__C)
                  0002b4b8    00000004     mmw_per4ft.oer4ft (.const:xdc_runtime_Core_Module__diagsEnabled__C)
                  0002b4bc    00000004     mmw_per4ft.oer4ft (.const:xdc_runtime_Core_Module__diagsIncluded__C)
                  0002b4c0    00000004     mmw_per4ft.oer4ft (.const:xdc_runtime_Core_Module__diagsMask__C)
                  0002b4c4    00000004     mmw_per4ft.oer4ft (.const:xdc_runtime_Error_E_memory__C)
                  0002b4c8    00000004     mmw_per4ft.oer4ft (.const:xdc_runtime_Error_Module__diagsEnabled__C)
                  0002b4cc    00000004     mmw_per4ft.oer4ft (.const:xdc_runtime_Error_Module__diagsIncluded__C)
                  0002b4d0    00000004     mmw_per4ft.oer4ft (.const:xdc_runtime_Error_Module__diagsMask__C)
                  0002b4d4    00000004     mmw_per4ft.oer4ft (.const:xdc_runtime_Error_Module__loggerFxn8__C)
                  0002b4d8    00000004     mmw_per4ft.oer4ft (.const:xdc_runtime_Error_Module__loggerObj__C)
                  0002b4dc    00000004     mmw_per4ft.oer4ft (.const:xdc_runtime_Error_policyFxn__C)
                  0002b4e0    00000004     mmw_per4ft.oer4ft (.const:xdc_runtime_Error_policy__C)
                  0002b4e4    00000004     mmw_per4ft.oer4ft (.const:xdc_runtime_Error_raiseHook__C)
                  0002b4e8    00000004     mmw_per4ft.oer4ft (.const:xdc_runtime_IFilterLogger_Interface__BASE__C)
                  0002b4ec    00000004     mmw_per4ft.oer4ft (.const:xdc_runtime_IGateProvider_Interface__BASE__C)
                  0002b4f0    00000004     mmw_per4ft.oer4ft (.const:xdc_runtime_IHeap_Interface__BASE__C)
                  0002b4f4    00000004     mmw_per4ft.oer4ft (.const:xdc_runtime_ILogger_Interface__BASE__C)
                  0002b4f8    00000004     mmw_per4ft.oer4ft (.const:xdc_runtime_IModule_Interface__BASE__C)
                  0002b4fc    00000004     mmw_per4ft.oer4ft (.const:xdc_runtime_Log_L_error__C)
                  0002b500    00000004     mmw_per4ft.oer4ft (.const:xdc_runtime_LoggerBuf_E_badLevel__C)
                  0002b504    00000004     mmw_per4ft.oer4ft (.const:xdc_runtime_LoggerBuf_Module__gateObj__C)
                  0002b508    00000004     mmw_per4ft.oer4ft (.const:xdc_runtime_LoggerBuf_Object__count__C)
                  0002b50c    00000004     mmw_per4ft.oer4ft (.const:xdc_runtime_LoggerBuf_statusLogger__C)
                  0002b510    00000004     mmw_per4ft.oer4ft (.const:xdc_runtime_Main_Module__diagsEnabled__C)
                  0002b514    00000004     mmw_per4ft.oer4ft (.const:xdc_runtime_Main_Module__diagsIncluded__C)
                  0002b518    00000004     mmw_per4ft.oer4ft (.const:xdc_runtime_Main_Module__diagsMask__C)
                  0002b51c    00000004     mmw_per4ft.oer4ft (.const:xdc_runtime_Main_Module__loggerFxn1__C)
                  0002b520    00000004     mmw_per4ft.oer4ft (.const:xdc_runtime_Main_Module__loggerFxn2__C)
                  0002b524    00000004     mmw_per4ft.oer4ft (.const:xdc_runtime_Main_Module__loggerFxn4__C)
                  0002b528    00000004     mmw_per4ft.oer4ft (.const:xdc_runtime_Main_Module__loggerObj__C)
                  0002b52c    00000004     mmw_per4ft.oer4ft (.const:xdc_runtime_Memory_defaultHeapInstance__C)
                  0002b530    00000004     mmw_per4ft.oer4ft (.const:xdc_runtime_Startup_execImpl__C)
                  0002b534    00000004     mmw_per4ft.oer4ft (.const:xdc_runtime_Startup_maxPasses__C)
                  0002b538    00000004     mmw_per4ft.oer4ft (.const:xdc_runtime_Startup_sfxnRts__C)
                  0002b53c    00000004     mmw_per4ft.oer4ft (.const:xdc_runtime_Startup_sfxnTab__C)
                  0002b540    00000004     mmw_per4ft.oer4ft (.const:xdc_runtime_System_Module__gateObj__C)
                  0002b544    00000004     mmw_per4ft.oer4ft (.const:xdc_runtime_System_abortFxn__C)
                  0002b548    00000004     mmw_per4ft.oer4ft (.const:xdc_runtime_System_exitFxn__C)
                  0002b54c    00000004     mmw_per4ft.oer4ft (.const:xdc_runtime_System_extendFxn__C)
                  0002b550    00000004     mmw_per4ft.oer4ft (.const:xdc_runtime_System_maxAtexitHandlers__C)
                  0002b554    00000004     mmw_per4ft.oer4ft (.const:xdc_runtime_Text_charTab__C)
                  0002b558    00000004     mmw_per4ft.oer4ft (.const:xdc_runtime_Text_nameEmpty__C)
                  0002b55c    00000004     mmw_per4ft.oer4ft (.const:xdc_runtime_Text_nameStatic__C)
                  0002b560    00000004     mmw_per4ft.oer4ft (.const:xdc_runtime_Text_nameUnknown__C)
                  0002b564    00000004     mmw_per4ft.oer4ft (.const:xdc_runtime_Text_visitRopeFxn__C)
                  0002b568    00000002     mmw_per4ft.oer4ft (.const:ti_sysbios_family_arm_v7a_Pmu_Module__id__C)
                  0002b56a    00000002     mmw_per4ft.oer4ft (.const:ti_sysbios_family_arm_v7r_tms570_Core_Module__id__C)
                  0002b56c    00000002     mmw_per4ft.oer4ft (.const:ti_sysbios_family_arm_v7r_vim_Hwi_Module__id__C)
                  0002b56e    00000002     mmw_per4ft.oer4ft (.const:ti_sysbios_family_arm_v7r_vim_Hwi_Module__loggerDefined__C)
                  0002b570    00000002     mmw_per4ft.oer4ft (.const:ti_sysbios_gates_GateMutex_Module__id__C)
                  0002b572    00000002     mmw_per4ft.oer4ft (.const:ti_sysbios_hal_Hwi_Module__id__C)
                  0002b574    00000002     mmw_per4ft.oer4ft (.const:ti_sysbios_heaps_HeapMem_Module__id__C)
                  0002b576    00000002     mmw_per4ft.oer4ft (.const:ti_sysbios_knl_Clock_Module__id__C)
                  0002b578    00000002     mmw_per4ft.oer4ft (.const:ti_sysbios_knl_Clock_Module__loggerDefined__C)
                  0002b57a    00000002     mmw_per4ft.oer4ft (.const:ti_sysbios_knl_Semaphore_Module__id__C)
                  0002b57c    00000002     mmw_per4ft.oer4ft (.const:ti_sysbios_knl_Semaphore_Module__loggerDefined__C)
                  0002b57e    00000002     mmw_per4ft.oer4ft (.const:ti_sysbios_knl_Task_Module__id__C)
                  0002b580    00000002     mmw_per4ft.oer4ft (.const:ti_sysbios_knl_Task_Module__loggerDefined__C)
                  0002b582    00000002     mmw_per4ft.oer4ft (.const:ti_sysbios_timers_rti_Timer_Module__id__C)
                  0002b584    00000002     mmw_per4ft.oer4ft (.const:ti_sysbios_timers_rti_Timer_continueOnSuspend__C)
                  0002b586    00000002     mmw_per4ft.oer4ft (.const:ti_sysbios_utils_Load_Module__id__C)
                  0002b588    00000002     mmw_per4ft.oer4ft (.const:ti_sysbios_utils_Load_Module__loggerDefined__C)
                  0002b58a    00000002     mmw_per4ft.oer4ft (.const:ti_sysbios_utils_Load_autoAddTasks__C)
                  0002b58c    00000002     mmw_per4ft.oer4ft (.const:ti_sysbios_utils_Load_updateInIdle__C)
                  0002b58e    00000002     mmw_per4ft.oer4ft (.const:xdc_runtime_Core_Module__id__C)
                  0002b590    00000002     mmw_per4ft.oer4ft (.const:xdc_runtime_Error_Module__loggerDefined__C)
                  0002b592    00000002     mmw_per4ft.oer4ft (.const:xdc_runtime_Error_maxDepth__C)
                  0002b594    00000002     mmw_per4ft.oer4ft (.const:xdc_runtime_LoggerBuf_Module__id__C)
                  0002b596    00000002     mmw_per4ft.oer4ft (.const:xdc_runtime_LoggerBuf_filterByLevel__C)
                  0002b598    00000002     mmw_per4ft.oer4ft (.const:xdc_runtime_Main_Module__id__C)
                  0002b59a    00000002     mmw_per4ft.oer4ft (.const:xdc_runtime_Main_Module__loggerDefined__C)
                  0002b59c    00000002     mmw_per4ft.oer4ft (.const:xdc_runtime_Memory_Module__id__C)
                  0002b59e    00000002     mmw_per4ft.oer4ft (.const:xdc_runtime_Text_charCnt__C)
                  0002b5a0    00000002     mmw_per4ft.oer4ft (.const:xdc_runtime_Text_isLoaded__C)
                  0002b5a2    00000002     mmw_per4ft.oer4ft (.const:xdc_runtime_Text_registryModsLastId__C)
                  0002b5a4    00000002     mmw_per4ft.oer4ft (.const:xdc_runtime_Text_unnamedModsLastId__C)

.cinit     0    0002b5a8    00000598     
                  0002b5a8    00000532     (.cinit..data.load) [load image, compression = lzss]
                  0002bada    00000002     --HOLE-- [fill = 0]
                  0002badc    0000000c     (__TI_handler_table)
                  0002bae8    00000008     (.cinit..DPC_objDetTcmbHeap.load) [load image, compression = zero_init]
                  0002baf0    00000008     (.cinit..bss.load) [load image, compression = zero_init]
                  0002baf8    00000008     (.cinit..l3ram.load) [load image, compression = zero_init]
                  0002bb00    00000008     (.cinit..myFiqStack.load) [load image, compression = zero_init]
                  0002bb08    00000008     (.cinit.systemHeap.load) [load image, compression = zero_init]
                  0002bb10    00000030     (__TI_cinit_table)

systemHeap 
*          0    08000000    00010000     UNINITIALIZED
                  08000000    00010000     mmw_per4ft.oer4ft (systemHeap)

.DPC_objDetTcmbHeap 
*          0    08010000    0000c400     UNINITIALIZED
                  08010000    0000c400     main.oer4f (.DPC_objDetTcmbHeap)

.l3ram     0    51000000    000c0000     UNINITIALIZED
                  51000000    000c0000     main.oer4f (.l3ram)

.bss       0    0801c400    000044b4     UNINITIALIZED
                  0801c400    00001900     (.common:xdc_runtime_LoggerBuf_Instance_State_0_entryArr__A)
                  0801dd00    00001000     (.common:ti_sysbios_family_arm_exc_Exception_Module_State_0_excStack_0__A)
                  0801ed00    00000818     (.common:gMmwMCB)
                  0801f518    000004e8     libedma_xwr68xx.aer4f : edma.oer4f (.bss:$O1$$)
                  0801fa00    00000460     (.common:gCalibDataStorage)
                  0801fe60    00000320     mmw_per4ft.oer4ft (.bss:taskStackSection)
                  08020180    000001a8     (.common:gCLI)
                  08020328    00000194     (.common:gGPIOMCB)
                  080204bc    00000120     rtsv7R4_T_le_v3D16_eabi.lib : trgmsg.obj (.bss:_CIOBUF_)
                  080205dc    00000100     (.common:gMMWave_MCB)
                  080206dc    000000a0     (.common:__TI_tmpnams)
                  0802077c    00000004     (.common:MSS_RCM_CLKDIVCTL0_save)
                  08020780    00000090     (.common:gHSIHeaderMCB)
                  08020810    00000070     (.common:gEsmMCB)
                  08020880    0000000c     (.common:gMmwDemoFlash)
                  0802088c    00000008     (.common:gMMWave_DualcoreMCB)
                  08020894    00000008     (.common:parmbuf)
                  0802089c    00000004     (.common:MSS_RCM_CLKSRCSEL0_save)
                  080208a0    00000004     (.common:MSS_RCM_CLKSRCSEL1_save)
                  080208a4    00000004     (.common:MSS_TOPRCM_CLKDIV_save)
                  080208a8    00000004     (.common:MSS_TOPRCM_CLKSRCSEL_save)
                  080208ac    00000004     (.common:gObjDetObj)
                  080208b0    00000004     (.common:ti_sysbios_knl_Task_Instance_State_0_hookEnv__A)

.data      0    080208b8    0000136c     UNINITIALIZED
                  080208b8    000003e8     libmmwavelink_xwr68xx.aer4f : rl_driver.oer4f (.data:$O1$$)
                  08020ca0    00000368     libcli_xwr68xx.aer4f : cli_mmwave.oer4f (.data:$O1$$)
                  08021008    00000200     mmw_per4ft.oer4ft (.data:ti_sysbios_family_arm_v7r_vim_Hwi_Module_State_0_dispatchTable__A)
                  08021208    000000f0     rtsv7R4_T_le_v3D16_eabi.lib : defs.obj (.data:_ftable)
                  080212f8    00000098     mmw_per4ft.oer4ft (.data:ti_sysbios_utils_Load_Module__state__V)
                  08021390    00000080     mmw_per4ft.oer4ft (.data:ti_sysbios_knl_Task_Module_State_0_readyQ__A)
                  08021410    00000078     rtsv7R4_T_le_v3D16_eabi.lib : write.obj (.data:_device)
                  08021488    00000078     libcbuff_xwr68xx.aer4f : cbuff_xwr68xx.oer4f (.data:gCBUFFHwAttribute)
                  08021500    0000005c     mmw_per4ft.oer4ft (.data:ti_sysbios_knl_Task_Object__table__V)
                  0802155c    00000058     libuart_xwr68xx.aer4f : uart_xwr68xx.oer4f (.data:gUartSciHwCfg)
                  080215b4    00000050     rtsv7R4_T_le_v3D16_eabi.lib : write.obj (.data:_stream)
                  08021604    00000050     libmailbox_xwr68xx.aer4f : mailbox.oer4f (.data:gMailboxMCB)
                  08021654    00000048     mmw_per4ft.oer4ft (.data:ti_sysbios_knl_Task_Module__state__V)
                  0802169c    00000040     libsoc_xwr68xx.aer4f : soc_xwr68xx.oer4f (.data:SOC_TranslateAddr_LUT)
                  080216dc    00000040     mmw_per4ft.oer4ft (.data:ti_sysbios_gates_GateMutex_Object__table__V)
                  0802171c    0000003c     mmw_per4ft.oer4ft (.data:ti_sysbios_timers_rti_Timer_Object__table__V)
                  08021758    00000038     libcbuff_xwr68xx.aer4f : cbuff_xwr68xx.oer4f (.data:gCBUFFInterfaceFxn)
                  08021790    00000034     mmw_per4ft.oer4ft (.data:ti_sysbios_family_arm_v7r_vim_Hwi_Module__state__V)
                  080217c4    00000030     libhwa_xwr68xx.aer4f : hwa_xwr68xx.oer4f (.data:gHWAHwCfg)
                  080217f4    0000002c     mmw_per4ft.oer4ft (.data:ti_sysbios_family_arm_v7r_vim_Hwi_Object__table__V)
                  08021820    0000002c     mmw_per4ft.oer4ft (.data:ti_sysbios_knl_Clock_Module__state__V)
                  0802184c    00000028     libuart_xwr68xx.aer4f : uartsci.oer4f (.data:gUartSciFxnTable)
                  08021874    00000024                           : uart_xwr68xx.oer4f (.data:UART_config)
                  08021898    00000024     objectdetection.oer4f (.data:gDPC_ObjectDetectionCfg)
                  080218bc    00000024     mmw_per4ft.oer4ft (.data:ti_sysbios_BIOS_Module__state__V)
                  080218e0    00000024     mmw_per4ft.oer4ft (.data:xdc_runtime_LoggerBuf_Object__table__V)
                  08021904    00000004     libhwa_xwr68xx.aer4f : hwa_xwr68xx.oer4f (.data:gHWADriverPtr)
                  08021908    00000020     libsoc_xwr68xx.aer4f : soc_xwr68xx_mss.oer4f (.data:gSOCHwAttrib)
                  08021928    00000020     mmw_per4ft.oer4ft (.data:ti_sysbios_knl_Clock_Object__table__V)
                  08021948    00000020     mmw_per4ft.oer4ft (.data:xdc_runtime_Error_IgnoreBlock)
                  08021968    00000020     mmw_per4ft.oer4ft (.data:xdc_runtime_System_Module_State_0_atexitHandlers__A)
                  08021988    0000001c     antenna_geometry.oer4f (.data:gAntDef_default)
                  080219a4    0000001c     mmw_per4ft.oer4ft (.data:ti_sysbios_utils_Load_Module_State_0_taskEnv__A)
                  080219c0    00000018     libadcbuf_xwr68xx.aer4f : adcbuf_xwr1xxx.oer4f (.data:ADCBuf_config)
                  080219d8    00000018     libcbuff_xwr68xx.aer4f : cbuff_xwr68xx.oer4f (.data:gInterleavedTransferFxn)
                  080219f0    00000018     libmailbox_xwr68xx.aer4f : mailbox_xwr68xx.oer4f (.data:gMailboxMssBssHwCfg)
                  08021a08    00000018                              : mailbox_xwr68xx.oer4f (.data:gMailboxMssDssHwCfg)
                  08021a20    00000018     libcbuff_xwr68xx.aer4f : cbuff_xwr68xx.oer4f (.data:gMultipleChirpNonInterleavedTransferFxn)
                  08021a38    00000018                            : cbuff_xwr68xx.oer4f (.data:gNonInterleavedTransferFxn)
                  08021a50    00000018     mmw_per4ft.oer4ft (.data:ti_sysbios_heaps_HeapMem_Object__table__V)
                  08021a68    00000018     mmw_per4ft.oer4ft (.data:ti_sysbios_timers_rti_Timer_Module_State_0_device__A)
                  08021a80    00000014     libdpm_xwr68xx.aer4f : dpm_mailbox.oer4f (.data:gDPMRemoteTable)
                  08021a94    00000014     mmw_per4ft.oer4ft (.data:ti_sysbios_family_arm_exc_Exception_Module__state__V)
                  08021aa8    00000010     libhwa_xwr68xx.aer4f : hwa.oer4f (.data:gHwaEDMAChanMapping)
                  08021ab8    00000010     libqspi_xwr68xx.aer4f : qspi_xwr68xx.oer4f (.data:gQSPIHwCfg)
                  08021ac8    00000010     rtsv7R4_T_le_v3D16_eabi.lib : defs.obj (.data)
                  08021ad8    00000010     mmw_per4ft.oer4ft (.data:ti_sysbios_timers_rti_Timer_Module_State_0_intFreqs__A)
                  08021ae8    00000010     mmw_per4ft.oer4ft (.data:ti_sysbios_timers_rti_Timer_Module__state__V)
                  08021af8    0000000c     rtsv7R4_T_le_v3D16_eabi.lib : exit.obj (.data:$O1$$)
                  08021b04    0000000c     libesm_xwr68xx.aer4f : esm_xwr1xxx.oer4f (.data:gESMHwCfgAttrs)
                  08021b10    0000000c     mmw_per4ft.oer4ft (.data:ti_sysbios_family_arm_v7a_Pmu_Module__state__V)
                  08021b1c    0000000c     mmw_per4ft.oer4ft (.data:ti_sysbios_knl_Task_Module__root__V)
                  08021b28    00000008     rtsv7R4_T_le_v3D16_eabi.lib : _lock.obj (.data:$O1$$)
                  08021b30    00000008     mmwdemo_rfparser.oer4f (.data:MmwDemo_RFParserHwCfg)
                  08021b38    00000008     libqspiflash_xwr68xx.aer4f : qspiflash_device_macronix.oer4f (.data:QSPIFlash_deviceFxnTbl_macronix)
                  08021b40    00000008                                : qspiflash_device_spansion.oer4f (.data:QSPIFlash_deviceFxnTbl_spansion)
                  08021b48    00000008     libdpm_xwr68xx.aer4f : dpm_xwr68xx.oer4f (.data:gDPMHwAttrib)
                  08021b50    00000008     libgpio_xwr68xx.aer4f : gpio_xwr68xx.oer4f (.data:gGPIOHwAtrrib)
                  08021b58    00000008     mmw_per4ft.oer4ft (.data:ti_sysbios_family_arm_v7r_vim_Hwi_Module__root__V)
                  08021b60    00000008     mmw_per4ft.oer4ft (.data:ti_sysbios_gates_GateHwi_Module__root__V)
                  08021b68    00000008     mmw_per4ft.oer4ft (.data:ti_sysbios_gates_GateMutex_Module__root__V)
                  08021b70    00000008     mmw_per4ft.oer4ft (.data:ti_sysbios_hal_Hwi_Object__table__V)
                  08021b78    00000008     mmw_per4ft.oer4ft (.data:ti_sysbios_heaps_HeapMem_Module__root__V)
                  08021b80    00000008     mmw_per4ft.oer4ft (.data:ti_sysbios_knl_Queue_Module__root__V)
                  08021b88    00000008     mmw_per4ft.oer4ft (.data:ti_sysbios_knl_Semaphore_Module__root__V)
                  08021b90    00000008     mmw_per4ft.oer4ft (.data:ti_sysbios_timers_rti_Timer_Module_State_0_handles__A)
                  08021b98    00000008     mmw_per4ft.oer4ft (.data:xdc_runtime_LoggerBuf_Module__root__V)
                  08021ba0    00000008     mmw_per4ft.oer4ft (.data:xdc_runtime_Registry_Module__state__V)
                  08021ba8    00000008     mmw_per4ft.oer4ft (.data:xdc_runtime_Startup_Module__state__V)
                  08021bb0    00000008     mmw_per4ft.oer4ft (.data:xdc_runtime_System_Module__state__V)
                  08021bb8    00000006     mmw_per4ft.oer4ft (.data:xdc_runtime_LoggerBuf_Module__state__V)
                  08021bbe    00000002     mmw_per4ft.oer4ft (.data:ti_sysbios_family_arm_exc_Exception_Module_State_0_excActive__A)
                  08021bc0    00000004     libqspiflash_xwr68xx.aer4f : qspiflash_xwr68xx.oer4f (.data:gQSPIFlashHwCfg)
                  08021bc4    00000004     main.oer4f (.data:gRFLdoBypassCfg)
                  08021bc8    00000004     libadcbuf_xwr68xx.aer4f : ADCBuf.oer4f (.data)
                  08021bcc    00000004     libcrc_xwr68xx.aer4f : crc_xwr68xx.oer4f (.data)
                  08021bd0    00000004     libdpm_xwr68xx.aer4f : dpm_mailbox.oer4f (.data)
                  08021bd4    00000004     libedma_xwr68xx.aer4f : edma_low_level.oer4f (.data)
                  08021bd8    00000004     libpinmux_xwr68xx.aer4f : pinmux_xwr1xxx.oer4f (.data)
                  08021bdc    00000004     libqspi_xwr68xx.aer4f : qspi.oer4f (.data)
                  08021be0    00000004     libuart_xwr68xx.aer4f : UART.oer4f (.data)
                  08021be4    00000004     rtsv7R4_T_le_v3D16_eabi.lib : errno.obj (.data)
                  08021be8    00000004                                 : fopen.obj (.data)
                  08021bec    00000004                                 : open.obj (.data)
                  08021bf0    00000004                                 : stkdepth_vars.obj (.data)
                  08021bf4    00000004                                 : strtok.obj (.data)
                  08021bf8    00000004     mmw_per4ft.oer4ft (.data:ti_sysbios_family_arm_a15_TimestampProvider_Module__state__V)
                  08021bfc    00000004     mmw_per4ft.oer4ft (.data:ti_sysbios_family_arm_exc_Exception_Module_State_0_excContext__A)
                  08021c00    00000004     mmw_per4ft.oer4ft (.data:ti_sysbios_family_arm_exc_Exception_Module_State_0_excStackBuffers__A)
                  08021c04    00000004     mmw_per4ft.oer4ft (.data:ti_sysbios_family_arm_exc_Exception_Module_State_0_excStack__A)
                  08021c08    00000004     mmw_per4ft.oer4ft (.data:ti_sysbios_gates_GateHwi_Object__table__V)
                  08021c0c    00000004     mmw_per4ft.oer4ft (.data:ti_sysbios_heaps_HeapBuf_Module__state__V)
                  08021c10    00000004     mmw_per4ft.oer4ft (.data:ti_sysbios_knl_Task_Module_State_0_idleTask__A)
                  08021c14    00000004     mmw_per4ft.oer4ft (.data:ti_sysbios_utils_Load_Module_State_0_runningTask__A)
                  08021c18    00000004     mmw_per4ft.oer4ft (.data:ti_sysbios_utils_Load_Module_State_0_taskStartTime__A)
                  08021c1c    00000004     mmw_per4ft.oer4ft (.data:xdc_runtime_Memory_Module__state__V)
                  08021c20    00000002     mmw_per4ft.oer4ft (.data:xdc_runtime_Error_Module__state__V)
                  08021c22    00000002     mmw_per4ft.oer4ft (.data:xdc_runtime_Main_Module__root__V)

.myFiqStack 
*          0    08021c28    00000800     UNINITIALIZED
                  08021c28    00000800     mmw_per4ft.oer4ft (.myFiqStack)

.stack     0    08022428    000004b0     UNINITIALIZED
                  08022428    000004b0     --HOLE--

xdc.meta   0    00000000    000000ec     COPY SECTION
                  00000000    000000ec     mmw_per4ft.oer4ft (xdc.meta)

xdc.noload 
*          0    00000000    00000000     COPY SECTION

MODULE SUMMARY

       Module                            code     ro data   rw data
       ------                            ----     -------   -------
    .\
       main.oer4f                        15905    0         839804 
       objectdetection.oer4f             9926     0         40     
       mmw_cli.oer4f                     8943     0         0      
       mmw_lvds_stream.oer4f             3707     0         0      
       mmwdemo_rfparser.oer4f            2712     0         8      
       data_path.oer4f                   1440     0         0      
       mmwdemo_flash.oer4f               368      0         12     
       mmwdemo_adcconfig.oer4f           312      0         0      
       mmwdemo_monitor.oer4f             208      0         0      
       antenna_geometry.oer4f            0        0         28     
    +--+---------------------------------+--------+---------+---------+
       Total:                            43521    0         839892 
                                                                   
    C:\Users\a0227075\testCompile\mmwave_sdk_68xx_hwa\Debug\configPkg\package\cfg\
       mmw_per4ft.oer4ft                 1872     1913      80572  
    +--+---------------------------------+--------+---------+---------+
       Total:                            1872     1913      80572  
                                                                   
    C:/Users/a0227075/testCompile/mmwave_sdk_68xx_hwa/lib/libmmwavelink_xwr68xx.aer4f
       rl_driver.oer4f                   4458     136       1000   
       rl_sensor.oer4f                   2532     696       0      
       rl_device.oer4f                   458      0         0      
       rl_controller.oer4f               152      0         0      
       rl_monitoring.oer4f               114      0         0      
    +--+---------------------------------+--------+---------+---------+
       Total:                            7714     832       1000   
                                                                   
    C:/Users/a0227075/testCompile/mmwave_sdk_68xx_hwa/lib/libsleep_xwr68xx.aer4f
       libsleep_xwr68xx.obj              7480     0         20     
    +--+---------------------------------+--------+---------+---------+
       Total:                            7480     0         20     
                                                                   
    C:/ti/mmwave_sdk_03_05_00_04/packages/ti/control/dpm/lib/libdpm_xwr68xx.aer4f
       dpm_msg.oer4f                     1134     40        0      
       dpm_core.oer4f                    1076     0         0      
       dpm_mailbox.oer4f                 362      0         24     
       dpm_pipe.oer4f                    312      0         0      
       dpm_listlib.oer4f                 86       0         0      
       dpm_xwr68xx.oer4f                 0        0         8      
    +--+---------------------------------+--------+---------+---------+
       Total:                            2970     40        32     
                                                                   
    C:/ti/mmwave_sdk_03_05_00_04/packages/ti/control/mmwave/lib/libmmwave_xwr68xx.aer4f
       mmwave_link.oer4f                 2622     0         0      
       mmwave_dualcore.oer4f             2216     0         8      
       mmwave_fullcfg.oer4f              2002     0         0      
       mmwave.oer4f                      1108     0         256    
       mmwave_osal.oer4f                 200      0         0      
       mmwave_listlib.oer4f              142      0         0      
    +--+---------------------------------+--------+---------+---------+
       Total:                            8290     0         264    
                                                                   
    C:/ti/mmwave_sdk_03_05_00_04/packages/ti/datapath/dpc/dpu/aoaproc/lib/libaoaproc_hwa_xwr68xx.aer4f
       aoaprochwa.oer4f                  7066     0         0      
    +--+---------------------------------+--------+---------+---------+
       Total:                            7066     0         0      
                                                                   
    C:/ti/mmwave_sdk_03_05_00_04/packages/ti/datapath/dpc/dpu/cfarcaproc/lib/libcfarcaproc_hwa_xwr68xx.aer4f
       cfarcaprochwa.oer4f               2302     0         0      
    +--+---------------------------------+--------+---------+---------+
       Total:                            2302     0         0      
                                                                   
    C:/ti/mmwave_sdk_03_05_00_04/packages/ti/datapath/dpc/dpu/dopplerproc/lib/libdopplerproc_hwa_xwr68xx.aer4f
       dopplerprochwa.oer4f              2132     0         0      
    +--+---------------------------------+--------+---------+---------+
       Total:                            2132     0         0      
                                                                   
    C:/ti/mmwave_sdk_03_05_00_04/packages/ti/datapath/dpc/dpu/staticclutterproc/lib/libstaticclutterproc_xwr68xx.aer4f
       staticclutterproc.oer4f           948      0         0      
    +--+---------------------------------+--------+---------+---------+
       Total:                            948      0         0      
                                                                   
    C:/ti/mmwave_sdk_03_05_00_04/packages/ti/datapath/dpedma/lib/libdpedma_hwa_xwr68xx.aer4f
       dpedma.oer4f                      610      0         0      
       dpedmahwa.oer4f                   436      0         0      
    +--+---------------------------------+--------+---------+---------+
       Total:                            1046     0         0      
                                                                   
    C:/ti/mmwave_sdk_03_05_00_04/packages/ti/datapath/dpu/rangeproc/lib/librangeproc_hwa_xwr68xx.aer4f
       rangeprochwa.oer4f                4982     0         0      
    +--+---------------------------------+--------+---------+---------+
       Total:                            4982     0         0      
                                                                   
    C:/ti/mmwave_sdk_03_05_00_04/packages/ti/drivers/adcbuf/lib/libadcbuf_xwr68xx.aer4f
       adcbuf_mmwave.oer4f               1972     20        0      
       ADCBuf.oer4f                      136      16        4      
       adcbuf_xwr1xxx.oer4f              0        16        24     
    +--+---------------------------------+--------+---------+---------+
       Total:                            2108     52        28     
                                                                   
    C:/ti/mmwave_sdk_03_05_00_04/packages/ti/drivers/cbuff/lib/libcbuff_xwr68xx.aer4f
       cbuff.oer4f                       2954     0         0      
       cbuff_transfer.oer4f              1542     0         0      
       cbuff_lvds.oer4f                  1329     0         0      
       cbuff_edma.oer4f                  731      0         0      
       cbuff_xwr68xx.oer4f               0        0         248    
    +--+---------------------------------+--------+---------+---------+
       Total:                            6556     0         248    
                                                                   
    C:/ti/mmwave_sdk_03_05_00_04/packages/ti/drivers/crc/lib/libcrc_xwr68xx.aer4f
       crc.oer4f                         1256     0         0      
       crc_xwr68xx.oer4f                 0        0         4      
    +--+---------------------------------+--------+---------+---------+
       Total:                            1256     0         4      
                                                                   
    C:/ti/mmwave_sdk_03_05_00_04/packages/ti/drivers/dma/lib/libdma_xwr68xx.aer4f
       dma.oer4f                         1978     0         0      
    +--+---------------------------------+--------+---------+---------+
       Total:                            1978     0         0      
                                                                   
    C:/ti/mmwave_sdk_03_05_00_04/packages/ti/drivers/edma/lib/libedma_xwr68xx.aer4f
       edma.oer4f                        3650     16        1256   
       edma_low_level.oer4f              882      0         4      
       edma_xwr1xxx.oer4f                0        56        0      
    +--+---------------------------------+--------+---------+---------+
       Total:                            4532     72        1260   
                                                                   
    C:/ti/mmwave_sdk_03_05_00_04/packages/ti/drivers/esm/lib/libesm_xwr68xx.aer4f
       esm.oer4f                         456      0         112    
       esm_xwr1xxx.oer4f                 0        0         12     
    +--+---------------------------------+--------+---------+---------+
       Total:                            456      0         124    
                                                                   
    C:/ti/mmwave_sdk_03_05_00_04/packages/ti/drivers/gpio/lib/libgpio_xwr68xx.aer4f
       gpio.oer4f                        886      0         404    
       gpio_xwr68xx.oer4f                0        0         8      
    +--+---------------------------------+--------+---------+---------+
       Total:                            886      0         412    
                                                                   
    C:/ti/mmwave_sdk_03_05_00_04/packages/ti/drivers/hwa/lib/libhwa_xwr68xx.aer4f
       hwa.oer4f                         4308     96        16     
       hwa_xwr68xx.oer4f                 0        0         52     
    +--+---------------------------------+--------+---------+---------+
       Total:                            4308     96        68     
                                                                   
    C:/ti/mmwave_sdk_03_05_00_04/packages/ti/drivers/mailbox/lib/libmailbox_xwr68xx.aer4f
       mailbox.oer4f                     1916     36        80     
       mailbox_xwr68xx.oer4f             0        0         48     
    +--+---------------------------------+--------+---------+---------+
       Total:                            1916     36        128    
                                                                   
    C:/ti/mmwave_sdk_03_05_00_04/packages/ti/drivers/osal/lib/libosal_xwr68xx.aer4f
       DebugP_tirtos.oer4f               388      0         0      
       HwiP_tirtos.oer4f                 226      0         0      
       SemaphoreP_tirtos.oer4f           150      0         0      
       MemoryP_tirtos.oer4f              36       0         0      
       CycleprofilerP_tirtos.oer4f       26       0         0      
    +--+---------------------------------+--------+---------+---------+
       Total:                            826      0         0      
                                                                   
    C:/ti/mmwave_sdk_03_05_00_04/packages/ti/drivers/pinmux/lib/libpinmux_xwr68xx.aer4f
       pinmux.oer4f                      390      0         0      
       pinmux_xwr1xxx.oer4f              0        0         4      
    +--+---------------------------------+--------+---------+---------+
       Total:                            390      0         4      
                                                                   
    C:/ti/mmwave_sdk_03_05_00_04/packages/ti/drivers/qspi/lib/libqspi_xwr68xx.aer4f
       qspi.oer4f                        779      16        4      
       qspi_xwr68xx.oer4f                0        0         16     
    +--+---------------------------------+--------+---------+---------+
       Total:                            779      16        20     
                                                                   
    C:/ti/mmwave_sdk_03_05_00_04/packages/ti/drivers/qspiflash/lib/libqspiflash_xwr68xx.aer4f
       qspiflash.oer4f                   1712     0         0      
       qspiflash_device_macronix.oer4f   236      0         8      
       qspiflash_device_spansion.oer4f   220      0         8      
       qspiflash_xwr68xx.oer4f           0        0         4      
    +--+---------------------------------+--------+---------+---------+
       Total:                            2168     0         20     
                                                                   
    C:/ti/mmwave_sdk_03_05_00_04/packages/ti/drivers/soc/lib/libsoc_xwr68xx.aer4f
       soc_xwr68xx_mss.oer4f             1546     0         32     
       soc.oer4f                         976      0         0      
       soc_xwr68xx.oer4f                 894      0         64     
       soc_mpu.o                         182      0         0      
    +--+---------------------------------+--------+---------+---------+
       Total:                            3598     0         96     
                                                                   
    C:/ti/mmwave_sdk_03_05_00_04/packages/ti/drivers/uart/lib/libuart_xwr68xx.aer4f
       uartsci.oer4f                     2192     0         40     
       uartsci_dma.oer4f                 642      0         0      
       UART.oer4f                        160      60        4      
       uart_xwr68xx.oer4f                0        0         124    
    +--+---------------------------------+--------+---------+---------+
       Total:                            2994     60        168    
                                                                   
    C:/ti/mmwave_sdk_03_05_00_04/packages/ti/utils/cli/lib/libcli_xwr68xx.aer4f
       cli_mmwave.oer4f                  4652     192       872    
       cli.oer4f                         820      4         424    
    +--+---------------------------------+--------+---------+---------+
       Total:                            5472     196       1296   
                                                                   
    C:/ti/mmwave_sdk_03_05_00_04/packages/ti/utils/hsiheader/lib/libhsiheader_xwr68xx.aer4f
       hsiheader.oer4f                   1176     0         144    
    +--+---------------------------------+--------+---------+---------+
       Total:                            1176     0         144    
                                                                   
    C:/ti/mmwave_sdk_03_05_00_04/packages/ti/utils/mathutils/lib/libmathutils.aer4f
       mathutils.oer4f                   344      0         0      
    +--+---------------------------------+--------+---------+---------+
       Total:                            344      0         0      
                                                                   
    C:/ti/ti-cgt-arm_16.9.6.LTS/lib/rtsv7R4_T_le_v3D16_eabi.lib
       _printfi.obj                      4218     0         0      
       _scanfi.obj                       2200     16        0      
       k_rem_pio2.obj                    1532     344       0      
       s_cos.obj                         1012     0         0      
       s_sin.obj                         1012     0         0      
       ull_div32.obj                     696      0         0      
       strtod.obj                        484      152       0      
       s_atan.obj                        424      152       0      
       strtoll.obj                       484      0         0      
       fopen.obj                         456      0         4      
       e_atan2.obj                       436      0         0      
       defs.obj                          0        0         416    
       trgmsg.obj                        108      0         288    
       strtoull.obj                      356      0         0      
       strtol.obj                        304      0         0      
       strtoul.obj                       272      0         0      
       ctype.obj                         0        257       0      
       write.obj                         40       0         200    
       s_scalbn.obj                      236      0         0      
       s_floor.obj                       224      0         0      
       setvbuf.obj                       220      0         0      
       fflush.obj                        204      0         0      
       sscanf.obj                        204      0         0      
       open.obj                          188      0         4      
       k_cos.obj                         184      0         0      
       _io_perm.obj                      174      0         0      
       k_sin.obj                         164      0         0      
       memcpy_t2.obj                     156      0         0      
       fclose.obj                        152      0         0      
       fputc.obj                         152      0         0      
       vsnprintf.obj                     136      0         0      
       memset_t2.obj                     122      0         0      
       getdevice.obj                     116      0         0      
       s_frexp.obj                       116      0         0      
       copy_decompress_lzss.obj          108      0         0      
       hostlseek.obj                     104      0         0      
       hostrename.obj                    104      0         0      
       fseek.obj                         100      0         0      
       hostopen.obj                      92       0         8      
       sprintf.obj                       100      0         0      
       exit.obj                          80       0         12     
       hostread.obj                      92       0         0      
       close.obj                         88       0         0      
       hostwrite.obj                     88       0         0      
       ltoa.obj                          84       0         0      
       atoi.obj                          80       0         0      
       u_div32.obj                       80       0         0      
       cpy_tbl.obj                       76       0         0      
       hostclose.obj                     68       0         0      
       hostunlink.obj                    68       0         0      
       strtok.obj                        64       0         4      
       strncpy.obj                       54       0         0      
       e_sqrt.obj                        44       0         0      
       unlink.obj                        44       0         0      
       strspn.obj                        42       0         0      
       lseek.obj                         40       0         0      
       memcmp.obj                        38       0         0      
       strcspn.obj                       34       0         0      
       _lock.obj                         20       0         8      
       memccpy.obj                       28       0         0      
       s_copysign.obj                    26       0         0      
       args_main.obj                     24       0         0      
       ll_mul_t2.obj                     24       0         0      
       strcmp.obj                        24       0         0      
       strrchr.obj                       24       0         0      
       strchr.obj                        22       0         0      
       strlen.obj                        22       0         0      
       strcpy.obj                        20       0         0      
       copy_decompress_none.obj          14       0         0      
       copy_zero_init.obj                12       0         0      
       atof.obj                          6        0         0      
       errno.obj                         0        0         4      
       stkdepth_vars.obj                 0        0         4      
       i_div0.obj                        2        0         0      
    +--+---------------------------------+--------+---------+---------+
       Total:                            18822    921       952    
                                                                   
    C:\Users\a0227075\testCompile\mmwave_sdk_68xx_hwa\src\sysbios\sysbios.aer4ft
       BIOS.obj                          20737    0         0      
       exc_Exception_asm.obj             308      0         0      
       vim_Hwi_asm.obj                   208      0         0      
       arm_TaskSupport_asm.obj           180      0         0      
       vim_Hwi_asm_switch.obj            152      0         0      
       a15_TimestampProvider_asm.obj     46       0         0      
       arm_IntrinsicsSupport_asm.obj     12       0         0      
       tms570_Core_asm.obj               10       0         0      
    +--+---------------------------------+--------+---------+---------+
       Total:                            21653    0         0      
                                                                   
    C:\ti\bios_6_73_01_01\packages\ti\targets\arm\rtsarm\lib\auto_init.aer4ft
       auto_init.oer4ft                  160      0         0      
    +--+---------------------------------+--------+---------+---------+
       Total:                            160      0         0      
                                                                   
    C:\ti\bios_6_73_01_01\packages\ti\targets\arm\rtsarm\lib\boot.aer4ft
       boot.oer4ft                       116      0         0      
    +--+---------------------------------+--------+---------+---------+
       Total:                            116      0         0      
                                                                   
       Stack:                            0        0         1200   
       Linker Generated:                 0        1430      0      
    +--+---------------------------------+--------+---------+---------+
       Grand Total:                      172817   5664      927952 


LINKER GENERATED COPY TABLES

__TI_cinit_table @ 0002bb10 records: 6, size/record: 8, table size: 48
	.data: load addr=0002b5a8, load size=00000532 bytes, run addr=080208b8, run size=0000136c bytes, compression=lzss
	.DPC_objDetTcmbHeap: load addr=0002bae8, load size=00000008 bytes, run addr=08010000, run size=0000c400 bytes, compression=zero_init
	.bss: load addr=0002baf0, load size=00000008 bytes, run addr=0801c400, run size=000044b4 bytes, compression=zero_init
	.l3ram: load addr=0002baf8, load size=00000008 bytes, run addr=51000000, run size=000c0000 bytes, compression=zero_init
	.myFiqStack: load addr=0002bb00, load size=00000008 bytes, run addr=08021c28, run size=00000800 bytes, compression=zero_init
	systemHeap: load addr=0002bb08, load size=00000008 bytes, run addr=08000000, run size=00010000 bytes, compression=zero_init


LINKER GENERATED HANDLER TABLE

__TI_handler_table @ 0002badc records: 3, size/record: 4, table size: 12
	index: 0, handler: __TI_zero_init
	index: 1, handler: __TI_decompress_lzss
	index: 2, handler: __TI_decompress_none


GLOBAL SYMBOLS: SORTED ALPHABETICALLY BY Name 

address   name                                                                 
-------   ----                                                                 
00026b41  ADCBUF_MMWave_close                                                  
00007cd5  ADCBUF_MMWave_control                                                
000230f5  ADCBUF_MMWave_getCQBufAddr                                           
0001f34d  ADCBUF_MMWave_getChanBufAddr                                         
00002eb3  ADCBUF_MMWave_init                                                   
000173c5  ADCBUF_MMWave_open                                                   
0002a1f5  ADCBuf_Params_init                                                   
080219c0  ADCBuf_config                                                        
00015737  ADCBuf_control                                                       
0002b23c  ADCBuf_defaultParams                                                 
00020215  ADCBuf_getChanBufAddr                                                
00028089  ADCBuf_init                                                          
00027c69  ADCBuf_open                                                          
00029591  AOAHWA_waitEdma                                                      
0001efe1  AoAProcHWA_ConvertFov                                                
00017fad  AoAProcHWA_PrepareRangeAzimuthHeatmap                                
000104c5  AoAProcHWA_XYZestimation                                             
00021921  AoAProcHWA_cfgAndTrigger_EDMA_2DFFT                                  
0002a205  AoAProcHWA_trigger_EDMA_3DFFT                                        
00026179  C$$EXIT                                                              
00024227  C$$IO$$                                                              
00013569  CBUFF_activateSession                                                
000221dd  CBUFF_closeEDMA                                                      
00026e95  CBUFF_closeLVDS                                                      
00011e91  CBUFF_configEDMA                                                     
0000c141  CBUFF_createSession                                                  
0001ebb9  CBUFF_deactivateSession                                              
00019afd  CBUFF_deinit                                                         
00022f75  CBUFF_deinitLVDS                                                     
0001a215  CBUFF_deleteSession                                                  
0002996d  CBUFF_finalizeLVDSLinkListParams                                     
0000ec05  CBUFF_init                                                           
000125dd  CBUFF_initLVDS                                                       
00022b91  CBUFF_initLVDSLinkListParams                                         
0000f7c9  CBUFF_openLVDS                                                       
000231e5  CBUFF_setVC                                                          
00020edb  CBUFF_setupNonInterleaved_ADC                                        
0001d889  CBUFF_setupNonInterleaved_CP_ADC_CQ                                  
0001e491  CBUFF_setupTransfer                                                  
0002682b  CBUFF_setup_USER                                                     
00029e61  CBUFF_shutdownTransfer                                               
00023ce1  CFARCAHWA_config_EDMA                                                
000174f9  CFARHWA_cfarRange_AND_cfarDoppler                                    
00026873  CFARHWA_convHwaCfarDetListToDetMask                                  
000250c1  CFARHWA_fovConvertDoppler                                            
00027f19  CFARHWA_fovConvertRange                                              
000295af  CFARHWA_isHwaCfarDetected                                            
0002511d  CFARHWA_prepareHwaRunTime                                            
00023a39  CFARHWA_saveConfiguration                                            
00028421  CFARHWA_triggerCFAR                                                  
00024cf5  CLI_MMWaveExtensionHandler                                           
0001f3f5  CLI_MMWaveExtensionHelp                                              
00027a75  CLI_MMWaveExtensionInit                                              
0002a215  CLI_getMMWaveExtensionConfig                                         
00029b25  CLI_getMMWaveExtensionOpenConfig                                     
0001bbb9  CLI_open                                                             
000262c1  CLI_write                                                            
0001a311  CRC_computeSignature                                                 
00025f99  CRC_getSignature                                                     
00025b9d  CRC_getTransactionId                                                 
0002a10d  CRC_initConfigParams                                                 
00010f15  CRC_open                                                             
00026609  CycleprofilerP_getTimeStamp                                          
00029f67  CycleprofilerP_init                                                  
0001f935  DMA_assignChannel                                                    
0001a015  DMA_clearChannelInterruptFlag                                        
00023dbd  DMA_disableChannel                                                   
000196dd  DMA_disableInterrupt                                                 
00023e29  DMA_enableChannel                                                    
0001bc99  DMA_enableInterrupt                                                  
00025bf1  DMA_freeChannel                                                      
0001e549  DMA_getChannelInterruptFlag                                          
0001151d  DMA_setChannelParams                                                 
0001d30d  DPEDMAHWA_configOneHotSignature                                      
0001b47d  DPEDMAHWA_configTwoHotSignature                                      
0001908d  DPEDMA_configSyncAB                                                  
00019c01  DPEDMA_configSyncA_singleFrame                                       
00025ef5  DPEDMA_setup_shadow_link                                             
0001d94d  DPM_deinit                                                           
000255c5  DPM_execute                                                          
00014cfd  DPM_init                                                             
0001da11  DPM_ioctl                                                            
000299a1  DPM_listAdd                                                          
00029345  DPM_listCat                                                          
000297b3  DPM_listRemove                                                       
000289a1  DPM_msgInitHeader                                                    
00014e7d  DPM_msgRecv                                                          
00027ae5  DPM_notifyExecute                                                    
0002882d  DPM_pipeDeinit                                                       
00028509  DPM_pipeInit                                                         
000268bb  DPM_pipeRecv                                                         
00022c11  DPM_pipeSend                                                         
00026bc9  DPM_start                                                            
00026c0d  DPM_stop                                                             
00011cb5  DPU_AoAProcHWA_config                                                
00020989  DPU_AoAProcHWA_control                                               
000297d1  DPU_AoAProcHWA_deinit                                                
0002a235  DPU_AoAProcHWA_getNumHwaParamSets                                    
0001ade1  DPU_AoAProcHWA_init                                                  
0000adfd  DPU_AoAProcHWA_process                                               
0001762d  DPU_CFARCAProcHWA_config                                             
0001bd79  DPU_CFARCAProcHWA_control                                            
00029b6d  DPU_CFARCAProcHWA_deinit                                             
000222e9  DPU_CFARCAProcHWA_init                                               
000143d1  DPU_CFARCAProcHWA_process                                            
00004a95  DPU_DopplerProcHWA_config                                            
00029b85  DPU_DopplerProcHWA_deinit                                            
0001c381  DPU_DopplerProcHWA_init                                              
0001b569  DPU_DopplerProcHWA_process                                           
00008e81  DPU_RangeProcHWA_config                                              
0001c885  DPU_RangeProcHWA_control                                             
000289c9  DPU_RangeProcHWA_deinit                                              
0001dba5  DPU_RangeProcHWA_init                                                
00006865  DPU_RangeProcHWA_process                                             
0002630d  DPU_StaticClutterProc_config                                         
00016603  DPU_StaticClutterProc_configEdma                                     
000297ed  DPU_StaticClutterProc_deinit                                         
00028535  DPU_StaticClutterProc_init                                           
000140b9  DPU_StaticClutterProc_process                                        
00028c39  DPU_StaticClutterProc_waitInData                                     
00028c5f  DPU_StaticClutterProc_waitOutData                                    
00025675  DebugP_log0                                                          
000256cd  DebugP_log1                                                          
00024d55  DebugP_log2                                                          
00024db5  DebugP_log3                                                          
00010d05  EDMA3ChannelToParamMap                                               
000267db  EDMA3ClrCCErr                                                        
00028f55  EDMA3ClrEvt                                                          
00028f79  EDMA3ClrIntr                                                         
00027b1d  EDMA3ClrMissEvt                                                      
00028f9d  EDMA3DisableDmaEvt                                                   
00028fc1  EDMA3DisableEvtIntr                                                  
00029b9d  EDMA3DisableQdmaEvt                                                  
00025725  EDMA3EnableChInShadowReg                                             
00028fe5  EDMA3EnableDmaEvt                                                    
00029009  EDMA3EnableEvtIntr                                                   
00029bb5  EDMA3EnableQdmaEvt                                                   
000282c9  EDMA3ErrIntrHighStatusGet                                            
00028ba9  EDMA3GetCCErrStatus                                                  
00028bd9  EDMA3GetErrIntrStatus                                                
00029f91  EDMA3GetIntrStatus                                                   
0001f49d  EDMA3Init                                                            
00029fa5  EDMA3IntrStatusHighGet                                               
00025fe9  EDMA3MapChToEvtQ                                                     
00029fb9  EDMA3MapQdmaChToPaRAM                                                
00029365  EDMA3QdmaClrMissEvt                                                  
00028c09  EDMA3QdmaGetErrIntrStatus                                            
0002902d  EDMA3SetEvt                                                          
00029a09  EDMA3SetPaRAM                                                        
0002a11f  EDMA3SetQdmaTrigWord                                                 
000276b9  EDMA_chainChannels                                                   
00014559  EDMA_configChannel                                                   
00018d59  EDMA_configErrorMonitoring                                           
000232d5  EDMA_configParamSet                                                  
00026359  EDMA_disableChannel                                                  
000263a5  EDMA_enableChannel                                                   
000276f5  EDMA_getErrorStatus                                                  
0000fe4d  EDMA_getNumInstances                                                 
00027731  EDMA_getTransferControllerErrorStatus                                
000186a1  EDMA_init                                                            
00023e95  EDMA_isTransferComplete                                              
00026fe1  EDMA_linkParamSets                                                   
00012b35  EDMA_open                                                            
00028561  EDMA_setDestinationAddress                                           
0002858d  EDMA_setSourceAddress                                                
000248e1  EDMA_startDmaTransfer                                                
0001e829  EDMA_startTransfer                                                   
00011115  EDMAsetRegion                                                        
0002577d  ESM_highpriority_FIQ                                                 
0001f9d9  ESM_init                                                             
00029385  ESM_lowpriority_IRQ                                                  
0001f139  ESM_processInterrupt                                                 
00000100  GET_ANA_BASE_ADDRESS                                                 
00021411  GPIO_init                                                            
000152f1  GPIO_setConfig                                                       
0001e0e9  GPIO_write                                                           
00026cd9  HOSTclose                                                            
000246e1  HOSTlseek                                                            
00025345  HOSTopen                                                             
000253a1  HOSTread                                                             
00024749  HOSTrename                                                           
00026d1d  HOSTunlink                                                           
00025aed  HOSTwrite                                                            
0000dfb1  HSIHeader_createHeader                                               
00023b1d  HSIHeader_deleteHeader                                               
0001674d  HSIHeader_init                                                       
0000cced  HWA_configCommon                                                     
00005105  HWA_configParamSet                                                   
00020daf  HWA_configRam                                                        
00027cd1  HWA_disableDoneInterrupt                                             
00021fbd  HWA_disableParamSetInterrupt                                         
00027585  HWA_enable                                                           
000263f1  HWA_enableDoneInterrupt                                              
0001cca1  HWA_enableParamSetInterrupt                                          
00024945  HWA_getDMAChanIndex                                                  
000257d5  HWA_getDMAconfig                                                     
00027021  HWA_getHWAMemInfo                                                    
00006863  HWA_init                                                             
000146e1  HWA_open                                                             
0002694d  HWA_readCFARPeakCountReg                                             
00026f19  HWA_reset                                                            
0002798d  HWA_setDMA2ACCManualTrig                                             
00017d55  HWAutil_configCFAR                                                   
00029fcd  HwiP_Params_init                                                     
00022a91  HwiP_create                                                          
000279c9  HwiP_delete                                                          
00015e29  HwiP_disable                                                         
00015b6d  HwiP_disableInterrupt                                                
00016edd  HwiP_enableInterrupt                                                 
00029929  HwiP_restore                                                         
0001fa7d  MMWave_addBpmChirp                                                   
0001d3d9  MMWave_addChirp                                                      
0001ec69  MMWave_addProfile                                                    
00025179  MMWave_close                                                         
00024c85  MMWave_closeLink                                                     
0002370d  MMWave_config                                                        
0001d4a1  MMWave_configBPM                                                     
000203fd  MMWave_configLink                                                    
000275c3  MMWave_decodeError                                                   
00018c39  MMWave_decodeErrorLevel                                              
0002236d  MMWave_deviceCfgAsyncEvent                                           
00023bfd  MMWave_deviceCfgFxn                                                  
00023f01  MMWave_deviceCloseFxn                                                
000223f1  MMWave_deviceEventFxn                                                
0000dd2d  MMWave_deviceExecuteFxn                                              
0002a143  MMWave_deviceGetDeviceInfo                                           
000193b1  MMWave_deviceInitFxn                                                 
00022d09  MMWave_deviceOpenFxn                                                 
00023781  MMWave_deviceStartFxn                                                
00024409  MMWave_deviceStopFxn                                                 
00029a23  MMWave_deviceSyncFxn                                                 
00029a3d  MMWave_encodeError                                                   
0002582d  MMWave_execute                                                       
00026f5b  MMWave_executeLink                                                   
0001d569  MMWave_flushCfg                                                      
00022809  MMWave_getBpmChirpCfg                                                
0001f5ed  MMWave_getBpmChirpHandle                                             
00020a21  MMWave_getChirpCfg                                                   
0001d631  MMWave_getChirpHandle                                                
00022475  MMWave_getNumBpmChirp                                                
0002334d  MMWave_getNumChirps                                                  
00022045  MMWave_getProfileCfg                                                 
00020499  MMWave_getProfileHandle                                              
0001bf39  MMWave_init                                                          
00025c99  MMWave_initLink                                                      
00029a57  MMWave_listAdd                                                       
000293c5  MMWave_listCat                                                       
0001b38d  MMWave_listGetHead                                                   
0001f29d  MMWave_listGetNext                                                   
00029809  MMWave_listRemove                                                    
000280e9  MMWave_listRemoveNode                                                
000224f9  MMWave_open                                                          
00013d95  MMWave_openLink                                                      
0002863d  MMWave_osalMutexCreate                                               
0002a009  MMWave_osalMutexDelete                                               
00029bcd  MMWave_osalMutexLock                                                 
00013a55  MMWave_osalMutexUnlock                                               
00028669  MMWave_osalSemCreate                                                 
0002a01d  MMWave_osalSemDelete                                                 
00018325  MMWave_osalSemSignal                                                 
00029be5  MMWave_osalSemWait                                                   
0001fb21  MMWave_start                                                         
00019d05  MMWave_startLink                                                     
00025231  MMWave_stop                                                          
00023fd9  MMWave_stopLink                                                      
00026039  MMWave_sync                                                          
0802077c  MSS_RCM_CLKDIVCTL0_save                                              
0802089c  MSS_RCM_CLKSRCSEL0_save                                              
080208a0  MSS_RCM_CLKSRCSEL1_save                                              
080208a4  MSS_TOPRCM_CLKDIV_save                                               
080208a8  MSS_TOPRCM_CLKSRCSEL_save                                            
000289f1  Mailbox_Config_init                                                  
000214a1  Mailbox_close                                                        
0002afac  Mailbox_defaultCfg                                                   
00022d85  Mailbox_init                                                         
0000f0cd  Mailbox_open                                                         
0001c455  Mailbox_read                                                         
00024471  Mailbox_readFlush                                                    
000197e5  Mailbox_write                                                        
0002776d  Mailbox_writeReset                                                   
0002a155  MemoryP_ctrlAlloc                                                    
00024ed5  MemoryP_ctrlFree                                                     
0001a8f9  MemoryP_getStats                                                     
0001a605  MmwDemo_ADCBufConfig                                                 
000277a9  MmwDemo_ADCBufOpen                                                   
00002eb5  MmwDemo_CLIInit                                                      
0001fef5  MmwDemo_CfgUpdate                                                    
00028a19  MmwDemo_DPC_ObjectDetection_processFrameBeginCallBackFxn             
00028a41  MmwDemo_DPC_ObjectDetection_processInterFrameBeginCallBackFxn        
000277e5  MmwDemo_EDMA_errorCallbackFxn                                        
00027821  MmwDemo_EDMA_transferControllerErrorCallbackFxn                      
0001636d  MmwDemo_LVDSStreamDeleteHwSession                                    
00016da1  MmwDemo_LVDSStreamDeleteSwSession                                    
0000e231  MmwDemo_LVDSStreamHwConfig                                           
00014ffd  MmwDemo_LVDSStreamInit                                               
00013bfd  MmwDemo_LVDSStreamSwConfig                                           
000179c5  MmwDemo_LVDSStream_EDMAInit                                          
000199f5  MmwDemo_MMWave_stop                                                  
08021b30  MmwDemo_RFParserHwCfg                                                
000293e5  MmwDemo_RFParser_getNumSubFrames                                     
00025935  MmwDemo_RFParser_parseConfig                                         
0000ee69  MmwDemo_checkEdmaErrors                                              
0001aed5  MmwDemo_configLVDSHwData                                             
0002257d  MmwDemo_configSensor                                                 
000062e1  MmwDemo_dataPathConfig                                               
00029c45  MmwDemo_dataPathInit                                                 
0002a245  MmwDemo_dataPathObjInit                                              
00028a69  MmwDemo_dataPathOpen                                                 
0001a7fd  MmwDemo_dataPathStart                                                
00022b11  MmwDemo_dataPathStop                                                 
0001e31d  MmwDemo_edmaInit                                                     
0001517d  MmwDemo_edmaOpen                                                     
0000f9f5  MmwDemo_eventCallbackFxn                                             
00029c5d  MmwDemo_getTemperatureReport                                         
00025e95  MmwDemo_hwaInit                                                      
00022ffd  MmwDemo_hwaOpen                                                      
00006dc9  MmwDemo_initTask                                                     
0001c2a9  MmwDemo_isAllCfgInNonPendingState                                    
0001c529  MmwDemo_isAllCfgInPendingState                                       
0001ce39  MmwDemo_measurementResultOutput                                      
000270a1  MmwDemo_mmWaveCtrlTask                                               
00024261  MmwDemo_mssSetHsiClk                                                 
0000aa85  MmwDemo_openSensor                                                   
0001b651  MmwDemo_platformInit                                                 
000244d9  MmwDemo_resetStaticCfgPendingState                                   
0000f581  MmwDemo_sensorStopEpilog                                             
000253fd  MmwDemo_sleep                                                        
0001728d  MmwDemo_startSensor                                                  
000180d5  MmwDemo_stopSensor                                                   
00017af5  MmwDemo_transferLVDSUserData                                         
000092bd  MmwDemo_transmitProcessedOutput                                      
00024045  Pinmux_Set_FuncSel                                                   
0001f695  Pinmux_Set_OverrideCtrl                                              
000292bd  QSPIFlashGetStatus                                                   
0002a255  QSPIFlashWriteCmd                                                    
0001ff95  QSPIFlash_configMmapRead                                             
0002598d  QSPIFlash_configMmapWrite                                            
08021b38  QSPIFlash_deviceFxnTbl_macronix                                      
08021b40  QSPIFlash_deviceFxnTbl_spansion                                      
00028a91  QSPIFlash_getExtFlashAddr                                            
00010aff  QSPIFlash_init                                                       
0002352d  QSPIFlash_mmapRead                                                   
0001fbc5  QSPIFlash_mmapWrite                                                  
0000e731  QSPIFlash_open                                                       
000270e1  QSPIFlash_progQuadRead                                               
000235a5  QSPIFlash_sectorErase                                                
00025d41  QSPIFlash_writeEnable                                                
0002a265  QSPI_Params_init                                                     
0002361d  QSPI_cfgRead                                                         
0002411d  QSPI_cfgWrite                                                        
0002b25c  QSPI_defaultParams                                                   
0001151b  QSPI_init                                                            
00023695  QSPI_memAccessCfg                                                    
00015a0d  QSPI_open                                                            
UNDEFED   SHT$$INIT_ARRAY$$Base                                                
UNDEFED   SHT$$INIT_ARRAY$$Limit                                               
0001e7e3  SOC_MPUAreRegionsSeparate                                            
0001e78f  SOC_MPUDisable                                                       
0001e7c3  SOC_MPUDisableBackgroundRegion                                       
0001e771  SOC_MPUEnable                                                        
0001e7ad  SOC_MPUEnableBackgroundRegion                                        
0001e7d9  SOC_MPUGetNumberOfRegions                                            
0001e7f1  SOC_MPUGetRegion                                                     
0001e7fd  SOC_MPUGetRegionBaseAddress                                          
0001e817  SOC_MPUGetRegionPermission                                           
0001e80d  SOC_MPUGetRegionType                                                 
0001e7eb  SOC_MPUSetRegion                                                     
0001e7f7  SOC_MPUSetRegionBaseAddress                                          
0001e821  SOC_MPUSetRegionSizeRegister                                         
0001e803  SOC_MPUSetRegionTypeAndPermission                                    
000288d5  SOC_SystemISR                                                        
0802169c  SOC_TranslateAddr_LUT                                                
0001c955  SOC_controlSecureFirewall                                            
0001f73d  SOC_deregisterSysIntListener                                         
0000bb29  SOC_deviceInit                                                       
00027d6d  SOC_enableHWA                                                        
000252e9  SOC_enableLVDS                                                       
0002112d  SOC_gateClock                                                        
000281d9  SOC_getDevicePartNumber                                              
00022889  SOC_getDeviceRFFreqScaleFactor                                       
00029825  SOC_getInAddr_LUTType                                                
00029627  SOC_getOutAddr_LUTType                                               
00028209  SOC_haltBSS                                                          
00027da1  SOC_hasDSPCore                                                       
00021b55  SOC_init                                                             
000290bd  SOC_isDSSOperational                                                 
000290e1  SOC_isMMWaveDSSOperational                                           
00029105  SOC_isMMWaveMSSOperational                                           
0002785d  SOC_isSecureDevice                                                   
0002a391  SOC_microDelay                                                       
000200d5  SOC_registerSysIntListener                                           
00026c95  SOC_resetDMA                                                         
00027dd5  SOC_setMMWaveDSSLinkState                                            
00027e09  SOC_setMMWaveMSSLinkState                                            
00027e3d  SOC_setMSSLinkState                                                  
00021be1  SOC_translateAddress                                                 
0001d6f9  SOC_ungateClock                                                      
00027899  SOC_unhaltBSS                                                        
00028695  SOC_waitBSSPowerUp                                                   
0001afc9  SemaphoreP_Params_init                                               
000249a9  SemaphoreP_create                                                    
0002a39f  SemaphoreP_delete                                                    
0002a167  SemaphoreP_pend                                                      
00026da5  SemaphoreP_post                                                      
00026da5  SemaphoreP_postFromClock                                             
00026da5  SemaphoreP_postFromISR                                               
000187c5  UART_Params_init                                                     
00026df5  UART_close                                                           
08021874  UART_config                                                          
0002ae24  UART_defaultParams                                                   
00027b55  UART_init                                                            
00027e71  UART_open                                                            
00026e45  UART_read                                                            
00027ea5  UART_write                                                           
00028017  UART_writePolling                                                    
000259e5  UartSci_closeDMA                                                     
000292df  UartSci_disableRxDMA                                                 
0002a045  UartSci_disableTxDMA                                                 
00029301  UartSci_enableRxDMA                                                  
0002a059  UartSci_enableTxDMA                                                  
00021c6d  UartSci_initiateRxDMA                                                
00021651  UartSci_initiateTxDMA                                                
0001c7a5  UartSci_isDMAEnabled                                                 
0001eb05  UartSci_openDMA                                                      
00027b8d  _DPC_Objdet_Assert                                                   
0002a06d  _DebugP_assert                                                       
00028055  _MmwDemo_debugAssert                                                 
00000000  __ASM__                                                              
080204bc  __CIOBUF_                                                            
00000067  __ISA__                                                              
00000079  __PLAT__                                                             
080228d8  __STACK_END                                                          
000004b0  __STACK_SIZE                                                         
0000009d  __TARG__                                                             
0002bb10  __TI_CINIT_Base                                                      
0002bb40  __TI_CINIT_Limit                                                     
0002badc  __TI_Handler_Table_Base                                              
0002bae8  __TI_Handler_Table_Limit                                             
00020175  __TI_auto_init                                                       
00012a37  __TI_cleanup                                                         
08021af8  __TI_cleanup_ptr                                                     
00020ab9  __TI_closefile                                                       
00024189  __TI_decompress_lzss                                                 
0002a3ad  __TI_decompress_none                                                 
0001d09d  __TI_doflush                                                         
08021afc  __TI_dtors_ptr                                                       
08021b00  __TI_enable_exit_profile_output                                      
08021ac8  __TI_ft_end                                                          
ffffffff  __TI_pprof_out_hndl                                                  
000025fd  __TI_printfi                                                         
ffffffff  __TI_prof_data_size                                                  
ffffffff  __TI_prof_data_start                                                 
0001ef95  __TI_rd_ok                                                           
0002422b  __TI_readmsg                                                         
00003aed  __TI_scanfi                                                          
0002b5a8  __TI_static_base__                                                   
080206dc  __TI_tmpnams                                                         
000241f5  __TI_writemsg                                                        
0001ef31  __TI_wrt_ok                                                          
0001d235  __TI_zero_init                                                       
000000c4  __TRDR__                                                             
00014cfb  __aeabi_idiv0                                                        
00029cd5  __aeabi_lmul                                                         
00023079  __aeabi_memclr                                                       
00023079  __aeabi_memclr4                                                      
00023079  __aeabi_memclr8                                                      
0002066d  __aeabi_memcpy                                                       
0002066d  __aeabi_memcpy4                                                      
0002066d  __aeabi_memcpy8                                                      
0002307b  __aeabi_memset                                                       
0002307b  __aeabi_memset4                                                      
0002307b  __aeabi_memset8                                                      
08021ad4  __aeabi_stderr                                                       
08021acc  __aeabi_stdin                                                        
08021ad0  __aeabi_stdout                                                       
000261c8  __aeabi_uidiv                                                        
000261c8  __aeabi_uidivmod                                                     
0000d530  __aeabi_uldivmod                                                     
ffffffff  __binit__                                                            
ffffffff  __c_args__                                                           
0001e6b9  __kernel_cos                                                         
0000575d  __kernel_rem_pio2                                                    
0001fd0d  __kernel_sin                                                         
08022428  __stack                                                              
00029cbd  _args_main                                                           
000237f4  _c_int00                                                             
0002a968  _ctypes_                                                             
08021410  _device                                                              
08021208  _ftable                                                              
08021b28  _lock                                                                
0002a0cb  _nop                                                                 
0002a0c3  _register_lock                                                       
0002a0bd  _register_unlock                                                     
080215b4  _stream                                                              
08021b2c  _unlock                                                              
0002617d  abort                                                                
000133c1  atan                                                                 
0001305d  atan2                                                                
0001305d  atan2l                                                               
000133c1  atanl                                                                
0002a275  atof                                                                 
00026129  atoi                                                                 
ffffffff  binit                                                                
00025a95  close                                                                
00026521  copy_in                                                              
00029aa5  copysign                                                             
00029aa5  copysignl                                                            
00009f0d  cos                                                                  
00009f0d  cosl                                                                 
0801f518  edmaDbg                                                              
08021be4  errno                                                                
00026185  exit                                                                 
00020b1f  fclose                                                               
0001d0e9  fflush                                                               
000238dd  finddevice                                                           
0001be59  floor                                                                
0001be59  floorl                                                               
00012a8d  fopen                                                                
00020b51  fputc                                                                
00029a71  free                                                                 
00012a63  freopen                                                              
00023951  frexp                                                                
00023951  frexpl                                                               
00024a0d  fseek                                                                
0002b218  gADCBufFxnTable                                                      
0002b26c  gADCBufHwCfg                                                         
08021988  gAntDef_default                                                      
08021488  gCBUFFHwAttribute                                                    
08021758  gCBUFFInterfaceFxn                                                   
08020180  gCLI                                                                 
08020d78  gCLIMMWaveControlCfg                                                 
08020cd0  gCLIMMWaveExtensionTable                                             
08020ca8  gCLIMMWaveOpenCfg                                                    
08020ca0  gCLI_mmwave_freq_scale_factor                                        
08021bcc  gCRCRegister                                                         
0801fa00  gCalibDataStorage                                                    
08010000  gDPC_ObjDetTCM                                                       
08021898  gDPC_ObjectDetectionCfg                                              
08021bd0  gDPM                                                                 
08021b48  gDPMHwAttrib                                                         
0002af34  gDPMMessageFxnTable                                                  
08021a80  gDPMRemoteTable                                                      
08021b04  gESMHwCfgAttrs                                                       
0002ae9c  gEdmaHwAttrs                                                         
08020810  gEsmMCB                                                              
08021b50  gGPIOHwAtrrib                                                        
08020328  gGPIOMCB                                                             
08020780  gHSIHeaderMCB                                                        
08021904  gHWADriverPtr                                                        
080217c4  gHWAHwCfg                                                            
08021aa8  gHwaEDMAChanMapping                                                  
080219d8  gInterleavedTransferFxn                                              
0802088c  gMMWave_DualcoreMCB                                                  
080205dc  gMMWave_MCB                                                          
08021604  gMailboxMCB                                                          
080219f0  gMailboxMssBssHwCfg                                                  
08021a08  gMailboxMssDssHwCfg                                                  
08020880  gMmwDemoFlash                                                        
51000000  gMmwL3                                                               
0801ed00  gMmwMCB                                                              
08021a20  gMultipleChirpNonInterleavedTransferFxn                              
08021a38  gNonInterleavedTransferFxn                                           
080208ac  gObjDetObj                                                           
08021bd8  gPinmuxRegs                                                          
08021bdc  gQSPIDriverPtr                                                       
08021bc0  gQSPIFlashHwCfg                                                      
08021ab8  gQSPIHwCfg                                                           
08021bc4  gRFLdoBypassCfg                                                      
08021908  gSOCHwAttrib                                                         
0802184c  gUartSciFxnTable                                                     
0802155c  gUartSciHwCfg                                                        
0002390b  getdevice                                                            
0000cfb1  idle_power_cycle                                                     
00012065  idle_power_down                                                      
0001b2a1  ldexp                                                                
0001b2a1  ldexpl                                                               
00028b59  lseek                                                                
00025d95  ltoa                                                                 
00018b21  main                                                                 
08021bf0  main_func_sp                                                         
000284af  malloc                                                               
0002a081  mathUtils_ceilLog2                                                   
000287f5  mathUtils_floorLog2                                                  
000181fd  mathUtils_genWindow                                                  
0002a179  mathUtils_pow2roundup                                                
00029879  memccpy                                                              
00028e99  memcmp                                                               
0002066d  memcpy                                                               
00023081  memset                                                               
00026271  mmwDemo_cfgAnalogMonitor                                             
00026741  mmwDemo_cfgRxSaturationMonitor                                       
00027bc5  mmwDemo_cfgRxSigImgMonitor                                           
00028239  mmwDemo_flashEraseOneSector                                          
000220cd  mmwDemo_flashInit                                                    
00024e75  mmwDemo_flashRead                                                    
00025a3d  mmwDemo_flashWrite                                                   
0001e261  open                                                                 
08020894  parmbuf                                                              
08020e44  partInfoStringArray                                                  
00020b51  putc                                                                 
00020bd7  putchar                                                              
08021bd4  regionId                                                             
00028745  remove                                                               
0002a095  rlAppendDummy                                                        
00027bfd  rlAppendSubBlock                                                     
00028b09  rlDeviceGetMmWaveLinkVersion                                         
000286c1  rlDeviceGetMssVersion                                                
00029c75  rlDeviceGetRfVersion                                                 
00026995  rlDeviceGetVersion                                                   
00026089  rlDeviceIdentifyCmdDir                                               
000247b1  rlDevicePowerOff                                                     
00021cf9  rlDevicePowerOn                                                      
00029129  rlDeviceSetHsiClk                                                    
00023869  rlDriverAsyncEventHandler                                            
00029c8d  rlDriverCalCRC                                                       
00025511  rlDriverCalChkSum                                                    
00013f29  rlDriverCmdInvoke                                                    
00016895  rlDriverCmdSendRetry                                                 
00028b31  rlDriverConstructInMsg                                               
00020709  rlDriverConstructOutMsg                                              
000211c1  rlDriverDeInit                                                       
00022989  rlDriverExecuteGetApi                                                
00024611  rlDriverExecuteSetApi                                                
00029ca5  rlDriverFillPayload                                                  
00022a09  rlDriverGetHandle                                                    
0001dad5  rlDriverGetPlatformId                                                
00024679  rlDriverHostIrqHandler                                               
0001a115  rlDriverInit                                                         
0002a0a9  rlDriverIsDeviceMapValid                                             
0001c0f1  rlDriverMsgCmdReply                                                  
00013211  rlDriverMsgRead                                                      
00021255  rlDriverMsgReadCmdCtx                                                
00021d85  rlDriverMsgReadSpawnCtx                                              
0001dd25  rlDriverMsgWrite                                                     
000269dd  rlDriverOsiInit                                                      
000212e9  rlDriverProcRdMsg                                                    
0001abf1  rlDriverRdVerifyMsg                                                  
000127a5  rlDriverRxHdrRead                                                    
00027161  rlDriverValidateHdr                                                  
000260d9  rlDriverVerifyCRC                                                    
0001f7e5  rlDriverWaitForResponse                                              
0002914d  rlEnableContMode                                                     
00029a8b  rlGetRfDieId                                                         
00026f9d  rlGetSubBlock                                                        
00029f49  rlGetSubBlockId                                                      
0002a18b  rlGetSubBlockLen                                                     
00028c85  rlRfAnaMonConfig                                                     
0001cf05  rlRfCalibDataRestore                                                 
0001b739  rlRfCalibDataStore                                                   
00028cab  rlRfGetTemperatureReport                                             
00029425  rlRfInit                                                             
00028cd1  rlRfInitCalibConfig                                                  
0001b9f1  rlRfPhShiftCalibDataRestore                                          
0001b821  rlRfPhShiftCalibDataStore                                            
00028cf7  rlRfRunTimeCalibConfig                                               
00028d1d  rlRfRxIfSatMonConfig                                                 
00028d43  rlRfRxSigImgMonConfig                                                
00028d69  rlRfSetCalMonFreqLimitConfig                                         
00029171  rlRfSetCalMonTimeUnitConfig                                          
00028d8f  rlRfSetDeviceCfg                                                     
00028db5  rlRfSetLdoBypassConfig                                               
00028269  rlSensorStart                                                        
000286ed  rlSensorStop                                                         
00028ddb  rlSetAdcOutConfig                                                    
0001f88d  rlSetAdvFrameConfig                                                  
00028e01  rlSetBpmCommonConfig                                                 
00028e27  rlSetChannelConfig                                                   
0001cfd1  rlSetChirpConfig                                                     
00028e4d  rlSetContModeConfig                                                  
0001d7c1  rlSetFrameConfig                                                     
00029195  rlSetLowPowerModeConfig                                              
0001c6d1  rlSetMultiBpmChirpConfig                                             
00028e73  rlSetPowerSaveModeConfig                                             
0001ed19  rlSetProfileConfig                                                   
080209b8  rl_rxMsg                                                             
080208b8  rl_txMsg                                                             
0001b2a1  scalbn                                                               
0001b2a1  scalbnl                                                              
0001c1cd  setvbuf                                                              
0000a301  sin                                                                  
0000a301  sinl                                                                 
00024a71  sprintf                                                              
00028719  sqrt                                                                 
00028719  sqrtl                                                                
0001d17b  sscanf                                                               
00029ea3  strchr                                                               
00029ced  strcmp                                                               
0002a0d1  strcpy                                                               
00029323  strcspn                                                              
00029eb9  strlen                                                               
00027c33  strncpy                                                              
00029d05  strrchr                                                              
000288ff  strspn                                                               
0001170d  strtod                                                               
000271a1  strtok                                                               
00017c25  strtol                                                               
0001170d  strtold                                                              
000118f1  strtoll                                                              
00018f7d  strtoul                                                              
000158a9  strtoull                                                             
080218bc  ti_sysbios_BIOS_Module__state__V                                     
00029d95  ti_sysbios_BIOS_RtsGateProxy_Handle__label__S                        
00025e3d  ti_sysbios_BIOS_RtsGateProxy_enter__E                                
0002656d  ti_sysbios_BIOS_RtsGateProxy_leave__E                                
0002a4f1  ti_sysbios_BIOS_RtsGateProxy_query__E                                
00028771  ti_sysbios_BIOS_atExitFunc__I                                        
00029645  ti_sysbios_BIOS_errorRaiseHook__I                                    
00029ecf  ti_sysbios_BIOS_exitFunc__I                                          
0002a281  ti_sysbios_BIOS_getCpuFreq__E                                        
0002a541  ti_sysbios_BIOS_linkedWithIncorrectBootLibrary__E                    
0001674b  ti_sysbios_BIOS_nullFunc__I                                          
000291b9  ti_sysbios_BIOS_registerRTSLock__I                                   
000291dd  ti_sysbios_BIOS_removeRTSLock__I                                     
00029895  ti_sysbios_BIOS_rtsLock__I                                           
00029d1d  ti_sysbios_BIOS_rtsUnlock__I                                         
0002a291  ti_sysbios_BIOS_setThreadType__E                                     
00028299  ti_sysbios_BIOS_startFunc__I                                         
0002a2a1  ti_sysbios_BIOS_start__E                                             
0001caf4  ti_sysbios_family_arm_IntrinsicsSupport_maxbitA__I                   
0001caf4  ti_sysbios_family_arm_IntrinsicsSupport_maxbit__E                    
0002665d  ti_sysbios_family_arm_TaskSupport_Module__startupDone__S             
00022ef8  ti_sysbios_family_arm_TaskSupport_buildTaskStack                     
0002a3e1  ti_sysbios_family_arm_TaskSupport_checkStack__E                      
0002a3f1  ti_sysbios_family_arm_TaskSupport_getStackAlignment__E               
00029840  ti_sysbios_family_arm_TaskSupport_glue                               
0002b2d0  ti_sysbios_family_arm_TaskSupport_stackAlignment__C                  
00029451  ti_sysbios_family_arm_TaskSupport_stackUsed__E                       
000282d1  ti_sysbios_family_arm_TaskSupport_start__E                           
0002985c  ti_sysbios_family_arm_TaskSupport_swap__E                            
08021bf8  ti_sysbios_family_arm_a15_TimestampProvider_Module__state__V         
0002a2b1  ti_sysbios_family_arm_a15_TimestampProvider_Module_startup__E        
00029471  ti_sysbios_family_arm_a15_TimestampProvider_autoRefreshFxn__I        
0002a27b  ti_sysbios_family_arm_a15_TimestampProvider_get32__E                 
00027eb1  ti_sysbios_family_arm_a15_TimestampProvider_get64__E                 
0002a281  ti_sysbios_family_arm_a15_TimestampProvider_getFreq__E               
0002a3bb  ti_sysbios_family_arm_a15_TimestampProvider_getOverflowCCNT__I       
00029abf  ti_sysbios_family_arm_a15_TimestampProvider_initCCNT__I              
0002b2d4  ti_sysbios_family_arm_exc_Exception_E_dataAbort__C                   
0002b2d8  ti_sysbios_family_arm_exc_Exception_E_prefetchAbort__C               
0002b2dc  ti_sysbios_family_arm_exc_Exception_E_swi__C                         
0002b2e0  ti_sysbios_family_arm_exc_Exception_E_undefinedInstruction__C        
08021bbe  ti_sysbios_family_arm_exc_Exception_Module_State_0_excActive__A      
08021bfc  ti_sysbios_family_arm_exc_Exception_Module_State_0_excContext__A     
08021c00  ti_sysbios_family_arm_exc_Exception_Module_State_0_excStackBuffers__A
0801dd00  ti_sysbios_family_arm_exc_Exception_Module_State_0_excStack_0__A     
08021c04  ti_sysbios_family_arm_exc_Exception_Module_State_0_excStack__A       
0002aa6a  ti_sysbios_family_arm_exc_Exception_Module__id__C                    
08021a94  ti_sysbios_family_arm_exc_Exception_Module__state__V                 
0002a401  ti_sysbios_family_arm_exc_Exception_Module_startup__E                
0000e4b1  ti_sysbios_family_arm_exc_Exception_excDumpContext__I                
0001ca24  ti_sysbios_family_arm_exc_Exception_excHandlerAsm__I                 
0001ca8c  ti_sysbios_family_arm_exc_Exception_excHandlerDataAsm__I             
00015741  ti_sysbios_family_arm_exc_Exception_excHandler__I                    
0002b2e4  ti_sysbios_family_arm_exc_Exception_excHookFuncs__A                  
0002b2e8  ti_sysbios_family_arm_exc_Exception_excHookFuncs__C                  
00024ad4  ti_sysbios_family_arm_exc_Exception_initCore0__I                     
0002b2ec  ti_sysbios_family_arm_v7a_Pmu_A_invalidCounterId__C                  
0002b2f0  ti_sysbios_family_arm_v7a_Pmu_Module__diagsEnabled__C                
0002b2f4  ti_sysbios_family_arm_v7a_Pmu_Module__diagsIncluded__C               
0002b2f8  ti_sysbios_family_arm_v7a_Pmu_Module__diagsMask__C                   
0002b568  ti_sysbios_family_arm_v7a_Pmu_Module__id__C                          
08021b10  ti_sysbios_family_arm_v7a_Pmu_Module__state__V                       
00029491  ti_sysbios_family_arm_v7a_Pmu_Module_startup__E                      
0001dde4  ti_sysbios_family_arm_v7a_Pmu_configureCounterI__I                   
0001dae1  ti_sysbios_family_arm_v7a_Pmu_configureCounter__E                    
0002a2c0  ti_sysbios_family_arm_v7a_Pmu_disableInterruptI__E                   
0002a2d0  ti_sysbios_family_arm_v7a_Pmu_enableInterruptI__E                    
0001ea44  ti_sysbios_family_arm_v7a_Pmu_getCountI__E                           
00021e11  ti_sysbios_family_arm_v7a_Pmu_getCount__E                            
00024b38  ti_sysbios_family_arm_v7a_Pmu_getEnabled__E                          
0002a2e0  ti_sysbios_family_arm_v7a_Pmu_getNumCounters__E                      
00029d34  ti_sysbios_family_arm_v7a_Pmu_initCounters__I                        
0002a2f0  ti_sysbios_family_arm_v7a_Pmu_startCounterI__E                       
00021771  ti_sysbios_family_arm_v7a_Pmu_startCounter__E                        
0002a300  ti_sysbios_family_arm_v7a_Pmu_stopCounterI__E                        
0002b2fc  ti_sysbios_family_arm_v7r_tms570_Core_E_mismatchedIds__C             
0002b56a  ti_sysbios_family_arm_v7r_tms570_Core_Module__id__C                  
00026d61  ti_sysbios_family_arm_v7r_tms570_Core_Module_startup__E              
00029225  ti_sysbios_family_arm_v7r_tms570_Core_getId__E                       
0002b300  ti_sysbios_family_arm_v7r_tms570_Core_id__C                          
0002b304  ti_sysbios_family_arm_v7r_vim_Hwi_A_badChannelId__C                  
0002b308  ti_sysbios_family_arm_v7r_vim_Hwi_E_alreadyDefined__C                
0002b30c  ti_sysbios_family_arm_v7r_vim_Hwi_E_badIntNum__C                     
0002b310  ti_sysbios_family_arm_v7r_vim_Hwi_E_phantomInterrupt__C              
0002b314  ti_sysbios_family_arm_v7r_vim_Hwi_E_undefined__C                     
0002b318  ti_sysbios_family_arm_v7r_vim_Hwi_E_unsupportedMaskingOption__C      
00021ea1  ti_sysbios_family_arm_v7r_vim_Hwi_Instance_finalize__E               
00018c41  ti_sysbios_family_arm_v7r_vim_Hwi_Instance_init__E                   
0002b31c  ti_sysbios_family_arm_v7r_vim_Hwi_LD_end__C                          
0002b320  ti_sysbios_family_arm_v7r_vim_Hwi_LM_begin__C                        
08021008  ti_sysbios_family_arm_v7r_vim_Hwi_Module_State_0_dispatchTable__A    
08021c28  ti_sysbios_family_arm_v7r_vim_Hwi_Module_State_0_fiqStack__A         
0002b324  ti_sysbios_family_arm_v7r_vim_Hwi_Module__diagsEnabled__C            
0002b328  ti_sysbios_family_arm_v7r_vim_Hwi_Module__diagsIncluded__C           
0002b32c  ti_sysbios_family_arm_v7r_vim_Hwi_Module__diagsMask__C               
0002b56c  ti_sysbios_family_arm_v7r_vim_Hwi_Module__id__C                      
0002b56e  ti_sysbios_family_arm_v7r_vim_Hwi_Module__loggerDefined__C           
0002b330  ti_sysbios_family_arm_v7r_vim_Hwi_Module__loggerFxn1__C              
0002b334  ti_sysbios_family_arm_v7r_vim_Hwi_Module__loggerFxn8__C              
0002b338  ti_sysbios_family_arm_v7r_vim_Hwi_Module__loggerObj__C               
08021b58  ti_sysbios_family_arm_v7r_vim_Hwi_Module__root__V                    
00029d4d  ti_sysbios_family_arm_v7r_vim_Hwi_Module__startupDone__F             
00029d4d  ti_sysbios_family_arm_v7r_vim_Hwi_Module__startupDone__S             
08021790  ti_sysbios_family_arm_v7r_vim_Hwi_Module__state__V                   
0001afd1  ti_sysbios_family_arm_v7r_vim_Hwi_Module_startup__E                  
0002b33c  ti_sysbios_family_arm_v7r_vim_Hwi_NUM_INTERRUPTS__C                  
0002b0a0  ti_sysbios_family_arm_v7r_vim_Hwi_Object__DESC__C                    
0002aed4  ti_sysbios_family_arm_v7r_vim_Hwi_Object__PARAMS__C                  
000294b1  ti_sysbios_family_arm_v7r_vim_Hwi_Object__delete__S                  
080217f4  ti_sysbios_family_arm_v7r_vim_Hwi_Object__table__V                   
00029d65  ti_sysbios_family_arm_v7r_vim_Hwi_Params__init__S                    
0002acc8  ti_sysbios_family_arm_v7r_vim_Hwi_channelMap__A                      
0002b340  ti_sysbios_family_arm_v7r_vim_Hwi_channelMap__C                      
000298b1  ti_sysbios_family_arm_v7r_vim_Hwi_clearInterrupt__E                  
00025de9  ti_sysbios_family_arm_v7r_vim_Hwi_create                             
0002794d  ti_sysbios_family_arm_v7r_vim_Hwi_delete                             
000294d1  ti_sysbios_family_arm_v7r_vim_Hwi_disableInterrupt__E                
00012411  ti_sysbios_family_arm_v7r_vim_Hwi_dispatchIRQC__I                    
0002137c  ti_sysbios_family_arm_v7r_vim_Hwi_dispatchIRQ__I                     
000294f1  ti_sysbios_family_arm_v7r_vim_Hwi_enableInterrupt__E                 
00026571  ti_sysbios_family_arm_v7r_vim_Hwi_getStackInfo__E                    
00020711  ti_sysbios_family_arm_v7r_vim_Hwi_initIntController__I               
000278d4  ti_sysbios_family_arm_v7r_vim_Hwi_init__I                            
0002b27c  ti_sysbios_family_arm_v7r_vim_Hwi_intReqEnaSet__A                    
0002b344  ti_sysbios_family_arm_v7r_vim_Hwi_intReqEnaSet__C                    
000207b1  ti_sysbios_family_arm_v7r_vim_Hwi_mapChannel__I                      
0002b348  ti_sysbios_family_arm_v7r_vim_Hwi_phantomFunc__C                     
00024b41  ti_sysbios_family_arm_v7r_vim_Hwi_phantomIntHandler__I               
00015b71  ti_sysbios_family_arm_v7r_vim_Hwi_reconfig__E                        
0002a491  ti_sysbios_family_arm_v7r_vim_Hwi_startup__E                         
0002a411  ti_sysbios_family_arm_v7r_vim_Hwi_switchFromBootStack__E             
0002b34c  ti_sysbios_family_arm_v7r_vim_Hwi_taskDisable__C                     
0002b350  ti_sysbios_family_arm_v7r_vim_Hwi_taskRestoreHwi__C                  
00000000  ti_sysbios_family_arm_v7r_vim_Hwi_vectors                            
fffffdec  ti_sysbios_family_arm_v7r_vim_Hwi_vim                                
0002b28c  ti_sysbios_family_arm_v7r_vim_Hwi_wakeEnaSet__A                      
0002b354  ti_sysbios_family_arm_v7r_vim_Hwi_wakeEnaSet__C                      
00020c34  ti_sysbios_family_xxx_Hwi_switchAndRunDispatchC                      
00020be8  ti_sysbios_family_xxx_Hwi_switchAndRunFunc                           
00029d7d  ti_sysbios_gates_GateHwi_Handle__label__S                            
0002a551  ti_sysbios_gates_GateHwi_Instance_init__E                            
0002afd0  ti_sysbios_gates_GateHwi_Module__FXNS__C                             
08021b60  ti_sysbios_gates_GateHwi_Module__root__V                             
0002b0c0  ti_sysbios_gates_GateHwi_Object__DESC__C                             
0002b1a0  ti_sysbios_gates_GateHwi_Object__PARAMS__C                           
00028301  ti_sysbios_gates_GateHwi_Object__create__S                           
00029511  ti_sysbios_gates_GateHwi_Object__delete__S                           
08021c08  ti_sysbios_gates_GateHwi_Object__table__V                            
0002a481  ti_sysbios_gates_GateHwi_enter__E                                    
0002a4a1  ti_sysbios_gates_GateHwi_leave__E                                    
0002a4e1  ti_sysbios_gates_GateHwi_query__E                                    
0002b358  ti_sysbios_gates_GateMutex_A_badContext__C                           
00029d95  ti_sysbios_gates_GateMutex_Handle__label__S                          
0002b35c  ti_sysbios_gates_GateMutex_Instance_State_sem__O                     
0002a311  ti_sysbios_gates_GateMutex_Instance_finalize__E                      
000298d1  ti_sysbios_gates_GateMutex_Instance_init__E                          
0002aff4  ti_sysbios_gates_GateMutex_Module__FXNS__C                           
0002b360  ti_sysbios_gates_GateMutex_Module__diagsEnabled__C                   
0002b364  ti_sysbios_gates_GateMutex_Module__diagsIncluded__C                  
0002b368  ti_sysbios_gates_GateMutex_Module__diagsMask__C                      
0002b570  ti_sysbios_gates_GateMutex_Module__id__C                             
08021b68  ti_sysbios_gates_GateMutex_Module__root__V                           
0002b0e0  ti_sysbios_gates_GateMutex_Object__DESC__C                           
0002b1b8  ti_sysbios_gates_GateMutex_Object__PARAMS__C                         
00028331  ti_sysbios_gates_GateMutex_Object__create__S                         
00029201  ti_sysbios_gates_GateMutex_Object__delete__S                         
080216dc  ti_sysbios_gates_GateMutex_Object__table__V                          
0001e991  ti_sysbios_gates_GateMutex_enter__E                                  
000298f1  ti_sysbios_gates_GateMutex_leave__E                                  
0002a4f1  ti_sysbios_gates_GateMutex_query__E                                  
00029225  ti_sysbios_hal_Core_CoreProxy_getId__E                               
0002b36c  ti_sysbios_hal_Hwi_E_stackOverflow__C                                
00029d4d  ti_sysbios_hal_Hwi_HwiProxy_Module__startupDone__S                   
00029d65  ti_sysbios_hal_Hwi_HwiProxy_Params__init__S                          
000298b1  ti_sysbios_hal_Hwi_HwiProxy_clearInterrupt__E                        
000294d1  ti_sysbios_hal_Hwi_HwiProxy_disableInterrupt__E                      
000294f1  ti_sysbios_hal_Hwi_HwiProxy_enableInterrupt__E                       
00026571  ti_sysbios_hal_Hwi_HwiProxy_getStackInfo__E                          
0002a491  ti_sysbios_hal_Hwi_HwiProxy_startup__E                               
0002a411  ti_sysbios_hal_Hwi_HwiProxy_switchFromBootStack__E                   
0002b572  ti_sysbios_hal_Hwi_Module__id__C                                     
0002a191  ti_sysbios_hal_Hwi_Module_startup__E                                 
08021b70  ti_sysbios_hal_Hwi_Object__table__V                                  
00027911  ti_sysbios_hal_Hwi_checkStack                                        
000298b1  ti_sysbios_hal_Hwi_clearInterrupt__E                                 
000294d1  ti_sysbios_hal_Hwi_disableInterrupt__E                               
000294f1  ti_sysbios_hal_Hwi_enableInterrupt__E                                
00026571  ti_sysbios_hal_Hwi_getStackInfo__E                                   
00028021  ti_sysbios_hal_Hwi_initStack                                         
0002a491  ti_sysbios_hal_Hwi_startup__E                                        
0002a411  ti_sysbios_hal_Hwi_switchFromBootStack__E                            
0002b370  ti_sysbios_heaps_HeapBuf_Instance_State_freeList__O                  
08021c0c  ti_sysbios_heaps_HeapBuf_Module__state__V                            
0001b391  ti_sysbios_heaps_HeapBuf_Module_startup__E                           
0002b374  ti_sysbios_heaps_HeapBuf_Object__count__C                            
0002a321  ti_sysbios_heaps_HeapBuf_Object__get__S                              
0002b378  ti_sysbios_heaps_HeapBuf_numConstructedHeaps__C                      
0002b37c  ti_sysbios_heaps_HeapMem_A_align__C                                  
0002b380  ti_sysbios_heaps_HeapMem_A_heapSize__C                               
0002b384  ti_sysbios_heaps_HeapMem_A_invalidFree__C                            
0002b388  ti_sysbios_heaps_HeapMem_A_zeroBlock__C                              
0002b38c  ti_sysbios_heaps_HeapMem_E_memory__C                                 
00029dad  ti_sysbios_heaps_HeapMem_Handle__label__S                            
08000000  ti_sysbios_heaps_HeapMem_Instance_State_0_buf__A                     
00016b21  ti_sysbios_heaps_HeapMem_Instance_init__E                            
00029d95  ti_sysbios_heaps_HeapMem_Module_GateProxy_Handle__label__S           
0002847d  ti_sysbios_heaps_HeapMem_Module_GateProxy_enter__E                   
000298cd  ti_sysbios_heaps_HeapMem_Module_GateProxy_leave__E                   
0002a4f1  ti_sysbios_heaps_HeapMem_Module_GateProxy_query__E                   
0002af5c  ti_sysbios_heaps_HeapMem_Module__FXNS__C                             
0002b390  ti_sysbios_heaps_HeapMem_Module__diagsEnabled__C                     
0002b394  ti_sysbios_heaps_HeapMem_Module__diagsIncluded__C                    
0002b398  ti_sysbios_heaps_HeapMem_Module__diagsMask__C                        
0002b39c  ti_sysbios_heaps_HeapMem_Module__gateObj__C                          
0002b574  ti_sysbios_heaps_HeapMem_Module__id__C                               
08021b78  ti_sysbios_heaps_HeapMem_Module__root__V                             
0002b100  ti_sysbios_heaps_HeapMem_Object__DESC__C                             
0002b018  ti_sysbios_heaps_HeapMem_Object__PARAMS__C                           
0002b3a0  ti_sysbios_heaps_HeapMem_Object__count__C                            
00028361  ti_sysbios_heaps_HeapMem_Object__create__S                           
00029531  ti_sysbios_heaps_HeapMem_Object__delete__S                           
0002a0e5  ti_sysbios_heaps_HeapMem_Object__get__S                              
08021a50  ti_sysbios_heaps_HeapMem_Object__table__V                            
0000fe51  ti_sysbios_heaps_HeapMem_allocUnprotected__E                         
00024ee1  ti_sysbios_heaps_HeapMem_alloc__E                                    
0000d7f1  ti_sysbios_heaps_HeapMem_freeUnprotected__E                          
00028391  ti_sysbios_heaps_HeapMem_free__E                                     
00025e41  ti_sysbios_heaps_HeapMem_getStats__E                                 
00027951  ti_sysbios_heaps_HeapMem_init__I                                     
0002a4b1  ti_sysbios_heaps_HeapMem_isBlocking__E                               
0002b3a4  ti_sysbios_heaps_HeapMem_reqAlign__C                                 
0002b3a8  ti_sysbios_knl_Clock_LM_begin__C                                     
0002b3ac  ti_sysbios_knl_Clock_LM_tick__C                                      
0002b3b0  ti_sysbios_knl_Clock_LW_delayed__C                                   
0002b3b4  ti_sysbios_knl_Clock_Module_State_clockQ__O                          
0002b3b8  ti_sysbios_knl_Clock_Module__diagsEnabled__C                         
0002b3bc  ti_sysbios_knl_Clock_Module__diagsIncluded__C                        
0002b3c0  ti_sysbios_knl_Clock_Module__diagsMask__C                            
0002b576  ti_sysbios_knl_Clock_Module__id__C                                   
0002b578  ti_sysbios_knl_Clock_Module__loggerDefined__C                        
0002b3c4  ti_sysbios_knl_Clock_Module__loggerFxn1__C                           
0002b3c8  ti_sysbios_knl_Clock_Module__loggerFxn2__C                           
0002b3cc  ti_sysbios_knl_Clock_Module__loggerObj__C                            
08021820  ti_sysbios_knl_Clock_Module__state__V                                
00029231  ti_sysbios_knl_Clock_Module_startup__E                               
08021928  ti_sysbios_knl_Clock_Object__table__V                                
00029e19  ti_sysbios_knl_Clock_TimerProxy_Module__startupDone__S               
000298ed  ti_sysbios_knl_Clock_TimerProxy_getMaxTicks__E                       
0001ddf1  ti_sysbios_knl_Clock_TimerProxy_startup__E                           
0002879d  ti_sysbios_knl_Clock_doTick__I                                       
00024bb1  ti_sysbios_knl_Clock_logTick__E                                      
00016ee1  ti_sysbios_knl_Clock_workFunc__E                                     
0002b29c  ti_sysbios_knl_Idle_funcList__A                                      
0002b2a8  ti_sysbios_knl_Idle_funcList__C                                      
00029ef1  ti_sysbios_knl_Idle_loop__E                                          
00028bb1  ti_sysbios_knl_Idle_run__E                                           
0001caf4  ti_sysbios_knl_Intrinsics_SupportProxy_maxbit__E                     
0001caf4  ti_sysbios_knl_Intrinsics_maxbit__E                                  
0002a4c1  ti_sysbios_knl_Queue_Instance_init__E                                
08021b80  ti_sysbios_knl_Queue_Module__root__V                                 
0002b120  ti_sysbios_knl_Queue_Object__DESC__C                                 
0002b1d0  ti_sysbios_knl_Queue_Object__PARAMS__C                               
0001f1e5  ti_sysbios_knl_Queue_Object__get__S                                  
000287c9  ti_sysbios_knl_Queue_construct                                       
0002990d  ti_sysbios_knl_Queue_destruct                                        
0002a3d1  ti_sysbios_knl_Queue_empty__E                                        
0002b3d0  ti_sysbios_knl_Semaphore_A_badContext__C                             
0002b3d4  ti_sysbios_knl_Semaphore_A_noEvents__C                               
0002b3d8  ti_sysbios_knl_Semaphore_A_overflow__C                               
0002b3dc  ti_sysbios_knl_Semaphore_A_pendTaskDisabled__C                       
0002b3e0  ti_sysbios_knl_Semaphore_Instance_State_pendQ__O                     
0002a331  ti_sysbios_knl_Semaphore_Instance_finalize__E                        
00020851  ti_sysbios_knl_Semaphore_Instance_init__E                            
0002b3e4  ti_sysbios_knl_Semaphore_LM_pend__C                                  
0002b3e8  ti_sysbios_knl_Semaphore_LM_post__C                                  
0002b3ec  ti_sysbios_knl_Semaphore_Module__diagsEnabled__C                     
0002b3f0  ti_sysbios_knl_Semaphore_Module__diagsIncluded__C                    
0002b3f4  ti_sysbios_knl_Semaphore_Module__diagsMask__C                        
0002b57a  ti_sysbios_knl_Semaphore_Module__id__C                               
0002b57c  ti_sysbios_knl_Semaphore_Module__loggerDefined__C                    
0002b3f8  ti_sysbios_knl_Semaphore_Module__loggerFxn2__C                       
0002b3fc  ti_sysbios_knl_Semaphore_Module__loggerFxn4__C                       
0002b400  ti_sysbios_knl_Semaphore_Module__loggerObj__C                        
08021b88  ti_sysbios_knl_Semaphore_Module__root__V                             
0002b140  ti_sysbios_knl_Semaphore_Object__DESC__C                             
0002b03c  ti_sysbios_knl_Semaphore_Object__PARAMS__C                           
00029255  ti_sysbios_knl_Semaphore_Object__delete__S                           
00029dc5  ti_sysbios_knl_Semaphore_Params__init__S                             
000283c1  ti_sysbios_knl_Semaphore_construct                                   
00027ee5  ti_sysbios_knl_Semaphore_create                                      
0002994d  ti_sysbios_knl_Semaphore_delete                                      
00029551  ti_sysbios_knl_Semaphore_destruct                                    
00028481  ti_sysbios_knl_Semaphore_pendTimeout__I                              
0000c441  ti_sysbios_knl_Semaphore_pend__E                                     
00015461  ti_sysbios_knl_Semaphore_post__E                                     
0002b404  ti_sysbios_knl_Task_A_badPriority__C                                 
0002b408  ti_sysbios_knl_Task_A_badTaskState__C                                
0002b40c  ti_sysbios_knl_Task_A_badThreadType__C                               
0002b410  ti_sysbios_knl_Task_A_badTimeout__C                                  
0002b414  ti_sysbios_knl_Task_A_noPendElem__C                                  
0002b418  ti_sysbios_knl_Task_A_sleepTaskDisabled__C                           
0002b41c  ti_sysbios_knl_Task_E_spOutOfBounds__C                               
0002b420  ti_sysbios_knl_Task_E_stackOverflow__C                               
080208b0  ti_sysbios_knl_Task_Instance_State_0_hookEnv__A                      
0801fe60  ti_sysbios_knl_Task_Instance_State_0_stack__A                        
0000ca21  ti_sysbios_knl_Task_Instance_finalize__E                             
00011121  ti_sysbios_knl_Task_Instance_init__E                                 
0002b424  ti_sysbios_knl_Task_LD_block__C                                      
0002b428  ti_sysbios_knl_Task_LD_exit__C                                       
0002b42c  ti_sysbios_knl_Task_LD_ready__C                                      
0002b430  ti_sysbios_knl_Task_LM_sleep__C                                      
0002b434  ti_sysbios_knl_Task_LM_switch__C                                     
08021c10  ti_sysbios_knl_Task_Module_State_0_idleTask__A                       
08021390  ti_sysbios_knl_Task_Module_State_0_readyQ__A                         
0002b438  ti_sysbios_knl_Task_Module_State_inactiveQ__O                        
0002b43c  ti_sysbios_knl_Task_Module__diagsEnabled__C                          
0002b440  ti_sysbios_knl_Task_Module__diagsIncluded__C                         
0002b444  ti_sysbios_knl_Task_Module__diagsMask__C                             
0002b57e  ti_sysbios_knl_Task_Module__id__C                                    
0002b580  ti_sysbios_knl_Task_Module__loggerDefined__C                         
0002b448  ti_sysbios_knl_Task_Module__loggerFxn2__C                            
0002b44c  ti_sysbios_knl_Task_Module__loggerFxn4__C                            
0002b450  ti_sysbios_knl_Task_Module__loggerObj__C                             
08021b1c  ti_sysbios_knl_Task_Module__root__V                                  
08021654  ti_sysbios_knl_Task_Module__state__V                                 
0001f1f1  ti_sysbios_knl_Task_Module_startup__E                                
0002b160  ti_sysbios_knl_Task_Object__DESC__C                                  
0002ada0  ti_sysbios_knl_Task_Object__PARAMS__C                                
0002b454  ti_sysbios_knl_Task_Object__count__C                                 
0002a341  ti_sysbios_knl_Task_Object__get__S                                   
0002b458  ti_sysbios_knl_Task_Object__heap__C                                  
08021500  ti_sysbios_knl_Task_Object__table__V                                 
00029ddd  ti_sysbios_knl_Task_Params__init__S                                  
0002665d  ti_sysbios_knl_Task_SupportProxy_Module__startupDone__S              
0002a3e1  ti_sysbios_knl_Task_SupportProxy_checkStack__E                       
0002a3f1  ti_sysbios_knl_Task_SupportProxy_getStackAlignment__E                
00029451  ti_sysbios_knl_Task_SupportProxy_stackUsed__E                        
000282d1  ti_sysbios_knl_Task_SupportProxy_start__E                            
0002985c  ti_sysbios_knl_Task_SupportProxy_swap__E                             
0002b45c  ti_sysbios_knl_Task_allBlockedFunc__C                                
00026db1  ti_sysbios_knl_Task_allBlockedFunction__I                            
00020221  ti_sysbios_knl_Task_blockI__E                                        
0001d241  ti_sysbios_knl_Task_checkStacks__E                                   
000265bd  ti_sysbios_knl_Task_create                                           
0002b460  ti_sysbios_knl_Task_defaultStackHeap__C                              
0002b464  ti_sysbios_knl_Task_defaultStackSize__C                              
0002a351  ti_sysbios_knl_Task_disable__E                                       
00029e01  ti_sysbios_knl_Task_enter__I                                         
0001a901  ti_sysbios_knl_Task_exit__E                                          
0002b1e8  ti_sysbios_knl_Task_hooks__A                                         
0002b2b0  ti_sysbios_knl_Task_hooks__C                                         
0002b468  ti_sysbios_knl_Task_numConstructedTasks__C                           
00015e31  ti_sysbios_knl_Task_postInit__I                                      
00029931  ti_sysbios_knl_Task_restoreHwi__E                                    
000194c1  ti_sysbios_knl_Task_schedule__I                                      
00029f51  ti_sysbios_knl_Task_sleepTimeout__I                                  
00010d11  ti_sysbios_knl_Task_sleep__E                                         
0001b0c1  ti_sysbios_knl_Task_startCore__E                                     
0002a501  ti_sysbios_knl_Task_startup__E                                       
00026611  ti_sysbios_knl_Task_stat__E                                          
00021801  ti_sysbios_knl_Task_unblockI__E                                      
0002b46c  ti_sysbios_timers_rti_Timer_E_cannotSupport__C                       
08021a68  ti_sysbios_timers_rti_Timer_Module_State_0_device__A                 
08021b90  ti_sysbios_timers_rti_Timer_Module_State_0_handles__A                
08021ad8  ti_sysbios_timers_rti_Timer_Module_State_0_intFreqs__A               
0002b470  ti_sysbios_timers_rti_Timer_Module__diagsEnabled__C                  
0002b474  ti_sysbios_timers_rti_Timer_Module__diagsIncluded__C                 
0002b478  ti_sysbios_timers_rti_Timer_Module__diagsMask__C                     
0002b582  ti_sysbios_timers_rti_Timer_Module__id__C                            
00029e19  ti_sysbios_timers_rti_Timer_Module__startupDone__F                   
00029e19  ti_sysbios_timers_rti_Timer_Module__startupDone__S                   
08021ae8  ti_sysbios_timers_rti_Timer_Module__state__V                         
00010081  ti_sysbios_timers_rti_Timer_Module_startup__E                        
0802171c  ti_sysbios_timers_rti_Timer_Object__table__V                         
0002b584  ti_sysbios_timers_rti_Timer_continueOnSuspend__C                     
00019e11  ti_sysbios_timers_rti_Timer_getFreq__E                               
0002a511  ti_sysbios_timers_rti_Timer_getMaxTicks__E                           
00022a11  ti_sysbios_timers_rti_Timer_initDevice__I                            
0002b47c  ti_sysbios_timers_rti_Timer_numTimerDevices__C                       
00028801  ti_sysbios_timers_rti_Timer_periodicStub__E                          
0002b480  ti_sysbios_timers_rti_Timer_startupNeeded__C                         
0001ddf1  ti_sysbios_timers_rti_Timer_startup__E                               
000271e1  ti_sysbios_timers_rti_Timer_stop__E                                  
0002b484  ti_sysbios_utils_Load_LS_cpuLoad__C                                  
0002b488  ti_sysbios_utils_Load_LS_taskLoad__C                                 
08021c14  ti_sysbios_utils_Load_Module_State_0_runningTask__A                  
080219a4  ti_sysbios_utils_Load_Module_State_0_taskEnv__A                      
08021c18  ti_sysbios_utils_Load_Module_State_0_taskStartTime__A                
0002b48c  ti_sysbios_utils_Load_Module_State_taskList__O                       
0002b490  ti_sysbios_utils_Load_Module__diagsEnabled__C                        
0002b494  ti_sysbios_utils_Load_Module__diagsIncluded__C                       
0002b498  ti_sysbios_utils_Load_Module__diagsMask__C                           
0002b586  ti_sysbios_utils_Load_Module__id__C                                  
0002b588  ti_sysbios_utils_Load_Module__loggerDefined__C                       
0002b49c  ti_sysbios_utils_Load_Module__loggerFxn1__C                          
0002b4a0  ti_sysbios_utils_Load_Module__loggerFxn4__C                          
0002b4a4  ti_sysbios_utils_Load_Module__loggerObj__C                           
080212f8  ti_sysbios_utils_Load_Module__state__V                               
0002b58a  ti_sysbios_utils_Load_autoAddTasks__C                                
0002a421  ti_sysbios_utils_Load_getCPULoad__E                                  
0001cb01  ti_sysbios_utils_Load_idleFxn__E                                     
00024c21  ti_sysbios_utils_Load_logCPULoad__I                                  
0001c7b1  ti_sysbios_utils_Load_logLoads__I                                    
0002b4a8  ti_sysbios_utils_Load_postUpdate__C                                  
0001f2a1  ti_sysbios_utils_Load_startup__E                                     
0001b1b1  ti_sysbios_utils_Load_taskCreateHook__E                              
00020c81  ti_sysbios_utils_Load_taskDeleteHook__E                              
0002a431  ti_sysbios_utils_Load_taskRegHook__E                                 
00026661  ti_sysbios_utils_Load_taskSwitchHook__E                              
00025401  ti_sysbios_utils_Load_updateCurrentThreadTime__E                     
0002b58c  ti_sysbios_utils_Load_updateInIdle__C                                
0001edd1  ti_sysbios_utils_Load_updateLoads__E                                 
00018331  ti_sysbios_utils_Load_updateThreadContexts__E                        
0001edd1  ti_sysbios_utils_Load_update__E                                      
0002b4ac  ti_sysbios_utils_Load_windowInMs__C                                  
00028745  unlink                                                               
00022155  vsnprintf                                                            
0001d169  vsscanf                                                              
00028b81  write                                                                
000001d8  xWR6843_Disable_APLL                                                 
000003e4  xWR6843_Enable_APLL                                                  
000004a8  xWR6843_Powerdown_ANA                                                
00000ff8  xWR6843_Powerup_ANA                                                  
00000174  xWR6843_Trim_APLL_get                                                
00000108  xWR6843_Trim_APLL_set                                                
00001b80  xWR6843_dss_clock_gate                                               
00001bc8  xWR6843_dss_clock_ungate                                             
000019b8  xWR6843_dss_power_down                                               
00001aa8  xWR6843_dss_power_up                                                 
00001c64  xWR6843_mss_vclk_120M                                                
00001cb8  xWR6843_mss_vclk_200M                                                
00001c10  xWR6843_mss_vclk_40M                                                 
0002b4b0  xdc_runtime_Assert_E_assertFailed__C                                 
00024f41  xdc_runtime_Assert_raise__I                                          
0002b4b4  xdc_runtime_Core_A_initializedParams__C                              
0002b4b8  xdc_runtime_Core_Module__diagsEnabled__C                             
0002b4bc  xdc_runtime_Core_Module__diagsIncluded__C                            
0002b4c0  xdc_runtime_Core_Module__diagsMask__C                                
0002b58e  xdc_runtime_Core_Module__id__C                                       
00025ea1  xdc_runtime_Core_assignLabel__I                                      
00026791  xdc_runtime_Core_assignParams__I                                     
000195d1  xdc_runtime_Core_constructObject__I                                  
00016c61  xdc_runtime_Core_createObject__I                                     
00022f81  xdc_runtime_Core_deleteObject__I                                     
0002b4c4  xdc_runtime_Error_E_memory__C                                        
08021948  xdc_runtime_Error_IgnoreBlock                                        
0002b4c8  xdc_runtime_Error_Module__diagsEnabled__C                            
0002b4cc  xdc_runtime_Error_Module__diagsIncluded__C                           
0002b4d0  xdc_runtime_Error_Module__diagsMask__C                               
0002b590  xdc_runtime_Error_Module__loggerDefined__C                           
0002b4d4  xdc_runtime_Error_Module__loggerFxn8__C                              
0002b4d8  xdc_runtime_Error_Module__loggerObj__C                               
08021c20  xdc_runtime_Error_Module__state__V                                   
00029e31  xdc_runtime_Error_init__E                                            
0002b592  xdc_runtime_Error_maxDepth__C                                        
00013a61  xdc_runtime_Error_policyDefault__E                                   
0002b4dc  xdc_runtime_Error_policyFxn__C                                       
0002b4e0  xdc_runtime_Error_policy__C                                          
00023c71  xdc_runtime_Error_print__E                                           
0002b4e4  xdc_runtime_Error_raiseHook__C                                       
0002b4e8  xdc_runtime_IFilterLogger_Interface__BASE__C                         
0002b4ec  xdc_runtime_IGateProvider_Interface__BASE__C                         
0002b4f0  xdc_runtime_IHeap_Interface__BASE__C                                 
0002b4f4  xdc_runtime_ILogger_Interface__BASE__C                               
0002b4f8  xdc_runtime_IModule_Interface__BASE__C                               
0002b4fc  xdc_runtime_Log_L_error__C                                           
0002b500  xdc_runtime_LoggerBuf_E_badLevel__C                                  
00029e49  xdc_runtime_LoggerBuf_Handle__label__S                               
0801c400  xdc_runtime_LoggerBuf_Instance_State_0_entryArr__A                   
00029951  xdc_runtime_LoggerBuf_Instance_finalize__E                           
0001cbd1  xdc_runtime_LoggerBuf_Instance_init__E                               
00029d7d  xdc_runtime_LoggerBuf_Module_GateProxy_Handle__label__S              
0002a3c9  xdc_runtime_LoggerBuf_Module_GateProxy_enter__E                      
0002a3cd  xdc_runtime_LoggerBuf_Module_GateProxy_leave__E                      
0002a4e1  xdc_runtime_LoggerBuf_Module_GateProxy_query__E                      
0002ae60  xdc_runtime_LoggerBuf_Module__FXNS__C                                
0002b504  xdc_runtime_LoggerBuf_Module__gateObj__C                             
0002b594  xdc_runtime_LoggerBuf_Module__id__C                                  
08021b98  xdc_runtime_LoggerBuf_Module__root__V                                
08021bb8  xdc_runtime_LoggerBuf_Module__state__V                               
00026e01  xdc_runtime_LoggerBuf_Module_startup__E                              
0002b180  xdc_runtime_LoggerBuf_Object__DESC__C                                
0002af84  xdc_runtime_LoggerBuf_Object__PARAMS__C                              
0002b508  xdc_runtime_LoggerBuf_Object__count__C                               
00026a25  xdc_runtime_LoggerBuf_Object__create__S                              
00029571  xdc_runtime_LoggerBuf_Object__delete__S                              
0002a0f9  xdc_runtime_LoggerBuf_Object__get__S                                 
080218e0  xdc_runtime_LoggerBuf_Object__table__V                               
0002a27b  xdc_runtime_LoggerBuf_TimestampProxy_get32__E                        
00027eb1  xdc_runtime_LoggerBuf_TimestampProxy_get64__E                        
0002a281  xdc_runtime_LoggerBuf_TimestampProxy_getFreq__E                      
0002a461  xdc_runtime_LoggerBuf_disable__E                                     
0002a471  xdc_runtime_LoggerBuf_enable__E                                      
0002b596  xdc_runtime_LoggerBuf_filterByLevel__C                               
00021891  xdc_runtime_LoggerBuf_getFilterLevel__E                              
0001ea51  xdc_runtime_LoggerBuf_setFilterLevel__E                              
0002b50c  xdc_runtime_LoggerBuf_statusLogger__C                                
0002a361  xdc_runtime_LoggerBuf_write0__E                                      
0002a1b1  xdc_runtime_LoggerBuf_write1__E                                      
0002a1d1  xdc_runtime_LoggerBuf_write2__E                                      
000187d1  xdc_runtime_LoggerBuf_write4__E                                      
00014871  xdc_runtime_LoggerBuf_write8__E                                      
00029d7d  xdc_runtime_Main_Module_GateProxy_Handle__label__S                   
0002a4e1  xdc_runtime_Main_Module_GateProxy_query__E                           
0002b510  xdc_runtime_Main_Module__diagsEnabled__C                             
0002b514  xdc_runtime_Main_Module__diagsIncluded__C                            
0002b518  xdc_runtime_Main_Module__diagsMask__C                                
0002b598  xdc_runtime_Main_Module__id__C                                       
0002b59a  xdc_runtime_Main_Module__loggerDefined__C                            
0002b51c  xdc_runtime_Main_Module__loggerFxn1__C                               
0002b520  xdc_runtime_Main_Module__loggerFxn2__C                               
0002b524  xdc_runtime_Main_Module__loggerFxn4__C                               
0002b528  xdc_runtime_Main_Module__loggerObj__C                                
08021c22  xdc_runtime_Main_Module__root__V                                     
00029dad  xdc_runtime_Memory_HeapProxy_Handle__label__S                        
00029445  xdc_runtime_Memory_HeapProxy_alloc__E                                
00029df5  xdc_runtime_Memory_HeapProxy_free__E                                 
00029ee5  xdc_runtime_Memory_HeapProxy_getStats__E                             
0002b59c  xdc_runtime_Memory_Module__id__C                                     
08021c1c  xdc_runtime_Memory_Module__state__V                                  
00021f31  xdc_runtime_Memory_alloc__E                                          
0002b52c  xdc_runtime_Memory_defaultHeapInstance__C                            
0002a371  xdc_runtime_Memory_free__E                                           
0002a381  xdc_runtime_Memory_getStats__E                                       
08021ba0  xdc_runtime_Registry_Module__state__V                                
08021ba8  xdc_runtime_Startup_Module__state__V                                 
00000001  xdc_runtime_Startup__EXECFXN__C                                      
00000001  xdc_runtime_Startup__RESETFXN__C                                     
0002b530  xdc_runtime_Startup_execImpl__C                                      
00024c91  xdc_runtime_Startup_exec__E                                          
0002a1e3  xdc_runtime_Startup_exec__I                                          
0002b2b8  xdc_runtime_Startup_firstFxns__A                                     
0002b2c0  xdc_runtime_Startup_firstFxns__C                                     
0002b2c8  xdc_runtime_Startup_lastFxns__C                                      
0002b534  xdc_runtime_Startup_maxPasses__C                                     
0001aaf7  xdc_runtime_Startup_reset__I                                         
0002a441  xdc_runtime_Startup_rtsDone__E                                       
0002b200  xdc_runtime_Startup_sfxnRts__A                                       
0002b538  xdc_runtime_Startup_sfxnRts__C                                       
0002af04  xdc_runtime_Startup_sfxnTab__A                                       
0002b53c  xdc_runtime_Startup_sfxnTab__C                                       
00017761  xdc_runtime_Startup_startMods__I                                     
00028be1  xdc_runtime_SysStd_abort__E                                          
0002a451  xdc_runtime_SysStd_exit__E                                           
0002a521  xdc_runtime_SysStd_putch__E                                          
0002a531  xdc_runtime_SysStd_ready__E                                          
00029d7d  xdc_runtime_System_Module_GateProxy_Handle__label__S                 
0002a3ed  xdc_runtime_System_Module_GateProxy_enter__E                         
0002a3fd  xdc_runtime_System_Module_GateProxy_leave__E                         
0002a4e1  xdc_runtime_System_Module_GateProxy_query__E                         
08021968  xdc_runtime_System_Module_State_0_atexitHandlers__A                  
0002b540  xdc_runtime_System_Module__gateObj__C                                
08021bb0  xdc_runtime_System_Module__state__V                                  
0002a4d1  xdc_runtime_System_Module_startup__E                                 
00028be1  xdc_runtime_System_SupportProxy_abort__E                             
0002a451  xdc_runtime_System_SupportProxy_exit__E                              
0002a521  xdc_runtime_System_SupportProxy_putch__E                             
0002a531  xdc_runtime_System_SupportProxy_ready__E                             
0002b544  xdc_runtime_System_abortFxn__C                                       
0002617d  xdc_runtime_System_abortStd__E                                       
00029ad9  xdc_runtime_System_aprintf__E                                        
00028c11  xdc_runtime_System_aprintf_va__F                                     
00026e51  xdc_runtime_System_atexit__E                                         
000077f1  xdc_runtime_System_doPrint__I                                        
0002b548  xdc_runtime_System_exitFxn__C                                        
00026185  xdc_runtime_System_exitStd__E                                        
00026221  xdc_runtime_System_exit__E                                           
0002b54c  xdc_runtime_System_extendFxn__C                                      
0002b550  xdc_runtime_System_maxAtexitHandlers__C                              
0001ace9  xdc_runtime_System_printfExtend__I                                   
00029af3  xdc_runtime_System_printf__E                                         
00028ec1  xdc_runtime_System_printf_va__F                                      
0002b59e  xdc_runtime_Text_charCnt__C                                          
0002aa69  xdc_runtime_Text_charTab__A                                          
0002b554  xdc_runtime_Text_charTab__C                                          
0002b5a0  xdc_runtime_Text_isLoaded__C                                         
0002b558  xdc_runtime_Text_nameEmpty__C                                        
0002b55c  xdc_runtime_Text_nameStatic__C                                       
0002b560  xdc_runtime_Text_nameUnknown__C                                      
000283f1  xdc_runtime_Text_printVisFxn__I                                      
00024fa1  xdc_runtime_Text_putLab__E                                           
0001ee81  xdc_runtime_Text_putMod__E                                           
0001fdb1  xdc_runtime_Text_putSite__E                                          
0002b5a2  xdc_runtime_Text_registryModsLastId__C                               
0002b5a4  xdc_runtime_Text_unnamedModsLastId__C                                
0002b564  xdc_runtime_Text_visitRopeFxn__C                                     
00026219  xdc_runtime_Text_visitRope__I                                        
000267e1  xdc_runtime_Text_xprintf__I                                          
0002a27b  xdc_runtime_Timestamp_SupportProxy_get32__E                          
00027eb1  xdc_runtime_Timestamp_SupportProxy_get64__E                          
0002a281  xdc_runtime_Timestamp_SupportProxy_getFreq__E                        
0002a27b  xdc_runtime_Timestamp_get32__E                                       
00027eb1  xdc_runtime_Timestamp_get64__E                                       
0002a281  xdc_runtime_Timestamp_getFreq__E                                     


GLOBAL SYMBOLS: SORTED BY Symbol Address 

address   name                                                                 
-------   ----                                                                 
00000000  __ASM__                                                              
00000000  ti_sysbios_family_arm_v7r_vim_Hwi_vectors                            
00000001  xdc_runtime_Startup__EXECFXN__C                                      
00000001  xdc_runtime_Startup__RESETFXN__C                                     
00000067  __ISA__                                                              
00000079  __PLAT__                                                             
0000009d  __TARG__                                                             
000000c4  __TRDR__                                                             
00000100  GET_ANA_BASE_ADDRESS                                                 
00000108  xWR6843_Trim_APLL_set                                                
00000174  xWR6843_Trim_APLL_get                                                
000001d8  xWR6843_Disable_APLL                                                 
000003e4  xWR6843_Enable_APLL                                                  
000004a8  xWR6843_Powerdown_ANA                                                
000004b0  __STACK_SIZE                                                         
00000ff8  xWR6843_Powerup_ANA                                                  
000019b8  xWR6843_dss_power_down                                               
00001aa8  xWR6843_dss_power_up                                                 
00001b80  xWR6843_dss_clock_gate                                               
00001bc8  xWR6843_dss_clock_ungate                                             
00001c10  xWR6843_mss_vclk_40M                                                 
00001c64  xWR6843_mss_vclk_120M                                                
00001cb8  xWR6843_mss_vclk_200M                                                
000025fd  __TI_printfi                                                         
00002eb3  ADCBUF_MMWave_init                                                   
00002eb5  MmwDemo_CLIInit                                                      
00003aed  __TI_scanfi                                                          
00004a95  DPU_DopplerProcHWA_config                                            
00005105  HWA_configParamSet                                                   
0000575d  __kernel_rem_pio2                                                    
000062e1  MmwDemo_dataPathConfig                                               
00006863  HWA_init                                                             
00006865  DPU_RangeProcHWA_process                                             
00006dc9  MmwDemo_initTask                                                     
000077f1  xdc_runtime_System_doPrint__I                                        
00007cd5  ADCBUF_MMWave_control                                                
00008e81  DPU_RangeProcHWA_config                                              
000092bd  MmwDemo_transmitProcessedOutput                                      
00009f0d  cos                                                                  
00009f0d  cosl                                                                 
0000a301  sin                                                                  
0000a301  sinl                                                                 
0000aa85  MmwDemo_openSensor                                                   
0000adfd  DPU_AoAProcHWA_process                                               
0000bb29  SOC_deviceInit                                                       
0000c141  CBUFF_createSession                                                  
0000c441  ti_sysbios_knl_Semaphore_pend__E                                     
0000ca21  ti_sysbios_knl_Task_Instance_finalize__E                             
0000cced  HWA_configCommon                                                     
0000cfb1  idle_power_cycle                                                     
0000d530  __aeabi_uldivmod                                                     
0000d7f1  ti_sysbios_heaps_HeapMem_freeUnprotected__E                          
0000dd2d  MMWave_deviceExecuteFxn                                              
0000dfb1  HSIHeader_createHeader                                               
0000e231  MmwDemo_LVDSStreamHwConfig                                           
0000e4b1  ti_sysbios_family_arm_exc_Exception_excDumpContext__I                
0000e731  QSPIFlash_open                                                       
0000ec05  CBUFF_init                                                           
0000ee69  MmwDemo_checkEdmaErrors                                              
0000f0cd  Mailbox_open                                                         
0000f581  MmwDemo_sensorStopEpilog                                             
0000f7c9  CBUFF_openLVDS                                                       
0000f9f5  MmwDemo_eventCallbackFxn                                             
0000fe4d  EDMA_getNumInstances                                                 
0000fe51  ti_sysbios_heaps_HeapMem_allocUnprotected__E                         
00010081  ti_sysbios_timers_rti_Timer_Module_startup__E                        
000104c5  AoAProcHWA_XYZestimation                                             
00010aff  QSPIFlash_init                                                       
00010d05  EDMA3ChannelToParamMap                                               
00010d11  ti_sysbios_knl_Task_sleep__E                                         
00010f15  CRC_open                                                             
00011115  EDMAsetRegion                                                        
00011121  ti_sysbios_knl_Task_Instance_init__E                                 
0001151b  QSPI_init                                                            
0001151d  DMA_setChannelParams                                                 
0001170d  strtod                                                               
0001170d  strtold                                                              
000118f1  strtoll                                                              
00011cb5  DPU_AoAProcHWA_config                                                
00011e91  CBUFF_configEDMA                                                     
00012065  idle_power_down                                                      
00012411  ti_sysbios_family_arm_v7r_vim_Hwi_dispatchIRQC__I                    
000125dd  CBUFF_initLVDS                                                       
000127a5  rlDriverRxHdrRead                                                    
00012a37  __TI_cleanup                                                         
00012a63  freopen                                                              
00012a8d  fopen                                                                
00012b35  EDMA_open                                                            
0001305d  atan2                                                                
0001305d  atan2l                                                               
00013211  rlDriverMsgRead                                                      
000133c1  atan                                                                 
000133c1  atanl                                                                
00013569  CBUFF_activateSession                                                
00013a55  MMWave_osalMutexUnlock                                               
00013a61  xdc_runtime_Error_policyDefault__E                                   
00013bfd  MmwDemo_LVDSStreamSwConfig                                           
00013d95  MMWave_openLink                                                      
00013f29  rlDriverCmdInvoke                                                    
000140b9  DPU_StaticClutterProc_process                                        
000143d1  DPU_CFARCAProcHWA_process                                            
00014559  EDMA_configChannel                                                   
000146e1  HWA_open                                                             
00014871  xdc_runtime_LoggerBuf_write8__E                                      
00014cfb  __aeabi_idiv0                                                        
00014cfd  DPM_init                                                             
00014e7d  DPM_msgRecv                                                          
00014ffd  MmwDemo_LVDSStreamInit                                               
0001517d  MmwDemo_edmaOpen                                                     
000152f1  GPIO_setConfig                                                       
00015461  ti_sysbios_knl_Semaphore_post__E                                     
00015737  ADCBuf_control                                                       
00015741  ti_sysbios_family_arm_exc_Exception_excHandler__I                    
000158a9  strtoull                                                             
00015a0d  QSPI_open                                                            
00015b6d  HwiP_disableInterrupt                                                
00015b71  ti_sysbios_family_arm_v7r_vim_Hwi_reconfig__E                        
00015e29  HwiP_disable                                                         
00015e31  ti_sysbios_knl_Task_postInit__I                                      
0001636d  MmwDemo_LVDSStreamDeleteHwSession                                    
00016603  DPU_StaticClutterProc_configEdma                                     
0001674b  ti_sysbios_BIOS_nullFunc__I                                          
0001674d  HSIHeader_init                                                       
00016895  rlDriverCmdSendRetry                                                 
00016b21  ti_sysbios_heaps_HeapMem_Instance_init__E                            
00016c61  xdc_runtime_Core_createObject__I                                     
00016da1  MmwDemo_LVDSStreamDeleteSwSession                                    
00016edd  HwiP_enableInterrupt                                                 
00016ee1  ti_sysbios_knl_Clock_workFunc__E                                     
0001728d  MmwDemo_startSensor                                                  
000173c5  ADCBUF_MMWave_open                                                   
000174f9  CFARHWA_cfarRange_AND_cfarDoppler                                    
0001762d  DPU_CFARCAProcHWA_config                                             
00017761  xdc_runtime_Startup_startMods__I                                     
000179c5  MmwDemo_LVDSStream_EDMAInit                                          
00017af5  MmwDemo_transferLVDSUserData                                         
00017c25  strtol                                                               
00017d55  HWAutil_configCFAR                                                   
00017fad  AoAProcHWA_PrepareRangeAzimuthHeatmap                                
000180d5  MmwDemo_stopSensor                                                   
000181fd  mathUtils_genWindow                                                  
00018325  MMWave_osalSemSignal                                                 
00018331  ti_sysbios_utils_Load_updateThreadContexts__E                        
000186a1  EDMA_init                                                            
000187c5  UART_Params_init                                                     
000187d1  xdc_runtime_LoggerBuf_write4__E                                      
00018b21  main                                                                 
00018c39  MMWave_decodeErrorLevel                                              
00018c41  ti_sysbios_family_arm_v7r_vim_Hwi_Instance_init__E                   
00018d59  EDMA_configErrorMonitoring                                           
00018f7d  strtoul                                                              
0001908d  DPEDMA_configSyncAB                                                  
000193b1  MMWave_deviceInitFxn                                                 
000194c1  ti_sysbios_knl_Task_schedule__I                                      
000195d1  xdc_runtime_Core_constructObject__I                                  
000196dd  DMA_disableInterrupt                                                 
000197e5  Mailbox_write                                                        
000199f5  MmwDemo_MMWave_stop                                                  
00019afd  CBUFF_deinit                                                         
00019c01  DPEDMA_configSyncA_singleFrame                                       
00019d05  MMWave_startLink                                                     
00019e11  ti_sysbios_timers_rti_Timer_getFreq__E                               
0001a015  DMA_clearChannelInterruptFlag                                        
0001a115  rlDriverInit                                                         
0001a215  CBUFF_deleteSession                                                  
0001a311  CRC_computeSignature                                                 
0001a605  MmwDemo_ADCBufConfig                                                 
0001a7fd  MmwDemo_dataPathStart                                                
0001a8f9  MemoryP_getStats                                                     
0001a901  ti_sysbios_knl_Task_exit__E                                          
0001aaf7  xdc_runtime_Startup_reset__I                                         
0001abf1  rlDriverRdVerifyMsg                                                  
0001ace9  xdc_runtime_System_printfExtend__I                                   
0001ade1  DPU_AoAProcHWA_init                                                  
0001aed5  MmwDemo_configLVDSHwData                                             
0001afc9  SemaphoreP_Params_init                                               
0001afd1  ti_sysbios_family_arm_v7r_vim_Hwi_Module_startup__E                  
0001b0c1  ti_sysbios_knl_Task_startCore__E                                     
0001b1b1  ti_sysbios_utils_Load_taskCreateHook__E                              
0001b2a1  ldexp                                                                
0001b2a1  ldexpl                                                               
0001b2a1  scalbn                                                               
0001b2a1  scalbnl                                                              
0001b38d  MMWave_listGetHead                                                   
0001b391  ti_sysbios_heaps_HeapBuf_Module_startup__E                           
0001b47d  DPEDMAHWA_configTwoHotSignature                                      
0001b569  DPU_DopplerProcHWA_process                                           
0001b651  MmwDemo_platformInit                                                 
0001b739  rlRfCalibDataStore                                                   
0001b821  rlRfPhShiftCalibDataStore                                            
0001b9f1  rlRfPhShiftCalibDataRestore                                          
0001bbb9  CLI_open                                                             
0001bc99  DMA_enableInterrupt                                                  
0001bd79  DPU_CFARCAProcHWA_control                                            
0001be59  floor                                                                
0001be59  floorl                                                               
0001bf39  MMWave_init                                                          
0001c0f1  rlDriverMsgCmdReply                                                  
0001c1cd  setvbuf                                                              
0001c2a9  MmwDemo_isAllCfgInNonPendingState                                    
0001c381  DPU_DopplerProcHWA_init                                              
0001c455  Mailbox_read                                                         
0001c529  MmwDemo_isAllCfgInPendingState                                       
0001c6d1  rlSetMultiBpmChirpConfig                                             
0001c7a5  UartSci_isDMAEnabled                                                 
0001c7b1  ti_sysbios_utils_Load_logLoads__I                                    
0001c885  DPU_RangeProcHWA_control                                             
0001c955  SOC_controlSecureFirewall                                            
0001ca24  ti_sysbios_family_arm_exc_Exception_excHandlerAsm__I                 
0001ca8c  ti_sysbios_family_arm_exc_Exception_excHandlerDataAsm__I             
0001caf4  ti_sysbios_family_arm_IntrinsicsSupport_maxbitA__I                   
0001caf4  ti_sysbios_family_arm_IntrinsicsSupport_maxbit__E                    
0001caf4  ti_sysbios_knl_Intrinsics_SupportProxy_maxbit__E                     
0001caf4  ti_sysbios_knl_Intrinsics_maxbit__E                                  
0001cb01  ti_sysbios_utils_Load_idleFxn__E                                     
0001cbd1  xdc_runtime_LoggerBuf_Instance_init__E                               
0001cca1  HWA_enableParamSetInterrupt                                          
0001ce39  MmwDemo_measurementResultOutput                                      
0001cf05  rlRfCalibDataRestore                                                 
0001cfd1  rlSetChirpConfig                                                     
0001d09d  __TI_doflush                                                         
0001d0e9  fflush                                                               
0001d169  vsscanf                                                              
0001d17b  sscanf                                                               
0001d235  __TI_zero_init                                                       
0001d241  ti_sysbios_knl_Task_checkStacks__E                                   
0001d30d  DPEDMAHWA_configOneHotSignature                                      
0001d3d9  MMWave_addChirp                                                      
0001d4a1  MMWave_configBPM                                                     
0001d569  MMWave_flushCfg                                                      
0001d631  MMWave_getChirpHandle                                                
0001d6f9  SOC_ungateClock                                                      
0001d7c1  rlSetFrameConfig                                                     
0001d889  CBUFF_setupNonInterleaved_CP_ADC_CQ                                  
0001d94d  DPM_deinit                                                           
0001da11  DPM_ioctl                                                            
0001dad5  rlDriverGetPlatformId                                                
0001dae1  ti_sysbios_family_arm_v7a_Pmu_configureCounter__E                    
0001dba5  DPU_RangeProcHWA_init                                                
0001dd25  rlDriverMsgWrite                                                     
0001dde4  ti_sysbios_family_arm_v7a_Pmu_configureCounterI__I                   
0001ddf1  ti_sysbios_knl_Clock_TimerProxy_startup__E                           
0001ddf1  ti_sysbios_timers_rti_Timer_startup__E                               
0001e0e9  GPIO_write                                                           
0001e261  open                                                                 
0001e31d  MmwDemo_edmaInit                                                     
0001e491  CBUFF_setupTransfer                                                  
0001e549  DMA_getChannelInterruptFlag                                          
0001e6b9  __kernel_cos                                                         
0001e771  SOC_MPUEnable                                                        
0001e78f  SOC_MPUDisable                                                       
0001e7ad  SOC_MPUEnableBackgroundRegion                                        
0001e7c3  SOC_MPUDisableBackgroundRegion                                       
0001e7d9  SOC_MPUGetNumberOfRegions                                            
0001e7e3  SOC_MPUAreRegionsSeparate                                            
0001e7eb  SOC_MPUSetRegion                                                     
0001e7f1  SOC_MPUGetRegion                                                     
0001e7f7  SOC_MPUSetRegionBaseAddress                                          
0001e7fd  SOC_MPUGetRegionBaseAddress                                          
0001e803  SOC_MPUSetRegionTypeAndPermission                                    
0001e80d  SOC_MPUGetRegionType                                                 
0001e817  SOC_MPUGetRegionPermission                                           
0001e821  SOC_MPUSetRegionSizeRegister                                         
0001e829  EDMA_startTransfer                                                   
0001e991  ti_sysbios_gates_GateMutex_enter__E                                  
0001ea44  ti_sysbios_family_arm_v7a_Pmu_getCountI__E                           
0001ea51  xdc_runtime_LoggerBuf_setFilterLevel__E                              
0001eb05  UartSci_openDMA                                                      
0001ebb9  CBUFF_deactivateSession                                              
0001ec69  MMWave_addProfile                                                    
0001ed19  rlSetProfileConfig                                                   
0001edd1  ti_sysbios_utils_Load_updateLoads__E                                 
0001edd1  ti_sysbios_utils_Load_update__E                                      
0001ee81  xdc_runtime_Text_putMod__E                                           
0001ef31  __TI_wrt_ok                                                          
0001ef95  __TI_rd_ok                                                           
0001efe1  AoAProcHWA_ConvertFov                                                
0001f139  ESM_processInterrupt                                                 
0001f1e5  ti_sysbios_knl_Queue_Object__get__S                                  
0001f1f1  ti_sysbios_knl_Task_Module_startup__E                                
0001f29d  MMWave_listGetNext                                                   
0001f2a1  ti_sysbios_utils_Load_startup__E                                     
0001f34d  ADCBUF_MMWave_getChanBufAddr                                         
0001f3f5  CLI_MMWaveExtensionHelp                                              
0001f49d  EDMA3Init                                                            
0001f5ed  MMWave_getBpmChirpHandle                                             
0001f695  Pinmux_Set_OverrideCtrl                                              
0001f73d  SOC_deregisterSysIntListener                                         
0001f7e5  rlDriverWaitForResponse                                              
0001f88d  rlSetAdvFrameConfig                                                  
0001f935  DMA_assignChannel                                                    
0001f9d9  ESM_init                                                             
0001fa7d  MMWave_addBpmChirp                                                   
0001fb21  MMWave_start                                                         
0001fbc5  QSPIFlash_mmapWrite                                                  
0001fd0d  __kernel_sin                                                         
0001fdb1  xdc_runtime_Text_putSite__E                                          
0001fef5  MmwDemo_CfgUpdate                                                    
0001ff95  QSPIFlash_configMmapRead                                             
000200d5  SOC_registerSysIntListener                                           
00020175  __TI_auto_init                                                       
00020215  ADCBuf_getChanBufAddr                                                
00020221  ti_sysbios_knl_Task_blockI__E                                        
000203fd  MMWave_configLink                                                    
00020499  MMWave_getProfileHandle                                              
0002066d  __aeabi_memcpy                                                       
0002066d  __aeabi_memcpy4                                                      
0002066d  __aeabi_memcpy8                                                      
0002066d  memcpy                                                               
00020709  rlDriverConstructOutMsg                                              
00020711  ti_sysbios_family_arm_v7r_vim_Hwi_initIntController__I               
000207b1  ti_sysbios_family_arm_v7r_vim_Hwi_mapChannel__I                      
00020851  ti_sysbios_knl_Semaphore_Instance_init__E                            
00020989  DPU_AoAProcHWA_control                                               
00020a21  MMWave_getChirpCfg                                                   
00020ab9  __TI_closefile                                                       
00020b1f  fclose                                                               
00020b51  fputc                                                                
00020b51  putc                                                                 
00020bd7  putchar                                                              
00020be8  ti_sysbios_family_xxx_Hwi_switchAndRunFunc                           
00020c34  ti_sysbios_family_xxx_Hwi_switchAndRunDispatchC                      
00020c81  ti_sysbios_utils_Load_taskDeleteHook__E                              
00020daf  HWA_configRam                                                        
00020edb  CBUFF_setupNonInterleaved_ADC                                        
0002112d  SOC_gateClock                                                        
000211c1  rlDriverDeInit                                                       
00021255  rlDriverMsgReadCmdCtx                                                
000212e9  rlDriverProcRdMsg                                                    
0002137c  ti_sysbios_family_arm_v7r_vim_Hwi_dispatchIRQ__I                     
00021411  GPIO_init                                                            
000214a1  Mailbox_close                                                        
00021651  UartSci_initiateTxDMA                                                
00021771  ti_sysbios_family_arm_v7a_Pmu_startCounter__E                        
00021801  ti_sysbios_knl_Task_unblockI__E                                      
00021891  xdc_runtime_LoggerBuf_getFilterLevel__E                              
00021921  AoAProcHWA_cfgAndTrigger_EDMA_2DFFT                                  
00021b55  SOC_init                                                             
00021be1  SOC_translateAddress                                                 
00021c6d  UartSci_initiateRxDMA                                                
00021cf9  rlDevicePowerOn                                                      
00021d85  rlDriverMsgReadSpawnCtx                                              
00021e11  ti_sysbios_family_arm_v7a_Pmu_getCount__E                            
00021ea1  ti_sysbios_family_arm_v7r_vim_Hwi_Instance_finalize__E               
00021f31  xdc_runtime_Memory_alloc__E                                          
00021fbd  HWA_disableParamSetInterrupt                                         
00022045  MMWave_getProfileCfg                                                 
000220cd  mmwDemo_flashInit                                                    
00022155  vsnprintf                                                            
000221dd  CBUFF_closeEDMA                                                      
000222e9  DPU_CFARCAProcHWA_init                                               
0002236d  MMWave_deviceCfgAsyncEvent                                           
000223f1  MMWave_deviceEventFxn                                                
00022475  MMWave_getNumBpmChirp                                                
000224f9  MMWave_open                                                          
0002257d  MmwDemo_configSensor                                                 
00022809  MMWave_getBpmChirpCfg                                                
00022889  SOC_getDeviceRFFreqScaleFactor                                       
00022989  rlDriverExecuteGetApi                                                
00022a09  rlDriverGetHandle                                                    
00022a11  ti_sysbios_timers_rti_Timer_initDevice__I                            
00022a91  HwiP_create                                                          
00022b11  MmwDemo_dataPathStop                                                 
00022b91  CBUFF_initLVDSLinkListParams                                         
00022c11  DPM_pipeSend                                                         
00022d09  MMWave_deviceOpenFxn                                                 
00022d85  Mailbox_init                                                         
00022ef8  ti_sysbios_family_arm_TaskSupport_buildTaskStack                     
00022f75  CBUFF_deinitLVDS                                                     
00022f81  xdc_runtime_Core_deleteObject__I                                     
00022ffd  MmwDemo_hwaOpen                                                      
00023079  __aeabi_memclr                                                       
00023079  __aeabi_memclr4                                                      
00023079  __aeabi_memclr8                                                      
0002307b  __aeabi_memset                                                       
0002307b  __aeabi_memset4                                                      
0002307b  __aeabi_memset8                                                      
00023081  memset                                                               
000230f5  ADCBUF_MMWave_getCQBufAddr                                           
000231e5  CBUFF_setVC                                                          
000232d5  EDMA_configParamSet                                                  
0002334d  MMWave_getNumChirps                                                  
0002352d  QSPIFlash_mmapRead                                                   
000235a5  QSPIFlash_sectorErase                                                
0002361d  QSPI_cfgRead                                                         
00023695  QSPI_memAccessCfg                                                    
0002370d  MMWave_config                                                        
00023781  MMWave_deviceStartFxn                                                
000237f4  _c_int00                                                             
00023869  rlDriverAsyncEventHandler                                            
000238dd  finddevice                                                           
0002390b  getdevice                                                            
00023951  frexp                                                                
00023951  frexpl                                                               
00023a39  CFARHWA_saveConfiguration                                            
00023b1d  HSIHeader_deleteHeader                                               
00023bfd  MMWave_deviceCfgFxn                                                  
00023c71  xdc_runtime_Error_print__E                                           
00023ce1  CFARCAHWA_config_EDMA                                                
00023dbd  DMA_disableChannel                                                   
00023e29  DMA_enableChannel                                                    
00023e95  EDMA_isTransferComplete                                              
00023f01  MMWave_deviceCloseFxn                                                
00023fd9  MMWave_stopLink                                                      
00024045  Pinmux_Set_FuncSel                                                   
0002411d  QSPI_cfgWrite                                                        
00024189  __TI_decompress_lzss                                                 
000241f5  __TI_writemsg                                                        
00024227  C$$IO$$                                                              
0002422b  __TI_readmsg                                                         
00024261  MmwDemo_mssSetHsiClk                                                 
00024409  MMWave_deviceStopFxn                                                 
00024471  Mailbox_readFlush                                                    
000244d9  MmwDemo_resetStaticCfgPendingState                                   
00024611  rlDriverExecuteSetApi                                                
00024679  rlDriverHostIrqHandler                                               
000246e1  HOSTlseek                                                            
00024749  HOSTrename                                                           
000247b1  rlDevicePowerOff                                                     
000248e1  EDMA_startDmaTransfer                                                
00024945  HWA_getDMAChanIndex                                                  
000249a9  SemaphoreP_create                                                    
00024a0d  fseek                                                                
00024a71  sprintf                                                              
00024ad4  ti_sysbios_family_arm_exc_Exception_initCore0__I                     
00024b38  ti_sysbios_family_arm_v7a_Pmu_getEnabled__E                          
00024b41  ti_sysbios_family_arm_v7r_vim_Hwi_phantomIntHandler__I               
00024bb1  ti_sysbios_knl_Clock_logTick__E                                      
00024c21  ti_sysbios_utils_Load_logCPULoad__I                                  
00024c85  MMWave_closeLink                                                     
00024c91  xdc_runtime_Startup_exec__E                                          
00024cf5  CLI_MMWaveExtensionHandler                                           
00024d55  DebugP_log2                                                          
00024db5  DebugP_log3                                                          
00024e75  mmwDemo_flashRead                                                    
00024ed5  MemoryP_ctrlFree                                                     
00024ee1  ti_sysbios_heaps_HeapMem_alloc__E                                    
00024f41  xdc_runtime_Assert_raise__I                                          
00024fa1  xdc_runtime_Text_putLab__E                                           
000250c1  CFARHWA_fovConvertDoppler                                            
0002511d  CFARHWA_prepareHwaRunTime                                            
00025179  MMWave_close                                                         
00025231  MMWave_stop                                                          
000252e9  SOC_enableLVDS                                                       
00025345  HOSTopen                                                             
000253a1  HOSTread                                                             
000253fd  MmwDemo_sleep                                                        
00025401  ti_sysbios_utils_Load_updateCurrentThreadTime__E                     
00025511  rlDriverCalChkSum                                                    
000255c5  DPM_execute                                                          
00025675  DebugP_log0                                                          
000256cd  DebugP_log1                                                          
00025725  EDMA3EnableChInShadowReg                                             
0002577d  ESM_highpriority_FIQ                                                 
000257d5  HWA_getDMAconfig                                                     
0002582d  MMWave_execute                                                       
00025935  MmwDemo_RFParser_parseConfig                                         
0002598d  QSPIFlash_configMmapWrite                                            
000259e5  UartSci_closeDMA                                                     
00025a3d  mmwDemo_flashWrite                                                   
00025a95  close                                                                
00025aed  HOSTwrite                                                            
00025b9d  CRC_getTransactionId                                                 
00025bf1  DMA_freeChannel                                                      
00025c99  MMWave_initLink                                                      
00025d41  QSPIFlash_writeEnable                                                
00025d95  ltoa                                                                 
00025de9  ti_sysbios_family_arm_v7r_vim_Hwi_create                             
00025e3d  ti_sysbios_BIOS_RtsGateProxy_enter__E                                
00025e41  ti_sysbios_heaps_HeapMem_getStats__E                                 
00025e95  MmwDemo_hwaInit                                                      
00025ea1  xdc_runtime_Core_assignLabel__I                                      
00025ef5  DPEDMA_setup_shadow_link                                             
00025f99  CRC_getSignature                                                     
00025fe9  EDMA3MapChToEvtQ                                                     
00026039  MMWave_sync                                                          
00026089  rlDeviceIdentifyCmdDir                                               
000260d9  rlDriverVerifyCRC                                                    
00026129  atoi                                                                 
00026179  C$$EXIT                                                              
0002617d  abort                                                                
0002617d  xdc_runtime_System_abortStd__E                                       
00026185  exit                                                                 
00026185  xdc_runtime_System_exitStd__E                                        
000261c8  __aeabi_uidiv                                                        
000261c8  __aeabi_uidivmod                                                     
00026219  xdc_runtime_Text_visitRope__I                                        
00026221  xdc_runtime_System_exit__E                                           
00026271  mmwDemo_cfgAnalogMonitor                                             
000262c1  CLI_write                                                            
0002630d  DPU_StaticClutterProc_config                                         
00026359  EDMA_disableChannel                                                  
000263a5  EDMA_enableChannel                                                   
000263f1  HWA_enableDoneInterrupt                                              
00026521  copy_in                                                              
0002656d  ti_sysbios_BIOS_RtsGateProxy_leave__E                                
00026571  ti_sysbios_family_arm_v7r_vim_Hwi_getStackInfo__E                    
00026571  ti_sysbios_hal_Hwi_HwiProxy_getStackInfo__E                          
00026571  ti_sysbios_hal_Hwi_getStackInfo__E                                   
000265bd  ti_sysbios_knl_Task_create                                           
00026609  CycleprofilerP_getTimeStamp                                          
00026611  ti_sysbios_knl_Task_stat__E                                          
0002665d  ti_sysbios_family_arm_TaskSupport_Module__startupDone__S             
0002665d  ti_sysbios_knl_Task_SupportProxy_Module__startupDone__S              
00026661  ti_sysbios_utils_Load_taskSwitchHook__E                              
00026741  mmwDemo_cfgRxSaturationMonitor                                       
00026791  xdc_runtime_Core_assignParams__I                                     
000267db  EDMA3ClrCCErr                                                        
000267e1  xdc_runtime_Text_xprintf__I                                          
0002682b  CBUFF_setup_USER                                                     
00026873  CFARHWA_convHwaCfarDetListToDetMask                                  
000268bb  DPM_pipeRecv                                                         
0002694d  HWA_readCFARPeakCountReg                                             
00026995  rlDeviceGetVersion                                                   
000269dd  rlDriverOsiInit                                                      
00026a25  xdc_runtime_LoggerBuf_Object__create__S                              
00026b41  ADCBUF_MMWave_close                                                  
00026bc9  DPM_start                                                            
00026c0d  DPM_stop                                                             
00026c95  SOC_resetDMA                                                         
00026cd9  HOSTclose                                                            
00026d1d  HOSTunlink                                                           
00026d61  ti_sysbios_family_arm_v7r_tms570_Core_Module_startup__E              
00026da5  SemaphoreP_post                                                      
00026da5  SemaphoreP_postFromClock                                             
00026da5  SemaphoreP_postFromISR                                               
00026db1  ti_sysbios_knl_Task_allBlockedFunction__I                            
00026df5  UART_close                                                           
00026e01  xdc_runtime_LoggerBuf_Module_startup__E                              
00026e45  UART_read                                                            
00026e51  xdc_runtime_System_atexit__E                                         
00026e95  CBUFF_closeLVDS                                                      
00026f19  HWA_reset                                                            
00026f5b  MMWave_executeLink                                                   
00026f9d  rlGetSubBlock                                                        
00026fe1  EDMA_linkParamSets                                                   
00027021  HWA_getHWAMemInfo                                                    
000270a1  MmwDemo_mmWaveCtrlTask                                               
000270e1  QSPIFlash_progQuadRead                                               
00027161  rlDriverValidateHdr                                                  
000271a1  strtok                                                               
000271e1  ti_sysbios_timers_rti_Timer_stop__E                                  
00027585  HWA_enable                                                           
000275c3  MMWave_decodeError                                                   
000276b9  EDMA_chainChannels                                                   
000276f5  EDMA_getErrorStatus                                                  
00027731  EDMA_getTransferControllerErrorStatus                                
0002776d  Mailbox_writeReset                                                   
000277a9  MmwDemo_ADCBufOpen                                                   
000277e5  MmwDemo_EDMA_errorCallbackFxn                                        
00027821  MmwDemo_EDMA_transferControllerErrorCallbackFxn                      
0002785d  SOC_isSecureDevice                                                   
00027899  SOC_unhaltBSS                                                        
000278d4  ti_sysbios_family_arm_v7r_vim_Hwi_init__I                            
00027911  ti_sysbios_hal_Hwi_checkStack                                        
0002794d  ti_sysbios_family_arm_v7r_vim_Hwi_delete                             
00027951  ti_sysbios_heaps_HeapMem_init__I                                     
0002798d  HWA_setDMA2ACCManualTrig                                             
000279c9  HwiP_delete                                                          
00027a75  CLI_MMWaveExtensionInit                                              
00027ae5  DPM_notifyExecute                                                    
00027b1d  EDMA3ClrMissEvt                                                      
00027b55  UART_init                                                            
00027b8d  _DPC_Objdet_Assert                                                   
00027bc5  mmwDemo_cfgRxSigImgMonitor                                           
00027bfd  rlAppendSubBlock                                                     
00027c33  strncpy                                                              
00027c69  ADCBuf_open                                                          
00027cd1  HWA_disableDoneInterrupt                                             
00027d6d  SOC_enableHWA                                                        
00027da1  SOC_hasDSPCore                                                       
00027dd5  SOC_setMMWaveDSSLinkState                                            
00027e09  SOC_setMMWaveMSSLinkState                                            
00027e3d  SOC_setMSSLinkState                                                  
00027e71  UART_open                                                            
00027ea5  UART_write                                                           
00027eb1  ti_sysbios_family_arm_a15_TimestampProvider_get64__E                 
00027eb1  xdc_runtime_LoggerBuf_TimestampProxy_get64__E                        
00027eb1  xdc_runtime_Timestamp_SupportProxy_get64__E                          
00027eb1  xdc_runtime_Timestamp_get64__E                                       
00027ee5  ti_sysbios_knl_Semaphore_create                                      
00027f19  CFARHWA_fovConvertRange                                              
00028017  UART_writePolling                                                    
00028021  ti_sysbios_hal_Hwi_initStack                                         
00028055  _MmwDemo_debugAssert                                                 
00028089  ADCBuf_init                                                          
000280e9  MMWave_listRemoveNode                                                
000281d9  SOC_getDevicePartNumber                                              
00028209  SOC_haltBSS                                                          
00028239  mmwDemo_flashEraseOneSector                                          
00028269  rlSensorStart                                                        
00028299  ti_sysbios_BIOS_startFunc__I                                         
000282c9  EDMA3ErrIntrHighStatusGet                                            
000282d1  ti_sysbios_family_arm_TaskSupport_start__E                           
000282d1  ti_sysbios_knl_Task_SupportProxy_start__E                            
00028301  ti_sysbios_gates_GateHwi_Object__create__S                           
00028331  ti_sysbios_gates_GateMutex_Object__create__S                         
00028361  ti_sysbios_heaps_HeapMem_Object__create__S                           
00028391  ti_sysbios_heaps_HeapMem_free__E                                     
000283c1  ti_sysbios_knl_Semaphore_construct                                   
000283f1  xdc_runtime_Text_printVisFxn__I                                      
00028421  CFARHWA_triggerCFAR                                                  
0002847d  ti_sysbios_heaps_HeapMem_Module_GateProxy_enter__E                   
00028481  ti_sysbios_knl_Semaphore_pendTimeout__I                              
000284af  malloc                                                               
00028509  DPM_pipeInit                                                         
00028535  DPU_StaticClutterProc_init                                           
00028561  EDMA_setDestinationAddress                                           
0002858d  EDMA_setSourceAddress                                                
0002863d  MMWave_osalMutexCreate                                               
00028669  MMWave_osalSemCreate                                                 
00028695  SOC_waitBSSPowerUp                                                   
000286c1  rlDeviceGetMssVersion                                                
000286ed  rlSensorStop                                                         
00028719  sqrt                                                                 
00028719  sqrtl                                                                
00028745  remove                                                               
00028745  unlink                                                               
00028771  ti_sysbios_BIOS_atExitFunc__I                                        
0002879d  ti_sysbios_knl_Clock_doTick__I                                       
000287c9  ti_sysbios_knl_Queue_construct                                       
000287f5  mathUtils_floorLog2                                                  
00028801  ti_sysbios_timers_rti_Timer_periodicStub__E                          
0002882d  DPM_pipeDeinit                                                       
000288d5  SOC_SystemISR                                                        
000288ff  strspn                                                               
000289a1  DPM_msgInitHeader                                                    
000289c9  DPU_RangeProcHWA_deinit                                              
000289f1  Mailbox_Config_init                                                  
00028a19  MmwDemo_DPC_ObjectDetection_processFrameBeginCallBackFxn             
00028a41  MmwDemo_DPC_ObjectDetection_processInterFrameBeginCallBackFxn        
00028a69  MmwDemo_dataPathOpen                                                 
00028a91  QSPIFlash_getExtFlashAddr                                            
00028b09  rlDeviceGetMmWaveLinkVersion                                         
00028b31  rlDriverConstructInMsg                                               
00028b59  lseek                                                                
00028b81  write                                                                
00028ba9  EDMA3GetCCErrStatus                                                  
00028bb1  ti_sysbios_knl_Idle_run__E                                           
00028bd9  EDMA3GetErrIntrStatus                                                
00028be1  xdc_runtime_SysStd_abort__E                                          
00028be1  xdc_runtime_System_SupportProxy_abort__E                             
00028c09  EDMA3QdmaGetErrIntrStatus                                            
00028c11  xdc_runtime_System_aprintf_va__F                                     
00028c39  DPU_StaticClutterProc_waitInData                                     
00028c5f  DPU_StaticClutterProc_waitOutData                                    
00028c85  rlRfAnaMonConfig                                                     
00028cab  rlRfGetTemperatureReport                                             
00028cd1  rlRfInitCalibConfig                                                  
00028cf7  rlRfRunTimeCalibConfig                                               
00028d1d  rlRfRxIfSatMonConfig                                                 
00028d43  rlRfRxSigImgMonConfig                                                
00028d69  rlRfSetCalMonFreqLimitConfig                                         
00028d8f  rlRfSetDeviceCfg                                                     
00028db5  rlRfSetLdoBypassConfig                                               
00028ddb  rlSetAdcOutConfig                                                    
00028e01  rlSetBpmCommonConfig                                                 
00028e27  rlSetChannelConfig                                                   
00028e4d  rlSetContModeConfig                                                  
00028e73  rlSetPowerSaveModeConfig                                             
00028e99  memcmp                                                               
00028ec1  xdc_runtime_System_printf_va__F                                      
00028f55  EDMA3ClrEvt                                                          
00028f79  EDMA3ClrIntr                                                         
00028f9d  EDMA3DisableDmaEvt                                                   
00028fc1  EDMA3DisableEvtIntr                                                  
00028fe5  EDMA3EnableDmaEvt                                                    
00029009  EDMA3EnableEvtIntr                                                   
0002902d  EDMA3SetEvt                                                          
000290bd  SOC_isDSSOperational                                                 
000290e1  SOC_isMMWaveDSSOperational                                           
00029105  SOC_isMMWaveMSSOperational                                           
00029129  rlDeviceSetHsiClk                                                    
0002914d  rlEnableContMode                                                     
00029171  rlRfSetCalMonTimeUnitConfig                                          
00029195  rlSetLowPowerModeConfig                                              
000291b9  ti_sysbios_BIOS_registerRTSLock__I                                   
000291dd  ti_sysbios_BIOS_removeRTSLock__I                                     
00029201  ti_sysbios_gates_GateMutex_Object__delete__S                         
00029225  ti_sysbios_family_arm_v7r_tms570_Core_getId__E                       
00029225  ti_sysbios_hal_Core_CoreProxy_getId__E                               
00029231  ti_sysbios_knl_Clock_Module_startup__E                               
00029255  ti_sysbios_knl_Semaphore_Object__delete__S                           
000292bd  QSPIFlashGetStatus                                                   
000292df  UartSci_disableRxDMA                                                 
00029301  UartSci_enableRxDMA                                                  
00029323  strcspn                                                              
00029345  DPM_listCat                                                          
00029365  EDMA3QdmaClrMissEvt                                                  
00029385  ESM_lowpriority_IRQ                                                  
000293c5  MMWave_listCat                                                       
000293e5  MmwDemo_RFParser_getNumSubFrames                                     
00029425  rlRfInit                                                             
00029445  xdc_runtime_Memory_HeapProxy_alloc__E                                
00029451  ti_sysbios_family_arm_TaskSupport_stackUsed__E                       
00029451  ti_sysbios_knl_Task_SupportProxy_stackUsed__E                        
00029471  ti_sysbios_family_arm_a15_TimestampProvider_autoRefreshFxn__I        
00029491  ti_sysbios_family_arm_v7a_Pmu_Module_startup__E                      
000294b1  ti_sysbios_family_arm_v7r_vim_Hwi_Object__delete__S                  
000294d1  ti_sysbios_family_arm_v7r_vim_Hwi_disableInterrupt__E                
000294d1  ti_sysbios_hal_Hwi_HwiProxy_disableInterrupt__E                      
000294d1  ti_sysbios_hal_Hwi_disableInterrupt__E                               
000294f1  ti_sysbios_family_arm_v7r_vim_Hwi_enableInterrupt__E                 
000294f1  ti_sysbios_hal_Hwi_HwiProxy_enableInterrupt__E                       
000294f1  ti_sysbios_hal_Hwi_enableInterrupt__E                                
00029511  ti_sysbios_gates_GateHwi_Object__delete__S                           
00029531  ti_sysbios_heaps_HeapMem_Object__delete__S                           
00029551  ti_sysbios_knl_Semaphore_destruct                                    
00029571  xdc_runtime_LoggerBuf_Object__delete__S                              
00029591  AOAHWA_waitEdma                                                      
000295af  CFARHWA_isHwaCfarDetected                                            
00029627  SOC_getOutAddr_LUTType                                               
00029645  ti_sysbios_BIOS_errorRaiseHook__I                                    
000297b3  DPM_listRemove                                                       
000297d1  DPU_AoAProcHWA_deinit                                                
000297ed  DPU_StaticClutterProc_deinit                                         
00029809  MMWave_listRemove                                                    
00029825  SOC_getInAddr_LUTType                                                
00029840  ti_sysbios_family_arm_TaskSupport_glue                               
0002985c  ti_sysbios_family_arm_TaskSupport_swap__E                            
0002985c  ti_sysbios_knl_Task_SupportProxy_swap__E                             
00029879  memccpy                                                              
00029895  ti_sysbios_BIOS_rtsLock__I                                           
000298b1  ti_sysbios_family_arm_v7r_vim_Hwi_clearInterrupt__E                  
000298b1  ti_sysbios_hal_Hwi_HwiProxy_clearInterrupt__E                        
000298b1  ti_sysbios_hal_Hwi_clearInterrupt__E                                 
000298cd  ti_sysbios_heaps_HeapMem_Module_GateProxy_leave__E                   
000298d1  ti_sysbios_gates_GateMutex_Instance_init__E                          
000298ed  ti_sysbios_knl_Clock_TimerProxy_getMaxTicks__E                       
000298f1  ti_sysbios_gates_GateMutex_leave__E                                  
0002990d  ti_sysbios_knl_Queue_destruct                                        
00029929  HwiP_restore                                                         
00029931  ti_sysbios_knl_Task_restoreHwi__E                                    
0002994d  ti_sysbios_knl_Semaphore_delete                                      
00029951  xdc_runtime_LoggerBuf_Instance_finalize__E                           
0002996d  CBUFF_finalizeLVDSLinkListParams                                     
000299a1  DPM_listAdd                                                          
00029a09  EDMA3SetPaRAM                                                        
00029a23  MMWave_deviceSyncFxn                                                 
00029a3d  MMWave_encodeError                                                   
00029a57  MMWave_listAdd                                                       
00029a71  free                                                                 
00029a8b  rlGetRfDieId                                                         
00029aa5  copysign                                                             
00029aa5  copysignl                                                            
00029abf  ti_sysbios_family_arm_a15_TimestampProvider_initCCNT__I              
00029ad9  xdc_runtime_System_aprintf__E                                        
00029af3  xdc_runtime_System_printf__E                                         
00029b25  CLI_getMMWaveExtensionOpenConfig                                     
00029b6d  DPU_CFARCAProcHWA_deinit                                             
00029b85  DPU_DopplerProcHWA_deinit                                            
00029b9d  EDMA3DisableQdmaEvt                                                  
00029bb5  EDMA3EnableQdmaEvt                                                   
00029bcd  MMWave_osalMutexLock                                                 
00029be5  MMWave_osalSemWait                                                   
00029c45  MmwDemo_dataPathInit                                                 
00029c5d  MmwDemo_getTemperatureReport                                         
00029c75  rlDeviceGetRfVersion                                                 
00029c8d  rlDriverCalCRC                                                       
00029ca5  rlDriverFillPayload                                                  
00029cbd  _args_main                                                           
00029cd5  __aeabi_lmul                                                         
00029ced  strcmp                                                               
00029d05  strrchr                                                              
00029d1d  ti_sysbios_BIOS_rtsUnlock__I                                         
00029d34  ti_sysbios_family_arm_v7a_Pmu_initCounters__I                        
00029d4d  ti_sysbios_family_arm_v7r_vim_Hwi_Module__startupDone__F             
00029d4d  ti_sysbios_family_arm_v7r_vim_Hwi_Module__startupDone__S             
00029d4d  ti_sysbios_hal_Hwi_HwiProxy_Module__startupDone__S                   
00029d65  ti_sysbios_family_arm_v7r_vim_Hwi_Params__init__S                    
00029d65  ti_sysbios_hal_Hwi_HwiProxy_Params__init__S                          
00029d7d  ti_sysbios_gates_GateHwi_Handle__label__S                            
00029d7d  xdc_runtime_LoggerBuf_Module_GateProxy_Handle__label__S              
00029d7d  xdc_runtime_Main_Module_GateProxy_Handle__label__S                   
00029d7d  xdc_runtime_System_Module_GateProxy_Handle__label__S                 
00029d95  ti_sysbios_BIOS_RtsGateProxy_Handle__label__S                        
00029d95  ti_sysbios_gates_GateMutex_Handle__label__S                          
00029d95  ti_sysbios_heaps_HeapMem_Module_GateProxy_Handle__label__S           
00029dad  ti_sysbios_heaps_HeapMem_Handle__label__S                            
00029dad  xdc_runtime_Memory_HeapProxy_Handle__label__S                        
00029dc5  ti_sysbios_knl_Semaphore_Params__init__S                             
00029ddd  ti_sysbios_knl_Task_Params__init__S                                  
00029df5  xdc_runtime_Memory_HeapProxy_free__E                                 
00029e01  ti_sysbios_knl_Task_enter__I                                         
00029e19  ti_sysbios_knl_Clock_TimerProxy_Module__startupDone__S               
00029e19  ti_sysbios_timers_rti_Timer_Module__startupDone__F                   
00029e19  ti_sysbios_timers_rti_Timer_Module__startupDone__S                   
00029e31  xdc_runtime_Error_init__E                                            
00029e49  xdc_runtime_LoggerBuf_Handle__label__S                               
00029e61  CBUFF_shutdownTransfer                                               
00029ea3  strchr                                                               
00029eb9  strlen                                                               
00029ecf  ti_sysbios_BIOS_exitFunc__I                                          
00029ee5  xdc_runtime_Memory_HeapProxy_getStats__E                             
00029ef1  ti_sysbios_knl_Idle_loop__E                                          
00029f49  rlGetSubBlockId                                                      
00029f51  ti_sysbios_knl_Task_sleepTimeout__I                                  
00029f67  CycleprofilerP_init                                                  
00029f91  EDMA3GetIntrStatus                                                   
00029fa5  EDMA3IntrStatusHighGet                                               
00029fb9  EDMA3MapQdmaChToPaRAM                                                
00029fcd  HwiP_Params_init                                                     
0002a009  MMWave_osalMutexDelete                                               
0002a01d  MMWave_osalSemDelete                                                 
0002a045  UartSci_disableTxDMA                                                 
0002a059  UartSci_enableTxDMA                                                  
0002a06d  _DebugP_assert                                                       
0002a081  mathUtils_ceilLog2                                                   
0002a095  rlAppendDummy                                                        
0002a0a9  rlDriverIsDeviceMapValid                                             
0002a0bd  _register_unlock                                                     
0002a0c3  _register_lock                                                       
0002a0cb  _nop                                                                 
0002a0d1  strcpy                                                               
0002a0e5  ti_sysbios_heaps_HeapMem_Object__get__S                              
0002a0f9  xdc_runtime_LoggerBuf_Object__get__S                                 
0002a10d  CRC_initConfigParams                                                 
0002a11f  EDMA3SetQdmaTrigWord                                                 
0002a143  MMWave_deviceGetDeviceInfo                                           
0002a155  MemoryP_ctrlAlloc                                                    
0002a167  SemaphoreP_pend                                                      
0002a179  mathUtils_pow2roundup                                                
0002a18b  rlGetSubBlockLen                                                     
0002a191  ti_sysbios_hal_Hwi_Module_startup__E                                 
0002a1b1  xdc_runtime_LoggerBuf_write1__E                                      
0002a1d1  xdc_runtime_LoggerBuf_write2__E                                      
0002a1e3  xdc_runtime_Startup_exec__I                                          
0002a1f5  ADCBuf_Params_init                                                   
0002a205  AoAProcHWA_trigger_EDMA_3DFFT                                        
0002a215  CLI_getMMWaveExtensionConfig                                         
0002a235  DPU_AoAProcHWA_getNumHwaParamSets                                    
0002a245  MmwDemo_dataPathObjInit                                              
0002a255  QSPIFlashWriteCmd                                                    
0002a265  QSPI_Params_init                                                     
0002a275  atof                                                                 
0002a27b  ti_sysbios_family_arm_a15_TimestampProvider_get32__E                 
0002a27b  xdc_runtime_LoggerBuf_TimestampProxy_get32__E                        
0002a27b  xdc_runtime_Timestamp_SupportProxy_get32__E                          
0002a27b  xdc_runtime_Timestamp_get32__E                                       
0002a281  ti_sysbios_BIOS_getCpuFreq__E                                        
0002a281  ti_sysbios_family_arm_a15_TimestampProvider_getFreq__E               
0002a281  xdc_runtime_LoggerBuf_TimestampProxy_getFreq__E                      
0002a281  xdc_runtime_Timestamp_SupportProxy_getFreq__E                        
0002a281  xdc_runtime_Timestamp_getFreq__E                                     
0002a291  ti_sysbios_BIOS_setThreadType__E                                     
0002a2a1  ti_sysbios_BIOS_start__E                                             
0002a2b1  ti_sysbios_family_arm_a15_TimestampProvider_Module_startup__E        
0002a2c0  ti_sysbios_family_arm_v7a_Pmu_disableInterruptI__E                   
0002a2d0  ti_sysbios_family_arm_v7a_Pmu_enableInterruptI__E                    
0002a2e0  ti_sysbios_family_arm_v7a_Pmu_getNumCounters__E                      
0002a2f0  ti_sysbios_family_arm_v7a_Pmu_startCounterI__E                       
0002a300  ti_sysbios_family_arm_v7a_Pmu_stopCounterI__E                        
0002a311  ti_sysbios_gates_GateMutex_Instance_finalize__E                      
0002a321  ti_sysbios_heaps_HeapBuf_Object__get__S                              
0002a331  ti_sysbios_knl_Semaphore_Instance_finalize__E                        
0002a341  ti_sysbios_knl_Task_Object__get__S                                   
0002a351  ti_sysbios_knl_Task_disable__E                                       
0002a361  xdc_runtime_LoggerBuf_write0__E                                      
0002a371  xdc_runtime_Memory_free__E                                           
0002a381  xdc_runtime_Memory_getStats__E                                       
0002a391  SOC_microDelay                                                       
0002a39f  SemaphoreP_delete                                                    
0002a3ad  __TI_decompress_none                                                 
0002a3bb  ti_sysbios_family_arm_a15_TimestampProvider_getOverflowCCNT__I       
0002a3c9  xdc_runtime_LoggerBuf_Module_GateProxy_enter__E                      
0002a3cd  xdc_runtime_LoggerBuf_Module_GateProxy_leave__E                      
0002a3d1  ti_sysbios_knl_Queue_empty__E                                        
0002a3e1  ti_sysbios_family_arm_TaskSupport_checkStack__E                      
0002a3e1  ti_sysbios_knl_Task_SupportProxy_checkStack__E                       
0002a3ed  xdc_runtime_System_Module_GateProxy_enter__E                         
0002a3f1  ti_sysbios_family_arm_TaskSupport_getStackAlignment__E               
0002a3f1  ti_sysbios_knl_Task_SupportProxy_getStackAlignment__E                
0002a3fd  xdc_runtime_System_Module_GateProxy_leave__E                         
0002a401  ti_sysbios_family_arm_exc_Exception_Module_startup__E                
0002a411  ti_sysbios_family_arm_v7r_vim_Hwi_switchFromBootStack__E             
0002a411  ti_sysbios_hal_Hwi_HwiProxy_switchFromBootStack__E                   
0002a411  ti_sysbios_hal_Hwi_switchFromBootStack__E                            
0002a421  ti_sysbios_utils_Load_getCPULoad__E                                  
0002a431  ti_sysbios_utils_Load_taskRegHook__E                                 
0002a441  xdc_runtime_Startup_rtsDone__E                                       
0002a451  xdc_runtime_SysStd_exit__E                                           
0002a451  xdc_runtime_System_SupportProxy_exit__E                              
0002a461  xdc_runtime_LoggerBuf_disable__E                                     
0002a471  xdc_runtime_LoggerBuf_enable__E                                      
0002a481  ti_sysbios_gates_GateHwi_enter__E                                    
0002a491  ti_sysbios_family_arm_v7r_vim_Hwi_startup__E                         
0002a491  ti_sysbios_hal_Hwi_HwiProxy_startup__E                               
0002a491  ti_sysbios_hal_Hwi_startup__E                                        
0002a4a1  ti_sysbios_gates_GateHwi_leave__E                                    
0002a4b1  ti_sysbios_heaps_HeapMem_isBlocking__E                               
0002a4c1  ti_sysbios_knl_Queue_Instance_init__E                                
0002a4d1  xdc_runtime_System_Module_startup__E                                 
0002a4e1  ti_sysbios_gates_GateHwi_query__E                                    
0002a4e1  xdc_runtime_LoggerBuf_Module_GateProxy_query__E                      
0002a4e1  xdc_runtime_Main_Module_GateProxy_query__E                           
0002a4e1  xdc_runtime_System_Module_GateProxy_query__E                         
0002a4f1  ti_sysbios_BIOS_RtsGateProxy_query__E                                
0002a4f1  ti_sysbios_gates_GateMutex_query__E                                  
0002a4f1  ti_sysbios_heaps_HeapMem_Module_GateProxy_query__E                   
0002a501  ti_sysbios_knl_Task_startup__E                                       
0002a511  ti_sysbios_timers_rti_Timer_getMaxTicks__E                           
0002a521  xdc_runtime_SysStd_putch__E                                          
0002a521  xdc_runtime_System_SupportProxy_putch__E                             
0002a531  xdc_runtime_SysStd_ready__E                                          
0002a531  xdc_runtime_System_SupportProxy_ready__E                             
0002a541  ti_sysbios_BIOS_linkedWithIncorrectBootLibrary__E                    
0002a551  ti_sysbios_gates_GateHwi_Instance_init__E                            
0002a968  _ctypes_                                                             
0002aa69  xdc_runtime_Text_charTab__A                                          
0002aa6a  ti_sysbios_family_arm_exc_Exception_Module__id__C                    
0002acc8  ti_sysbios_family_arm_v7r_vim_Hwi_channelMap__A                      
0002ada0  ti_sysbios_knl_Task_Object__PARAMS__C                                
0002ae24  UART_defaultParams                                                   
0002ae60  xdc_runtime_LoggerBuf_Module__FXNS__C                                
0002ae9c  gEdmaHwAttrs                                                         
0002aed4  ti_sysbios_family_arm_v7r_vim_Hwi_Object__PARAMS__C                  
0002af04  xdc_runtime_Startup_sfxnTab__A                                       
0002af34  gDPMMessageFxnTable                                                  
0002af5c  ti_sysbios_heaps_HeapMem_Module__FXNS__C                             
0002af84  xdc_runtime_LoggerBuf_Object__PARAMS__C                              
0002afac  Mailbox_defaultCfg                                                   
0002afd0  ti_sysbios_gates_GateHwi_Module__FXNS__C                             
0002aff4  ti_sysbios_gates_GateMutex_Module__FXNS__C                           
0002b018  ti_sysbios_heaps_HeapMem_Object__PARAMS__C                           
0002b03c  ti_sysbios_knl_Semaphore_Object__PARAMS__C                           
0002b0a0  ti_sysbios_family_arm_v7r_vim_Hwi_Object__DESC__C                    
0002b0c0  ti_sysbios_gates_GateHwi_Object__DESC__C                             
0002b0e0  ti_sysbios_gates_GateMutex_Object__DESC__C                           
0002b100  ti_sysbios_heaps_HeapMem_Object__DESC__C                             
0002b120  ti_sysbios_knl_Queue_Object__DESC__C                                 
0002b140  ti_sysbios_knl_Semaphore_Object__DESC__C                             
0002b160  ti_sysbios_knl_Task_Object__DESC__C                                  
0002b180  xdc_runtime_LoggerBuf_Object__DESC__C                                
0002b1a0  ti_sysbios_gates_GateHwi_Object__PARAMS__C                           
0002b1b8  ti_sysbios_gates_GateMutex_Object__PARAMS__C                         
0002b1d0  ti_sysbios_knl_Queue_Object__PARAMS__C                               
0002b1e8  ti_sysbios_knl_Task_hooks__A                                         
0002b200  xdc_runtime_Startup_sfxnRts__A                                       
0002b218  gADCBufFxnTable                                                      
0002b23c  ADCBuf_defaultParams                                                 
0002b25c  QSPI_defaultParams                                                   
0002b26c  gADCBufHwCfg                                                         
0002b27c  ti_sysbios_family_arm_v7r_vim_Hwi_intReqEnaSet__A                    
0002b28c  ti_sysbios_family_arm_v7r_vim_Hwi_wakeEnaSet__A                      
0002b29c  ti_sysbios_knl_Idle_funcList__A                                      
0002b2a8  ti_sysbios_knl_Idle_funcList__C                                      
0002b2b0  ti_sysbios_knl_Task_hooks__C                                         
0002b2b8  xdc_runtime_Startup_firstFxns__A                                     
0002b2c0  xdc_runtime_Startup_firstFxns__C                                     
0002b2c8  xdc_runtime_Startup_lastFxns__C                                      
0002b2d0  ti_sysbios_family_arm_TaskSupport_stackAlignment__C                  
0002b2d4  ti_sysbios_family_arm_exc_Exception_E_dataAbort__C                   
0002b2d8  ti_sysbios_family_arm_exc_Exception_E_prefetchAbort__C               
0002b2dc  ti_sysbios_family_arm_exc_Exception_E_swi__C                         
0002b2e0  ti_sysbios_family_arm_exc_Exception_E_undefinedInstruction__C        
0002b2e4  ti_sysbios_family_arm_exc_Exception_excHookFuncs__A                  
0002b2e8  ti_sysbios_family_arm_exc_Exception_excHookFuncs__C                  
0002b2ec  ti_sysbios_family_arm_v7a_Pmu_A_invalidCounterId__C                  
0002b2f0  ti_sysbios_family_arm_v7a_Pmu_Module__diagsEnabled__C                
0002b2f4  ti_sysbios_family_arm_v7a_Pmu_Module__diagsIncluded__C               
0002b2f8  ti_sysbios_family_arm_v7a_Pmu_Module__diagsMask__C                   
0002b2fc  ti_sysbios_family_arm_v7r_tms570_Core_E_mismatchedIds__C             
0002b300  ti_sysbios_family_arm_v7r_tms570_Core_id__C                          
0002b304  ti_sysbios_family_arm_v7r_vim_Hwi_A_badChannelId__C                  
0002b308  ti_sysbios_family_arm_v7r_vim_Hwi_E_alreadyDefined__C                
0002b30c  ti_sysbios_family_arm_v7r_vim_Hwi_E_badIntNum__C                     
0002b310  ti_sysbios_family_arm_v7r_vim_Hwi_E_phantomInterrupt__C              
0002b314  ti_sysbios_family_arm_v7r_vim_Hwi_E_undefined__C                     
0002b318  ti_sysbios_family_arm_v7r_vim_Hwi_E_unsupportedMaskingOption__C      
0002b31c  ti_sysbios_family_arm_v7r_vim_Hwi_LD_end__C                          
0002b320  ti_sysbios_family_arm_v7r_vim_Hwi_LM_begin__C                        
0002b324  ti_sysbios_family_arm_v7r_vim_Hwi_Module__diagsEnabled__C            
0002b328  ti_sysbios_family_arm_v7r_vim_Hwi_Module__diagsIncluded__C           
0002b32c  ti_sysbios_family_arm_v7r_vim_Hwi_Module__diagsMask__C               
0002b330  ti_sysbios_family_arm_v7r_vim_Hwi_Module__loggerFxn1__C              
0002b334  ti_sysbios_family_arm_v7r_vim_Hwi_Module__loggerFxn8__C              
0002b338  ti_sysbios_family_arm_v7r_vim_Hwi_Module__loggerObj__C               
0002b33c  ti_sysbios_family_arm_v7r_vim_Hwi_NUM_INTERRUPTS__C                  
0002b340  ti_sysbios_family_arm_v7r_vim_Hwi_channelMap__C                      
0002b344  ti_sysbios_family_arm_v7r_vim_Hwi_intReqEnaSet__C                    
0002b348  ti_sysbios_family_arm_v7r_vim_Hwi_phantomFunc__C                     
0002b34c  ti_sysbios_family_arm_v7r_vim_Hwi_taskDisable__C                     
0002b350  ti_sysbios_family_arm_v7r_vim_Hwi_taskRestoreHwi__C                  
0002b354  ti_sysbios_family_arm_v7r_vim_Hwi_wakeEnaSet__C                      
0002b358  ti_sysbios_gates_GateMutex_A_badContext__C                           
0002b35c  ti_sysbios_gates_GateMutex_Instance_State_sem__O                     
0002b360  ti_sysbios_gates_GateMutex_Module__diagsEnabled__C                   
0002b364  ti_sysbios_gates_GateMutex_Module__diagsIncluded__C                  
0002b368  ti_sysbios_gates_GateMutex_Module__diagsMask__C                      
0002b36c  ti_sysbios_hal_Hwi_E_stackOverflow__C                                
0002b370  ti_sysbios_heaps_HeapBuf_Instance_State_freeList__O                  
0002b374  ti_sysbios_heaps_HeapBuf_Object__count__C                            
0002b378  ti_sysbios_heaps_HeapBuf_numConstructedHeaps__C                      
0002b37c  ti_sysbios_heaps_HeapMem_A_align__C                                  
0002b380  ti_sysbios_heaps_HeapMem_A_heapSize__C                               
0002b384  ti_sysbios_heaps_HeapMem_A_invalidFree__C                            
0002b388  ti_sysbios_heaps_HeapMem_A_zeroBlock__C                              
0002b38c  ti_sysbios_heaps_HeapMem_E_memory__C                                 
0002b390  ti_sysbios_heaps_HeapMem_Module__diagsEnabled__C                     
0002b394  ti_sysbios_heaps_HeapMem_Module__diagsIncluded__C                    
0002b398  ti_sysbios_heaps_HeapMem_Module__diagsMask__C                        
0002b39c  ti_sysbios_heaps_HeapMem_Module__gateObj__C                          
0002b3a0  ti_sysbios_heaps_HeapMem_Object__count__C                            
0002b3a4  ti_sysbios_heaps_HeapMem_reqAlign__C                                 
0002b3a8  ti_sysbios_knl_Clock_LM_begin__C                                     
0002b3ac  ti_sysbios_knl_Clock_LM_tick__C                                      
0002b3b0  ti_sysbios_knl_Clock_LW_delayed__C                                   
0002b3b4  ti_sysbios_knl_Clock_Module_State_clockQ__O                          
0002b3b8  ti_sysbios_knl_Clock_Module__diagsEnabled__C                         
0002b3bc  ti_sysbios_knl_Clock_Module__diagsIncluded__C                        
0002b3c0  ti_sysbios_knl_Clock_Module__diagsMask__C                            
0002b3c4  ti_sysbios_knl_Clock_Module__loggerFxn1__C                           
0002b3c8  ti_sysbios_knl_Clock_Module__loggerFxn2__C                           
0002b3cc  ti_sysbios_knl_Clock_Module__loggerObj__C                            
0002b3d0  ti_sysbios_knl_Semaphore_A_badContext__C                             
0002b3d4  ti_sysbios_knl_Semaphore_A_noEvents__C                               
0002b3d8  ti_sysbios_knl_Semaphore_A_overflow__C                               
0002b3dc  ti_sysbios_knl_Semaphore_A_pendTaskDisabled__C                       
0002b3e0  ti_sysbios_knl_Semaphore_Instance_State_pendQ__O                     
0002b3e4  ti_sysbios_knl_Semaphore_LM_pend__C                                  
0002b3e8  ti_sysbios_knl_Semaphore_LM_post__C                                  
0002b3ec  ti_sysbios_knl_Semaphore_Module__diagsEnabled__C                     
0002b3f0  ti_sysbios_knl_Semaphore_Module__diagsIncluded__C                    
0002b3f4  ti_sysbios_knl_Semaphore_Module__diagsMask__C                        
0002b3f8  ti_sysbios_knl_Semaphore_Module__loggerFxn2__C                       
0002b3fc  ti_sysbios_knl_Semaphore_Module__loggerFxn4__C                       
0002b400  ti_sysbios_knl_Semaphore_Module__loggerObj__C                        
0002b404  ti_sysbios_knl_Task_A_badPriority__C                                 
0002b408  ti_sysbios_knl_Task_A_badTaskState__C                                
0002b40c  ti_sysbios_knl_Task_A_badThreadType__C                               
0002b410  ti_sysbios_knl_Task_A_badTimeout__C                                  
0002b414  ti_sysbios_knl_Task_A_noPendElem__C                                  
0002b418  ti_sysbios_knl_Task_A_sleepTaskDisabled__C                           
0002b41c  ti_sysbios_knl_Task_E_spOutOfBounds__C                               
0002b420  ti_sysbios_knl_Task_E_stackOverflow__C                               
0002b424  ti_sysbios_knl_Task_LD_block__C                                      
0002b428  ti_sysbios_knl_Task_LD_exit__C                                       
0002b42c  ti_sysbios_knl_Task_LD_ready__C                                      
0002b430  ti_sysbios_knl_Task_LM_sleep__C                                      
0002b434  ti_sysbios_knl_Task_LM_switch__C                                     
0002b438  ti_sysbios_knl_Task_Module_State_inactiveQ__O                        
0002b43c  ti_sysbios_knl_Task_Module__diagsEnabled__C                          
0002b440  ti_sysbios_knl_Task_Module__diagsIncluded__C                         
0002b444  ti_sysbios_knl_Task_Module__diagsMask__C                             
0002b448  ti_sysbios_knl_Task_Module__loggerFxn2__C                            
0002b44c  ti_sysbios_knl_Task_Module__loggerFxn4__C                            
0002b450  ti_sysbios_knl_Task_Module__loggerObj__C                             
0002b454  ti_sysbios_knl_Task_Object__count__C                                 
0002b458  ti_sysbios_knl_Task_Object__heap__C                                  
0002b45c  ti_sysbios_knl_Task_allBlockedFunc__C                                
0002b460  ti_sysbios_knl_Task_defaultStackHeap__C                              
0002b464  ti_sysbios_knl_Task_defaultStackSize__C                              
0002b468  ti_sysbios_knl_Task_numConstructedTasks__C                           
0002b46c  ti_sysbios_timers_rti_Timer_E_cannotSupport__C                       
0002b470  ti_sysbios_timers_rti_Timer_Module__diagsEnabled__C                  
0002b474  ti_sysbios_timers_rti_Timer_Module__diagsIncluded__C                 
0002b478  ti_sysbios_timers_rti_Timer_Module__diagsMask__C                     
0002b47c  ti_sysbios_timers_rti_Timer_numTimerDevices__C                       
0002b480  ti_sysbios_timers_rti_Timer_startupNeeded__C                         
0002b484  ti_sysbios_utils_Load_LS_cpuLoad__C                                  
0002b488  ti_sysbios_utils_Load_LS_taskLoad__C                                 
0002b48c  ti_sysbios_utils_Load_Module_State_taskList__O                       
0002b490  ti_sysbios_utils_Load_Module__diagsEnabled__C                        
0002b494  ti_sysbios_utils_Load_Module__diagsIncluded__C                       
0002b498  ti_sysbios_utils_Load_Module__diagsMask__C                           
0002b49c  ti_sysbios_utils_Load_Module__loggerFxn1__C                          
0002b4a0  ti_sysbios_utils_Load_Module__loggerFxn4__C                          
0002b4a4  ti_sysbios_utils_Load_Module__loggerObj__C                           
0002b4a8  ti_sysbios_utils_Load_postUpdate__C                                  
0002b4ac  ti_sysbios_utils_Load_windowInMs__C                                  
0002b4b0  xdc_runtime_Assert_E_assertFailed__C                                 
0002b4b4  xdc_runtime_Core_A_initializedParams__C                              
0002b4b8  xdc_runtime_Core_Module__diagsEnabled__C                             
0002b4bc  xdc_runtime_Core_Module__diagsIncluded__C                            
0002b4c0  xdc_runtime_Core_Module__diagsMask__C                                
0002b4c4  xdc_runtime_Error_E_memory__C                                        
0002b4c8  xdc_runtime_Error_Module__diagsEnabled__C                            
0002b4cc  xdc_runtime_Error_Module__diagsIncluded__C                           
0002b4d0  xdc_runtime_Error_Module__diagsMask__C                               
0002b4d4  xdc_runtime_Error_Module__loggerFxn8__C                              
0002b4d8  xdc_runtime_Error_Module__loggerObj__C                               
0002b4dc  xdc_runtime_Error_policyFxn__C                                       
0002b4e0  xdc_runtime_Error_policy__C                                          
0002b4e4  xdc_runtime_Error_raiseHook__C                                       
0002b4e8  xdc_runtime_IFilterLogger_Interface__BASE__C                         
0002b4ec  xdc_runtime_IGateProvider_Interface__BASE__C                         
0002b4f0  xdc_runtime_IHeap_Interface__BASE__C                                 
0002b4f4  xdc_runtime_ILogger_Interface__BASE__C                               
0002b4f8  xdc_runtime_IModule_Interface__BASE__C                               
0002b4fc  xdc_runtime_Log_L_error__C                                           
0002b500  xdc_runtime_LoggerBuf_E_badLevel__C                                  
0002b504  xdc_runtime_LoggerBuf_Module__gateObj__C                             
0002b508  xdc_runtime_LoggerBuf_Object__count__C                               
0002b50c  xdc_runtime_LoggerBuf_statusLogger__C                                
0002b510  xdc_runtime_Main_Module__diagsEnabled__C                             
0002b514  xdc_runtime_Main_Module__diagsIncluded__C                            
0002b518  xdc_runtime_Main_Module__diagsMask__C                                
0002b51c  xdc_runtime_Main_Module__loggerFxn1__C                               
0002b520  xdc_runtime_Main_Module__loggerFxn2__C                               
0002b524  xdc_runtime_Main_Module__loggerFxn4__C                               
0002b528  xdc_runtime_Main_Module__loggerObj__C                                
0002b52c  xdc_runtime_Memory_defaultHeapInstance__C                            
0002b530  xdc_runtime_Startup_execImpl__C                                      
0002b534  xdc_runtime_Startup_maxPasses__C                                     
0002b538  xdc_runtime_Startup_sfxnRts__C                                       
0002b53c  xdc_runtime_Startup_sfxnTab__C                                       
0002b540  xdc_runtime_System_Module__gateObj__C                                
0002b544  xdc_runtime_System_abortFxn__C                                       
0002b548  xdc_runtime_System_exitFxn__C                                        
0002b54c  xdc_runtime_System_extendFxn__C                                      
0002b550  xdc_runtime_System_maxAtexitHandlers__C                              
0002b554  xdc_runtime_Text_charTab__C                                          
0002b558  xdc_runtime_Text_nameEmpty__C                                        
0002b55c  xdc_runtime_Text_nameStatic__C                                       
0002b560  xdc_runtime_Text_nameUnknown__C                                      
0002b564  xdc_runtime_Text_visitRopeFxn__C                                     
0002b568  ti_sysbios_family_arm_v7a_Pmu_Module__id__C                          
0002b56a  ti_sysbios_family_arm_v7r_tms570_Core_Module__id__C                  
0002b56c  ti_sysbios_family_arm_v7r_vim_Hwi_Module__id__C                      
0002b56e  ti_sysbios_family_arm_v7r_vim_Hwi_Module__loggerDefined__C           
0002b570  ti_sysbios_gates_GateMutex_Module__id__C                             
0002b572  ti_sysbios_hal_Hwi_Module__id__C                                     
0002b574  ti_sysbios_heaps_HeapMem_Module__id__C                               
0002b576  ti_sysbios_knl_Clock_Module__id__C                                   
0002b578  ti_sysbios_knl_Clock_Module__loggerDefined__C                        
0002b57a  ti_sysbios_knl_Semaphore_Module__id__C                               
0002b57c  ti_sysbios_knl_Semaphore_Module__loggerDefined__C                    
0002b57e  ti_sysbios_knl_Task_Module__id__C                                    
0002b580  ti_sysbios_knl_Task_Module__loggerDefined__C                         
0002b582  ti_sysbios_timers_rti_Timer_Module__id__C                            
0002b584  ti_sysbios_timers_rti_Timer_continueOnSuspend__C                     
0002b586  ti_sysbios_utils_Load_Module__id__C                                  
0002b588  ti_sysbios_utils_Load_Module__loggerDefined__C                       
0002b58a  ti_sysbios_utils_Load_autoAddTasks__C                                
0002b58c  ti_sysbios_utils_Load_updateInIdle__C                                
0002b58e  xdc_runtime_Core_Module__id__C                                       
0002b590  xdc_runtime_Error_Module__loggerDefined__C                           
0002b592  xdc_runtime_Error_maxDepth__C                                        
0002b594  xdc_runtime_LoggerBuf_Module__id__C                                  
0002b596  xdc_runtime_LoggerBuf_filterByLevel__C                               
0002b598  xdc_runtime_Main_Module__id__C                                       
0002b59a  xdc_runtime_Main_Module__loggerDefined__C                            
0002b59c  xdc_runtime_Memory_Module__id__C                                     
0002b59e  xdc_runtime_Text_charCnt__C                                          
0002b5a0  xdc_runtime_Text_isLoaded__C                                         
0002b5a2  xdc_runtime_Text_registryModsLastId__C                               
0002b5a4  xdc_runtime_Text_unnamedModsLastId__C                                
0002b5a8  __TI_static_base__                                                   
0002badc  __TI_Handler_Table_Base                                              
0002bae8  __TI_Handler_Table_Limit                                             
0002bb10  __TI_CINIT_Base                                                      
0002bb40  __TI_CINIT_Limit                                                     
08000000  ti_sysbios_heaps_HeapMem_Instance_State_0_buf__A                     
08010000  gDPC_ObjDetTCM                                                       
0801c400  xdc_runtime_LoggerBuf_Instance_State_0_entryArr__A                   
0801dd00  ti_sysbios_family_arm_exc_Exception_Module_State_0_excStack_0__A     
0801ed00  gMmwMCB                                                              
0801f518  edmaDbg                                                              
0801fa00  gCalibDataStorage                                                    
0801fe60  ti_sysbios_knl_Task_Instance_State_0_stack__A                        
08020180  gCLI                                                                 
08020328  gGPIOMCB                                                             
080204bc  __CIOBUF_                                                            
080205dc  gMMWave_MCB                                                          
080206dc  __TI_tmpnams                                                         
0802077c  MSS_RCM_CLKDIVCTL0_save                                              
08020780  gHSIHeaderMCB                                                        
08020810  gEsmMCB                                                              
08020880  gMmwDemoFlash                                                        
0802088c  gMMWave_DualcoreMCB                                                  
08020894  parmbuf                                                              
0802089c  MSS_RCM_CLKSRCSEL0_save                                              
080208a0  MSS_RCM_CLKSRCSEL1_save                                              
080208a4  MSS_TOPRCM_CLKDIV_save                                               
080208a8  MSS_TOPRCM_CLKSRCSEL_save                                            
080208ac  gObjDetObj                                                           
080208b0  ti_sysbios_knl_Task_Instance_State_0_hookEnv__A                      
080208b8  rl_txMsg                                                             
080209b8  rl_rxMsg                                                             
08020ca0  gCLI_mmwave_freq_scale_factor                                        
08020ca8  gCLIMMWaveOpenCfg                                                    
08020cd0  gCLIMMWaveExtensionTable                                             
08020d78  gCLIMMWaveControlCfg                                                 
08020e44  partInfoStringArray                                                  
08021008  ti_sysbios_family_arm_v7r_vim_Hwi_Module_State_0_dispatchTable__A    
08021208  _ftable                                                              
080212f8  ti_sysbios_utils_Load_Module__state__V                               
08021390  ti_sysbios_knl_Task_Module_State_0_readyQ__A                         
08021410  _device                                                              
08021488  gCBUFFHwAttribute                                                    
08021500  ti_sysbios_knl_Task_Object__table__V                                 
0802155c  gUartSciHwCfg                                                        
080215b4  _stream                                                              
08021604  gMailboxMCB                                                          
08021654  ti_sysbios_knl_Task_Module__state__V                                 
0802169c  SOC_TranslateAddr_LUT                                                
080216dc  ti_sysbios_gates_GateMutex_Object__table__V                          
0802171c  ti_sysbios_timers_rti_Timer_Object__table__V                         
08021758  gCBUFFInterfaceFxn                                                   
08021790  ti_sysbios_family_arm_v7r_vim_Hwi_Module__state__V                   
080217c4  gHWAHwCfg                                                            
080217f4  ti_sysbios_family_arm_v7r_vim_Hwi_Object__table__V                   
08021820  ti_sysbios_knl_Clock_Module__state__V                                
0802184c  gUartSciFxnTable                                                     
08021874  UART_config                                                          
08021898  gDPC_ObjectDetectionCfg                                              
080218bc  ti_sysbios_BIOS_Module__state__V                                     
080218e0  xdc_runtime_LoggerBuf_Object__table__V                               
08021904  gHWADriverPtr                                                        
08021908  gSOCHwAttrib                                                         
08021928  ti_sysbios_knl_Clock_Object__table__V                                
08021948  xdc_runtime_Error_IgnoreBlock                                        
08021968  xdc_runtime_System_Module_State_0_atexitHandlers__A                  
08021988  gAntDef_default                                                      
080219a4  ti_sysbios_utils_Load_Module_State_0_taskEnv__A                      
080219c0  ADCBuf_config                                                        
080219d8  gInterleavedTransferFxn                                              
080219f0  gMailboxMssBssHwCfg                                                  
08021a08  gMailboxMssDssHwCfg                                                  
08021a20  gMultipleChirpNonInterleavedTransferFxn                              
08021a38  gNonInterleavedTransferFxn                                           
08021a50  ti_sysbios_heaps_HeapMem_Object__table__V                            
08021a68  ti_sysbios_timers_rti_Timer_Module_State_0_device__A                 
08021a80  gDPMRemoteTable                                                      
08021a94  ti_sysbios_family_arm_exc_Exception_Module__state__V                 
08021aa8  gHwaEDMAChanMapping                                                  
08021ab8  gQSPIHwCfg                                                           
08021ac8  __TI_ft_end                                                          
08021acc  __aeabi_stdin                                                        
08021ad0  __aeabi_stdout                                                       
08021ad4  __aeabi_stderr                                                       
08021ad8  ti_sysbios_timers_rti_Timer_Module_State_0_intFreqs__A               
08021ae8  ti_sysbios_timers_rti_Timer_Module__state__V                         
08021af8  __TI_cleanup_ptr                                                     
08021afc  __TI_dtors_ptr                                                       
08021b00  __TI_enable_exit_profile_output                                      
08021b04  gESMHwCfgAttrs                                                       
08021b10  ti_sysbios_family_arm_v7a_Pmu_Module__state__V                       
08021b1c  ti_sysbios_knl_Task_Module__root__V                                  
08021b28  _lock                                                                
08021b2c  _unlock                                                              
08021b30  MmwDemo_RFParserHwCfg                                                
08021b38  QSPIFlash_deviceFxnTbl_macronix                                      
08021b40  QSPIFlash_deviceFxnTbl_spansion                                      
08021b48  gDPMHwAttrib                                                         
08021b50  gGPIOHwAtrrib                                                        
08021b58  ti_sysbios_family_arm_v7r_vim_Hwi_Module__root__V                    
08021b60  ti_sysbios_gates_GateHwi_Module__root__V                             
08021b68  ti_sysbios_gates_GateMutex_Module__root__V                           
08021b70  ti_sysbios_hal_Hwi_Object__table__V                                  
08021b78  ti_sysbios_heaps_HeapMem_Module__root__V                             
08021b80  ti_sysbios_knl_Queue_Module__root__V                                 
08021b88  ti_sysbios_knl_Semaphore_Module__root__V                             
08021b90  ti_sysbios_timers_rti_Timer_Module_State_0_handles__A                
08021b98  xdc_runtime_LoggerBuf_Module__root__V                                
08021ba0  xdc_runtime_Registry_Module__state__V                                
08021ba8  xdc_runtime_Startup_Module__state__V                                 
08021bb0  xdc_runtime_System_Module__state__V                                  
08021bb8  xdc_runtime_LoggerBuf_Module__state__V                               
08021bbe  ti_sysbios_family_arm_exc_Exception_Module_State_0_excActive__A      
08021bc0  gQSPIFlashHwCfg                                                      
08021bc4  gRFLdoBypassCfg                                                      
08021bcc  gCRCRegister                                                         
08021bd0  gDPM                                                                 
08021bd4  regionId                                                             
08021bd8  gPinmuxRegs                                                          
08021bdc  gQSPIDriverPtr                                                       
08021be4  errno                                                                
08021bf0  main_func_sp                                                         
08021bf8  ti_sysbios_family_arm_a15_TimestampProvider_Module__state__V         
08021bfc  ti_sysbios_family_arm_exc_Exception_Module_State_0_excContext__A     
08021c00  ti_sysbios_family_arm_exc_Exception_Module_State_0_excStackBuffers__A
08021c04  ti_sysbios_family_arm_exc_Exception_Module_State_0_excStack__A       
08021c08  ti_sysbios_gates_GateHwi_Object__table__V                            
08021c0c  ti_sysbios_heaps_HeapBuf_Module__state__V                            
08021c10  ti_sysbios_knl_Task_Module_State_0_idleTask__A                       
08021c14  ti_sysbios_utils_Load_Module_State_0_runningTask__A                  
08021c18  ti_sysbios_utils_Load_Module_State_0_taskStartTime__A                
08021c1c  xdc_runtime_Memory_Module__state__V                                  
08021c20  xdc_runtime_Error_Module__state__V                                   
08021c22  xdc_runtime_Main_Module__root__V                                     
08021c28  ti_sysbios_family_arm_v7r_vim_Hwi_Module_State_0_fiqStack__A         
08022428  __stack                                                              
080228d8  __STACK_END                                                          
51000000  gMmwL3                                                               
fffffdec  ti_sysbios_family_arm_v7r_vim_Hwi_vim                                
ffffffff  __TI_pprof_out_hndl                                                  
ffffffff  __TI_prof_data_size                                                  
ffffffff  __TI_prof_data_start                                                 
ffffffff  __binit__                                                            
ffffffff  __c_args__                                                           
ffffffff  binit                                                                
UNDEFED   SHT$$INIT_ARRAY$$Base                                                
UNDEFED   SHT$$INIT_ARRAY$$Limit                                               

[1294 symbols]
