******************************************************************************
                  TI ARM Linker PC v16.9.6                     
******************************************************************************
>> Linked Fri Oct 08 09:42:05 2021

OUTPUT FILE NAME:   <3D_people_count_68xx_mss.xer4f>
ENTRY POINT SYMBOL: "_c_int00"  address: 0001cf44


MEMORY CONFIGURATION

         name            origin    length      used     unused   attr    fill
----------------------  --------  ---------  --------  --------  ----  --------
PAGE 0:
  VECTORS               00000000   00000100  0000003c  000000c4     X
  PROG_RAM              00000100   0007ff00  00025512  0005a9ee  R  X
  DATA_RAM              08000000   00030000  0002a9a2  0000565e  RW  
  L3_RAM                51000000   00090000  00090000  00000000  RW  
  HWA_RAM               52030000   00010000  00000000  00010000  RW  
  HS_RAM                52080000   00008000  00000000  00008000  RW  

PAGE 1:
  L3_RAM                51000000   00090000  00000000  00090000  RW  


SEGMENT ALLOCATION MAP

run origin  load origin   length   init length attrs members
----------  ----------- ---------- ----------- ----- -------
00000000    00000000    0000003c   0000003c    r--
  00000000    00000000    0000003c   0000003c    r-- .vecs
00000100    00000100    00025518   00025518    r-x
  00000100    00000100    00022d12   00022d12    r-x .text
  00022e18    00022e18    00002268   00002268    r-- .const
  00025080    00025080    00000598   00000598    r-- .cinit
08000000    08000000    0002a9a8   00000000    rw-
  08000000    08000000    00020800   00000000    rw- systemHeap
  08020800    08020800    00003a0e   00000000    rw- .data
  08024210    08024210    00003794   00000000    rw- .bss
  080279a4    080279a4    00002000   00000000    rw- .dpcLocalRam
  080299a8    080299a8    00000800   00000000    rw- .myFiqStack
  0802a1a8    0802a1a8    00000800   00000000    rw- .stack
51000000    51000000    00090000   00000000    rw-
  51000000    51000000    00090000   00000000    rw- .l3ram


SECTION ALLOCATION MAP

 output                                  attributes/
section   page    origin      length       input sections
--------  ----  ----------  ----------   ----------------
systemHeap 
*          0    08000000    00020800     UNINITIALIZED
                  08000000    00020800     pcount3D_mss_per4ft.oer4ft (systemHeap)

.dpcLocalRam 
*          0    080279a4    00002000     UNINITIALIZED
                  080279a4    00002000     mss_main.oer4f (.dpcLocalRam)

.vecs      0    00000000    0000003c     
                  00000000    0000003c     pcount3D_mss_per4ft.oer4ft (.vecs)

.text      0    00000100    00022d12     
                  00000100    0000107a     rtsv7R4_T_le_v3D16_eabi.lib : _printfi.obj (.text)
                  0000117a    00000002     libadcbuf_xwr68xx.aer4f : adcbuf_mmwave.oer4f (.text:ADCBUF_MMWave_init)
                  0000117c    00000ed0     libgtrack3D.aer4f : gtrack_unit_update.oer4f (.text:gtrack_unitUpdate)
                  0000204c    000008a4     mss_main.oer4f (.text:Pcount3DDemo_dataPathConfig)
                  000028f0    000007e6     pcount3D_cli.oer4f (.text:Pcount3DDemo_CLIInit)
                  000030d6    00000002     libdma_xwr68xx.aer4f : dma.oer4f (.text:DMA_init)
                  000030d8    0000070c     mss_main.oer4f (.text:Pcount3DDemo_initTask)
                  000037e4    00000658     libhwa_xwr68xx.aer4f : hwa.oer4f (.text:HWA_configParamSet)
                  00003e3c    000005fc     rtsv7R4_T_le_v3D16_eabi.lib : k_rem_pio2.obj (.text)
                  00004438    000005ef     libgtrack3D.aer4f : gtrack_module.oer4f (.text:gtrack_moduleAllocate)
                  00004a27    00000001     --HOLE-- [fill = 0]
                  00004a28    000005e4     mmwdemo_rfparser.oer4f (.text:MmwDemo_RFParser_parseCtrlConfig)
                  0000500c    000005e0     libgtrack3D.aer4f : gtrack_create.oer4f (.text:gtrack_create)
                  000055ec    00000590     rtsv7R4_T_le_v3D16_eabi.lib : e_powf.obj (.text)
                  00005b7c    00000560     rangeprochwa.oer4f (.text:DPU_RangeProcHWA_process)
                  000060dc    00000004     libosal_xwr68xx.aer4f : HwiP_tirtos.oer4f (.text:HwiP_disableInterrupt)
                  000060e0    00000515     sysbios.aer4ft : BIOS.obj (.text:xdc_runtime_System_doPrint__I)
                  000065f5    00000001     --HOLE-- [fill = 0]
                  000065f6    00000002     libhwa_xwr68xx.aer4f : hwa.oer4f (.text:HWA_init)
                  000065f8    000004e4     mss_main.oer4f (.text:Pcount3DDemo_handleObjectDetResult)
                  00006adc    000004a8     libadcbuf_xwr68xx.aer4f : adcbuf_mmwave.oer4f (.text:ADCBUF_MMWave_control)
                  00006f84    00000484     rangeprochwa.oer4f (.text:DPU_RangeProcHWA_config)
                  00007408    00000465     libgtrack3D.aer4f : gtrack_unit_update.oer4f (.text:gtrack_velocityStateHandling)
                  0000786d    00000001     --HOLE-- [fill = 0]
                  0000786e    00000002     libmmwave_xwr68xx.aer4f : mmwave_link.oer4f (.text:MMWave_maskHostIRQ)
                  00007870    00000435     pcount3D_cli.oer4f (.text:Pcount3DDemo_CLISensorStart)
                  00007ca5    00000001     --HOLE-- [fill = 0]
                  00007ca6    00000002     libuart_xwr68xx.aer4f : uartsci.oer4f (.text:UartSci_init)
                  00007ca8    00000420     libgtrack3D.aer4f : gtrack_unit_score.oer4f (.text:gtrack_unitScore)
                  000080c8    00000410     libcli_xwr68xx.aer4f : cli_mmwave.oer4f (.text:CLI_MMWaveVersion)
                  000084d8    000003f4     rtsv7R4_T_le_v3D16_eabi.lib : s_cos.obj (.text)
                  000088cc    000003d8     rangeprochwa.oer4f (.text:rangeProcHWA_ConfigEDMA_DataOut_nonInterleave)
                  00008ca4    0000036c     libgtrack3D.aer4f : gtrack_unit_event.oer4f (.text:gtrack_unitEvent)
                  00009010    00000332                       : gtrack_utilities_3d.oer4f (.text:gtrack_matrixInv)
                  00009342    00000002     rtsv7R4_T_le_v3D16_eabi.lib : i_div0.obj (.text)
                  00009344    00000314     libsoc_xwr68xx.aer4f : soc_xwr68xx_mss.oer4f (.text:SOC_deviceInit)
                  00009658    00000314     rtsv7R4_T_le_v3D16_eabi.lib : s_tanf.obj (.text)
                  0000996c    00000004     libosal_xwr68xx.aer4f : HwiP_tirtos.oer4f (.text:HwiP_enableInterrupt)
                  00009970    000002f4     sysbios.aer4ft : BIOS.obj (.text:ti_sysbios_knl_Semaphore_pend__E)
                  00009c64    000002ec     mss_main.oer4f (.text:Pcount3DDemo_DPC_ObjectDetection_reportFxn)
                  00009f50    000002cc     sysbios.aer4ft : BIOS.obj (.text:ti_sysbios_knl_Task_Instance_finalize__E)
                  0000a21c    000002c8     mss_main.oer4f (.text:Pcount3DDemo_sensorStopEpilog)
                  0000a4e4    000002c4     objdetrangehwa.oer4f (.text:DPC_ObjDetRangeHwa_rangeConfig)
                  0000a7a8    000002c4     libhwa_xwr68xx.aer4f : hwa.oer4f (.text:HWA_configCommon)
                  0000aa6c    000002b8     rtsv7R4_T_le_v3D16_eabi.lib : ull_div32.obj (.text)
                  0000ad24    000002b0     libdma_xwr68xx.aer4f : dma.oer4f (.text:DMA_open)
                  0000afd4    0000000c     libedma_xwr68xx.aer4f : edma_low_level.oer4f (.text:EDMA3ChannelToParamMap)
                  0000afe0    000002a4     sysbios.aer4ft : BIOS.obj (.text:ti_sysbios_heaps_HeapMem_freeUnprotected__E)
                  0000b284    00000298     libgtrack3D.aer4f : gtrack_step.oer4f (.text:gtrack_step)
                  0000b51c    00000284     libmmwave_xwr68xx.aer4f : mmwave_dualcore.oer4f (.text:MMWave_deviceExecuteFxn)
                  0000b7a0    00000280     sysbios.aer4ft : BIOS.obj (.text:ti_sysbios_family_arm_exc_Exception_excDumpContext__I)
                  0000ba20    00000274     objdetrangehwa.oer4f (.text:DPC_ObjectDetection_ioctl)
                  0000bc94    0000026c     mss_main.oer4f (.text:Pcount3DDemo_eventCallbackFxn)
                  0000bf00    00000260     libmailbox_xwr68xx.aer4f : mailbox.oer4f (.text:Mailbox_open)
                  0000c160    00000254     libcli_xwr68xx.aer4f : cli_mmwave.oer4f (.text:CLI_MMWaveProfileCfg)
                  0000c3b4    0000022c     rangeprochwa.oer4f (.text:rangeProcHWA_ConfigHWA)
                  0000c5e0    00000228     sysbios.aer4ft : BIOS.obj (.text:ti_sysbios_heaps_HeapMem_allocUnprotected__E)
                  0000c808    00000008     libosal_xwr68xx.aer4f : HwiP_tirtos.oer4f (.text:HwiP_disable)
                  0000c810    00000224     sysbios.aer4ft : BIOS.obj (.text:ti_sysbios_timers_rti_Timer_Module_startup__E)
                  0000ca34    00000218     mss_main.oer4f (.text:Pcount3DDemo_bpmConfig)
                  0000cc4c    00000214     libuart_xwr68xx.aer4f : uartsci.oer4f (.text:UartSci_open)
                  0000ce60    0000020e     libgtrack3D.aer4f : gtrack_unit_predict.oer4f (.text:gtrack_unitPredict)
                  0000d06e    00000002     pcount3D_mss_per4ft.oer4ft (.text:ti_sysbios_BIOS_nullFunc__I)
                  0000d070    00000204     libcli_xwr68xx.aer4f : cli_mmwave.oer4f (.text:CLI_MMWaveChirpCfg)
                  0000d274    0000000c     libedma_xwr68xx.aer4f : edma_low_level.oer4f (.text:EDMAsetRegion)
                  0000d280    00000204     sysbios.aer4ft : BIOS.obj (.text:ti_sysbios_knl_Task_sleep__E)
                  0000d484    00000200     libcrc_xwr68xx.aer4f : crc.oer4f (.text:CRC_open)
                  0000d684    00000200     mss_main.oer4f (.text:MmwDemo_uartTxTask)
                  0000d884    0000000c     libmmwave_xwr68xx.aer4f : mmwave_dualcore.oer4f (.text:MMWave_deviceMailboxCallbackFxn)
                  0000d890    00000200     sysbios.aer4ft : BIOS.obj (.text:ti_sysbios_knl_Task_Instance_init__E)
                  0000da90    000001f0     libdma_xwr68xx.aer4f : dma.oer4f (.text:DMA_setChannelParams)
                  0000dc80    000001e4     rtsv7R4_T_le_v3D16_eabi.lib : e_logf.obj (.text)
                  0000de64    000001e4                                 : strtod.obj (.text)
                  0000e048    000001e4     pcount3D_mss_per4ft.oer4ft (.text:xdc_runtime_System_printfExtend__I)
                  0000e22c    000001e0     libgtrack3D.aer4f : gtrack_utilities.oer4f (.text:gtrack_computeJacobian)
                  0000e40c    000001dc     pcount3D_cli.oer4f (.text:Pcount3DDemo_CLIDynAngleEstCfg)
                  0000e5e8    000001dc     mss_main.oer4f (.text:Pcount3DDemo_startSensor)
                  0000e7c4    000001d4     mss_main.oer4f (.text:Pcount3DDemo_openSensor)
                  0000e998    000001d0     libgtrack3D.aer4f : gtrack_unit_start.oer4f (.text:gtrack_unitStart)
                  0000eb68    00000008     libmmwave_xwr68xx.aer4f : mmwave.oer4f (.text:MMWave_decodeErrorLevel)
                  0000eb70    000001cc     sysbios.aer4ft : BIOS.obj (.text:ti_sysbios_family_arm_v7r_vim_Hwi_dispatchIRQC__I)
                  0000ed3c    000001c8     trackerproc_3d.oer4f (.text:DPU_TrackerProc_process)
                  0000ef04    000001c8     libmmwavelink_xwr68xx.aer4f : rl_driver.oer4f (.text:rlDriverRxHdrRead)
                  0000f0cc    000001c8     rtsv7R4_T_le_v3D16_eabi.lib : fopen.obj (.text)
                  0000f294    000001c4     mss_main.oer4f (.text:Pcount3DDemo_stopSensor)
                  0000f458    000001c0     libedma_xwr68xx.aer4f : edma.oer4f (.text:EDMA_open)
                  0000f618    000001bc     mss_main.oer4f (.text:main)
                  0000f7d4    000001b0     libmmwavelink_xwr68xx.aer4f : rl_driver.oer4f (.text:rlDriverMsgRead)
                  0000f984    000001ac     objdetrangehwa.oer4f (.text:DPC_ObjectDetection_init)
                  0000fb30    000001ac     libgtrack3D.aer4f : gtrack_unit_create.oer4f (.text:gtrack_unitCreate)
                  0000fcdc    000001a4     libcli_xwr68xx.aer4f : cli_mmwave.oer4f (.text:CLI_MMWaveSubFrameCfg)
                  0000fe80    000001a4     libmmwave_xwr68xx.aer4f : mmwave_dualcore.oer4f (.text:MMWave_serializeCfg)
                  00010024    0000019e     objdetrangehwa.oer4f (.text:DPC_ObjectDetection_execute)
                  000101c2    00000002     pcount3D_mss_per4ft.oer4ft (.text:xdc_runtime_Startup_reset__I)
                  000101c4    00000194     libmmwave_xwr68xx.aer4f : mmwave_link.oer4f (.text:MMWave_openLink)
                  00010358    00000190     libmmwavelink_xwr68xx.aer4f : rl_driver.oer4f (.text:rlDriverCmdInvoke)
                  000104e8    0000018b     libgtrack3D.aer4f : gtrack_module.oer4f (.text:gtrack_modulePresence)
                  00010673    00000001     --HOLE-- [fill = 0]
                  00010674    00000188     libedma_xwr68xx.aer4f : edma.oer4f (.text:EDMA_configChannel)
                  000107fc    00000188     libhwa_xwr68xx.aer4f : hwa.oer4f (.text:HWA_open)
                  00010984    00000186     rangeprochwa.oer4f (.text:rangeProcHWA_ConfigEDMAMinorModeLinks)
                  00010b0a    00000002     --HOLE-- [fill = 0]
                  00010b0c    00000184     trackerproc_3d.oer4f (.text:DPU_TrackerProc_config)
                  00010c90    00000184     sysbios.aer4ft : BIOS.obj (.text:xdc_runtime_LoggerBuf_write8__E)
                  00010e14    00000180     libdpm_xwr68xx.aer4f : dpm_core.oer4f (.text:DPM_init)
                  00010f94    00000180                          : dpm_msg.oer4f (.text:DPM_msgRecv)
                  00011114    00000174     tracker_utils.oer4f (.text:MmwDemo_CLITrackingCfg)
                  00011288    00000170     libgpio_xwr68xx.aer4f : gpio.oer4f (.text:GPIO_setConfig)
                  000113f8    00000008     libmmwave_xwr68xx.aer4f : mmwave_link.oer4f (.text:MMWave_mboxCallbackFxn)
                  00011400    0000016c     sysbios.aer4ft : BIOS.obj (.text:ti_sysbios_knl_Semaphore_post__E)
                  0001156c    00000004     libmmwave_xwr68xx.aer4f : mmwave_link.oer4f (.text:MMWave_disableDevice)
                  00011570    00000168     sysbios.aer4ft : BIOS.obj (.text:ti_sysbios_family_arm_exc_Exception_excHandler__I)
                  000116d8    00000008     libosal_xwr68xx.aer4f : MemoryP_tirtos.oer4f (.text:MemoryP_getStats)
                  000116e0    00000160     sysbios.aer4ft : BIOS.obj (.text:ti_sysbios_family_arm_v7r_vim_Hwi_reconfig__E)
                  00011840    00000158                    : BIOS.obj (.text:ti_sysbios_knl_Task_postInit__I)
                  00011998    00000154     pcount3D_cli.oer4f (.text:Pcount3DDemo_CLIDynRACfarCfg)
                  00011aec    00000154     pcount3D_cli.oer4f (.text:Pcount3DDemo_CLIStaticRACfarCfg)
                  00011c40    00000154     rtsv7R4_T_le_v3D16_eabi.lib : s_atanf.obj (.text)
                  00011d94    00000150     mss_main.oer4f (.text:MmwDemo_trackerDPUTask)
                  00011ee4    0000000c     libmmwave_xwr68xx.aer4f : mmwave_osal.oer4f (.text:MMWave_osalMutexUnlock)
                  00011ef0    00000150     sysbios.aer4ft : BIOS.obj (.text:xdc_runtime_Error_policyDefault__E)
                  00012040    0000014c     libcli_xwr68xx.aer4f : cli_mmwave.oer4f (.text:CLI_MMWaveFrameCfg)
                  0001218c    0000014c                          : cli.oer4f (.text:CLI_task)
                  000122d8    0000014c     libmmwave_xwr68xx.aer4f : mmwave_link.oer4f (.text:MMWave_initMMWaveLink)
                  00012424    0000014a     libuart_xwr68xx.aer4f : uartsci.oer4f (.text:UartSci_ISR)
                  0001256e    00000002     --HOLE-- [fill = 0]
                  00012570    00000148     libmmwavelink_xwr68xx.aer4f : rl_driver.oer4f (.text:rlDriverCmdSendRetry)
                  000126b8    00000008     libosal_xwr68xx.aer4f : SemaphoreP_tirtos.oer4f (.text:SemaphoreP_Params_init)
                  000126c0    00000140     sysbios.aer4ft : BIOS.obj (.text:ti_sysbios_heaps_HeapMem_Instance_init__E)
                  00012800    00000140                    : BIOS.obj (.text:xdc_runtime_Core_createObject__I)
                  00012940    0000013c                    : BIOS.obj (.text:ti_sysbios_knl_Clock_workFunc__E)
                  00012a7c    00000138     mss_main.oer4f (.text:Pcount3DDemo_configSensor)
                  00012bb4    00000138     rtsv7R4_T_le_v3D16_eabi.lib : fputs.obj (.text)
                  00012cec    00000004     libmmwave_xwr68xx.aer4f : mmwave_link.oer4f (.text:MMWave_enableDevice)
                  00012cf0    00000138     sysbios.aer4ft : BIOS.obj (.text:xdc_runtime_Startup_startMods__I)
                  00012e28    00000134     libadcbuf_xwr68xx.aer4f : adcbuf_mmwave.oer4f (.text:ADCBUF_MMWave_open)
                  00012f5c    00000130     libgtrack3D.aer4f : gtrack_utilities.oer4f (.text:gtrack_cartesian2spherical)
                  0001308c    0000012c     rangeprochwa.oer4f (.text:rangeProcHWA_ConfigEDMADummyThreeLinks)
                  000131b8    00000128     libmathutils.aer4f : mathutils.oer4f (.text:mathUtils_genWindow)
                  000132e0    00000128     sysbios.aer4ft : BIOS.obj (.text:ti_sysbios_utils_Load_updateThreadContexts__E)
                  00013408    00000124     libcli_xwr68xx.aer4f : cli_mmwave.oer4f (.text:CLI_MMWaveAdvFrameCfg)
                  0001352c    00000124                          : cli_mmwave.oer4f (.text:CLI_MMWaveContModeCfg)
                  00013650    00000124     libedma_xwr68xx.aer4f : edma.oer4f (.text:EDMA_init)
                  00013774    00000120     tracker_utils.oer4f (.text:MmwDemo_CLIBoundaryBoxCfg)
                  00013894    00000120     mss_main.oer4f (.text:Pcount3DDemo_CfgUpdate)
                  000139b4    0000000c     libmmwave_xwr68xx.aer4f : mmwave_osal.oer4f (.text:MMWave_osalSemSignal)
                  000139c0    00000120     sysbios.aer4ft : BIOS.obj (.text:xdc_runtime_LoggerBuf_write4__E)
                  00013ae0    0000011a     rangeprochwa.oer4f (.text:DPEDMAHWA_configTwoHotSignatureWithMinorMode)
                  00013bfa    00000006     libosal_xwr68xx.aer4f : CycleprofilerP_tirtos.oer4f (.text:CycleprofilerP_getTimeStamp)
                  00013c00    00000118     sysbios.aer4ft : BIOS.obj (.text:ti_sysbios_family_arm_v7r_vim_Hwi_Instance_init__E)
                  00013d18    00000114     libedma_xwr68xx.aer4f : edma.oer4f (.text:EDMA_configErrorMonitoring)
                  00013e2c    00000110                           : edma.oer4f (.text:EDMA_transferComplete_isr)
                  00013f3c    0000010c     libdpedma_hwa_xwr68xx.aer4f : dpedma.oer4f (.text:DPEDMA_configSyncAB)
                  00014048    0000010c     libdpm_xwr68xx.aer4f : dpm_msg.oer4f (.text:DPM_msgResultHandler)
                  00014154    0000010c     libmmwave_xwr68xx.aer4f : mmwave_link.oer4f (.text:MMWave_asyncEventHandler)
                  00014260    0000010c                             : mmwave_dualcore.oer4f (.text:MMWave_deviceInitFxn)
                  0001436c    00000004                             : mmwave_listlib.oer4f (.text:MMWave_listGetHead)
                  00014370    0000010c     sysbios.aer4ft : BIOS.obj (.text:ti_sysbios_knl_Task_schedule__I)
                  0001447c    00000004     libmmwave_xwr68xx.aer4f : mmwave_listlib.oer4f (.text:MMWave_listGetNext)
                  00014480    0000010c     sysbios.aer4ft : BIOS.obj (.text:xdc_runtime_Core_constructObject__I)
                  0001458c    00000108     libdma_xwr68xx.aer4f : dma.oer4f (.text:DMA_disableInterrupt)
                  00014694    00000108     libmailbox_xwr68xx.aer4f : mailbox.oer4f (.text:Mailbox_write)
                  0001479c    00000104     libdpedma_hwa_xwr68xx.aer4f : dpedma.oer4f (.text:DPEDMA_configSyncA_singleFrame)
                  000148a0    00000104     libmmwave_xwr68xx.aer4f : mmwave_link.oer4f (.text:MMWave_startLink)
                  000149a4    0000000c     libuart_xwr68xx.aer4f : UART.oer4f (.text:UART_Params_init)
                  000149b0    00000104     sysbios.aer4ft : BIOS.obj (.text:ti_sysbios_timers_rti_Timer_getFreq__E)
                  00014ab4    00000100     libcli_xwr68xx.aer4f : cli_mmwave.oer4f (.text:CLI_MMWaveBPMCfgAdvanced)
                  00014bb4    00000100     libdma_xwr68xx.aer4f : dma.oer4f (.text:DMA_clearChannelInterruptFlag)
                  00014cb4    00000100     libgtrack3D.aer4f : gtrack_utilities.oer4f (.text:gtrack_spherical2cartesian)
                  00014db4    00000100     libmmwavelink_xwr68xx.aer4f : rl_driver.oer4f (.text:rlDriverInit)
                  00014eb4    000000fc     libcrc_xwr68xx.aer4f : crc.oer4f (.text:CRC_computeSignature)
                  00014fb0    000000fc     pcount3D_cli.oer4f (.text:Pcount3DDemo_CLIADCBufCfg)
                  000150ac    000000fc     mss_main.oer4f (.text:Pcount3DDemo_edmaOpen)
                  000151a8    00000008     libgtrack3D.aer4f : gtrack_unit_delete.oer4f (.text:gtrack_unitDelete)
                  000151b0    000000fc     sysbios.aer4ft : BIOS.obj (.text:ti_sysbios_knl_Task_exit__E)
                  000152ac    000000f8     libmmwavelink_xwr68xx.aer4f : rl_driver.oer4f (.text:rlDriverRdVerifyMsg)
                  000153a4    000000f4     tracker_utils.oer4f (.text:MmwDemo_CLISensorPositionCfg)
                  00015498    00000008     rangeprochwa.oer4f (.text:rangeProcHWADoneIsrCallback)
                  000154a0    000000f0     sysbios.aer4ft : BIOS.obj (.text:ti_sysbios_family_arm_v7r_vim_Hwi_Module_startup__E)
                  00015590    000000f0                    : BIOS.obj (.text:ti_sysbios_knl_Task_startCore__E)
                  00015680    000000f0                    : BIOS.obj (.text:ti_sysbios_utils_Load_taskCreateHook__E)
                  00015770    000000ec     rtsv7R4_T_le_v3D16_eabi.lib : s_scalbn.obj (.text)
                  0001585c    00000004     libmmwave_xwr68xx.aer4f : mmwave_link.oer4f (.text:MMWave_mboxClose)
                  00015860    000000ec     sysbios.aer4ft : BIOS.obj (.text:ti_sysbios_heaps_HeapBuf_Module_startup__E)
                  0001594c    000000ea     libdpedma_hwa_xwr68xx.aer4f : dpedmahwa.oer4f (.text:DPEDMAHWA_configTwoHotSignature)
                  00015a36    00000002     --HOLE-- [fill = 0]
                  00015a38    000000e4     libmmwavelink_xwr68xx.aer4f : rl_sensor.oer4f (.text:rlRfPhShiftCalibDataRestore)
                  00015b1c    000000e2     libedma_xwr68xx.aer4f : edma.oer4f (.text:EDMA_paramConfig_assist)
                  00015bfe    00000002     --HOLE-- [fill = 0]
                  00015c00    000000e0     libcli_xwr68xx.aer4f : cli.oer4f (.text:CLI_open)
                  00015ce0    000000e0     libdma_xwr68xx.aer4f : dma.oer4f (.text:DMA_enableInterrupt)
                  00015dc0    000000e0     rtsv7R4_T_le_v3D16_eabi.lib : s_floor.obj (.text)
                  00015ea0    000000dc     libmmwave_xwr68xx.aer4f : mmwave.oer4f (.text:MMWave_init)
                  00015f7c    000000dc     libmmwavelink_xwr68xx.aer4f : rl_driver.oer4f (.text:rlDriverMsgCmdReply)
                  00016058    000000dc     rtsv7R4_T_le_v3D16_eabi.lib : s_ceil.obj (.text)
                  00016134    000000dc                                 : setvbuf.obj (.text)
                  00016210    000000d8     tracker_utils.oer4f (.text:MmwDemo_CLIPresenceParamCfg)
                  000162e8    000000d4     libmailbox_xwr68xx.aer4f : mailbox.oer4f (.text:Mailbox_read)
                  000163bc    000000d4     rangeprochwa.oer4f (.text:rangeProcHWA_ConfigEDMA_DataIn)
                  00016490    000000d4     libmmwavelink_xwr68xx.aer4f : rl_sensor.oer4f (.text:rlSetMultiBpmChirpConfig)
                  00016564    000000d4     rtsv7R4_T_le_v3D16_eabi.lib : s_scalbnf.obj (.text)
                  00016638    00000008     libmmwavelink_xwr68xx.aer4f : rl_driver.oer4f (.text:rlDriverConstructOutMsg)
                  00016640    000000d4     sysbios.aer4ft : BIOS.obj (.text:ti_sysbios_utils_Load_logLoads__I)
                  00016714    000000d2     libgtrack3D.aer4f : gtrack_math.oer4f (.text:gtrack_matrixPrint2)
                  000167e6    00000002     --HOLE-- [fill = 0]
                  000167e8    000000d0     rangeprochwa.oer4f (.text:DPU_RangeProcHWA_control)
                  000168b8    000000d0     pcount3D_cli.oer4f (.text:Pcount3DDemo_CLIDopplerCFARCfg)
                  00016988    000000d0     sysbios.aer4ft : exc_Exception_asm.obj (.text:ti_sysbios_family_arm_exc_Exception_excHandlerAsm__I)
                  00016a58    00000008     libmmwavelink_xwr68xx.aer4f : rl_driver.oer4f (.text:rlDriverGetHandle)
                  00016a60    000000d0     sysbios.aer4ft : BIOS.obj (.text:ti_sysbios_utils_Load_idleFxn__E)
                  00016b30    000000d0                    : BIOS.obj (.text:xdc_runtime_LoggerBuf_Instance_init__E)
                  00016c00    000000cc     libhwa_xwr68xx.aer4f : hwa.oer4f (.text:HWA_enableParamSetInterrupt)
                  00016ccc    000000cc     libmmwavelink_xwr68xx.aer4f : rl_sensor.oer4f (.text:rlRfCalibDataRestore)
                  00016d98    000000cc                                 : rl_sensor.oer4f (.text:rlSetChirpConfig)
                  00016e64    000000cc     rtsv7R4_T_le_v3D16_eabi.lib : fflush.obj (.text)
                  00016f30    000000cc     sysbios.aer4ft : BIOS.obj (.text:ti_sysbios_knl_Task_checkStacks__E)
                  00016ffc    000000c9     objdetrangehwa.oer4f (.text:DPC_ObjectDetection_frameStart)
                  000170c5    00000003     --HOLE-- [fill = 0]
                  000170c8    000000c8     libmmwave_xwr68xx.aer4f : mmwave_fullcfg.oer4f (.text:MMWave_addChirp)
                  00017190    000000c8                             : mmwave_link.oer4f (.text:MMWave_configBPM)
                  00017258    000000c8                             : mmwave_fullcfg.oer4f (.text:MMWave_flushCfg)
                  00017320    000000c8                             : mmwave_fullcfg.oer4f (.text:MMWave_getChirpHandle)
                  000173e8    000000c8     libsoc_xwr68xx.aer4f : soc_xwr68xx.oer4f (.text:SOC_ungateClock)
                  000174b0    000000c8     libgtrack3D.aer4f : gtrack_delete.oer4f (.text:gtrack_delete)
                  00017578    000000c8     libmmwavelink_xwr68xx.aer4f : rl_sensor.oer4f (.text:rlSetFrameConfig)
                  00017640    000000c4     libdpm_xwr68xx.aer4f : dpm_core.oer4f (.text:DPM_deinit)
                  00017704    000000c4                          : dpm_core.oer4f (.text:DPM_ioctl)
                  000177c8    00000008     sysbios.aer4ft : BIOS.obj (.text:ti_sysbios_family_arm_v7a_Pmu_getEnabled__E)
                  000177d0    000000c4                    : BIOS.obj (.text:ti_sysbios_family_arm_v7a_Pmu_configureCounter__E)
                  00017894    000000c0     rangeprochwa.oer4f (.text:DPU_RangeProcHWA_init)
                  00017954    000000c0     libmmwavelink_xwr68xx.aer4f : rl_driver.oer4f (.text:rlDriverMsgWrite)
                  00017a14    0000000c     libuart_xwr68xx.aer4f : uartsci_dma.oer4f (.text:UartSci_isDMAEnabled)
                  00017a20    000000c0     sysbios.aer4ft : BIOS.obj (.text:ti_sysbios_timers_rti_Timer_startup__E)
                  00017ae0    000000bc     libcli_xwr68xx.aer4f : cli.oer4f (.text:CLI_help)
                  00017b9c    000000bc     libgpio_xwr68xx.aer4f : gpio.oer4f (.text:GPIO_write)
                  00017c58    000000bc     libmmwave_xwr68xx.aer4f : mmwave_link.oer4f (.text:MMWave_computeCRC)
                  00017d14    000000bc     rtsv7R4_T_le_v3D16_eabi.lib : open.obj (.text)
                  00017dd0    000000b8     libdma_xwr68xx.aer4f : dma.oer4f (.text:DMA_getChannelInterruptFlag)
                  00017e88    000000b8     rtsv7R4_T_le_v3D16_eabi.lib : k_cos.obj (.text)
                  00017f40    000000b6     libsoc_xwr68xx.aer4f : soc_mpu.o (.text)
                  00017ff6    00000002     --HOLE-- [fill = 0]
                  00017ff8    000000b5     objdetrangehwa.oer4f (.text:DPC_ObjectDetection_start)
                  000180ad    00000003     --HOLE-- [fill = 0]
                  000180b0    000000b4     sysbios.aer4ft : BIOS.obj (.text:ti_sysbios_gates_GateMutex_enter__E)
                  00018164    0000000c                    : arm_IntrinsicsSupport_asm.obj (.text:_ti_sysbios_family_arm_IntrinsicsSupport_maxbitA)
                  00018170    000000b4                    : BIOS.obj (.text:xdc_runtime_LoggerBuf_setFilterLevel__E)
                  00018224    000000b2     libuart_xwr68xx.aer4f : uartsci_dma.oer4f (.text:UartSci_openDMA)
                  000182d6    0000000a     libadcbuf_xwr68xx.aer4f : ADCBuf.oer4f (.text:ADCBuf_control)
                  000182e0    000000b2     sysbios.aer4ft : BIOS.obj (.text:xdc_runtime_Text_putSite__E)
                  00018392    00000002     --HOLE-- [fill = 0]
                  00018394    000000b0     libmmwave_xwr68xx.aer4f : mmwave_fullcfg.oer4f (.text:MMWave_addProfile)
                  00018444    000000b0     tracker_utils.oer4f (.text:MmwDemo_CLIStaticBoundaryBoxCfg)
                  000184f4    000000b0     libgtrack3D.aer4f : gtrack_utilities_3d.oer4f (.text:gtrack_calcMeasurementLimits)
                  000185a4    000000b0     libmmwavelink_xwr68xx.aer4f : rl_sensor.oer4f (.text:rlSetProfileConfig)
                  00018654    0000000c     rtsv7R4_T_le_v3D16_eabi.lib : copy_zero_init.obj (.text:decompress:ZI)
                  00018660    000000b0     sysbios.aer4ft : BIOS.obj (.text:ti_sysbios_utils_Load_updateLoads__E)
                  00018710    000000ae     mmwdemo_adcconfig.oer4f (.text:MmwDemo_ADCBufConfig)
                  000187be    000000ae     rtsv7R4_T_le_v3D16_eabi.lib : _io_perm.obj (.text)
                  0001886c    000000ac     libesm_xwr68xx.aer4f : esm.oer4f (.text:ESM_processInterrupt)
                  00018918    000000ac     pcount3D_cli.oer4f (.text:Pcount3DDemo_CLIDynRngAngleCfg)
                  000189c4    000000ac     mss_main.oer4f (.text:Pcount3DDemo_mmWaveCtrlTask)
                  00018a70    000000ac     sysbios.aer4ft : BIOS.obj (.text:ti_sysbios_knl_Task_Module_startup__E)
                  00018b1c    00000004     libmmwave_xwr68xx.aer4f : mmwave_link.oer4f (.text:MMWave_mboxRead)
                  00018b20    000000ac     sysbios.aer4ft : BIOS.obj (.text:ti_sysbios_utils_Load_startup__E)
                  00018bcc    000000a8     libadcbuf_xwr68xx.aer4f : adcbuf_mmwave.oer4f (.text:ADCBUF_MMWave_getChanBufAddr)
                  00018c74    000000a8     libcli_xwr68xx.aer4f : cli_mmwave.oer4f (.text:CLI_MMWaveExtensionHelp)
                  00018d1c    000000a8     libedma_xwr68xx.aer4f : edma_low_level.oer4f (.text:EDMA3Init)
                  00018dc4    000000a8     libmmwave_xwr68xx.aer4f : mmwave_link.oer4f (.text:MMWave_configureProfileChirp)
                  00018e6c    000000a8                             : mmwave_fullcfg.oer4f (.text:MMWave_getBpmChirpHandle)
                  00018f14    000000a8     mss_main.oer4f (.text:Pcount3DDemo_EDMA_errorCallbackFxn)
                  00018fbc    000000a8     mss_main.oer4f (.text:Pcount3DDemo_EDMA_transferControllerErrorCallbackFxn)
                  00019064    000000a8     libpinmux_xwr68xx.aer4f : pinmux.oer4f (.text:Pinmux_Set_OverrideCtrl)
                  0001910c    000000a8     libsoc_xwr68xx.aer4f : soc.oer4f (.text:SOC_deregisterSysIntListener)
                  000191b4    000000a8     libgtrack3D.aer4f : gtrack_utilities_3d.oer4f (.text:gtrack_calcMeasurementSpread)
                  0001925c    000000a8     libmmwavelink_xwr68xx.aer4f : rl_driver.oer4f (.text:rlDriverWaitForResponse)
                  00019304    000000a8                                 : rl_sensor.oer4f (.text:rlSetAdvFrameConfig)
                  000193ac    000000a6     libgtrack3D.aer4f : gtrack_utilities_3d.oer4f (.text:gtrack_computeMahalanobis)
                  00019452    00000002     --HOLE-- [fill = 0]
                  00019454    000000a4     libdma_xwr68xx.aer4f : dma.oer4f (.text:DMA_assignChannel)
                  000194f8    000000a4     libesm_xwr68xx.aer4f : esm.oer4f (.text:ESM_init)
                  0001959c    000000a4     libmmwave_xwr68xx.aer4f : mmwave_fullcfg.oer4f (.text:MMWave_addBpmChirp)
                  00019640    000000a4                             : mmwave.oer4f (.text:MMWave_start)
                  000196e4    000000a4     tracker_utils.oer4f (.text:MmwDemo_CLIAllocationParamCfg)
                  00019788    000000a4     libsoc_xwr68xx.aer4f : soc_xwr68xx_mss.oer4f (.text:SOC_unhaltDSS)
                  0001982c    000000a4     rtsv7R4_T_le_v3D16_eabi.lib : k_sin.obj (.text)
                  000198d0    000000a0     libsoc_xwr68xx.aer4f : soc.oer4f (.text:SOC_registerSysIntListener)
                  00019970    000000a0     auto_init.aer4ft : auto_init.oer4ft (.text)
                  00019a10    000000a0     sysbios.aer4ft : BIOS.obj (.text:ti_sysbios_knl_Task_blockI__E)
                  00019ab0    0000009e     libgtrack3D.aer4f : gtrack_unit_stop.oer4f (.text:gtrack_unitStop)
                  00019b4e    00000002     --HOLE-- [fill = 0]
                  00019b50    0000009c     libmmwave_xwr68xx.aer4f : mmwave_link.oer4f (.text:MMWave_configLink)
                  00019bec    0000009c                             : mmwave_fullcfg.oer4f (.text:MMWave_getProfileHandle)
                  00019c88    0000009c     tracker_utils.oer4f (.text:MmwDemo_CLIGatingParamCfg)
                  00019d24    0000009c     mmwdemo_rfparser.oer4f (.text:MmwDemo_RFParser_parseConfig)
                  00019dc0    0000009c     libuart_xwr68xx.aer4f : uartsci.oer4f (.text:UartSci_write)
                  00019e5c    0000009c     rtsv7R4_T_le_v3D16_eabi.lib : memcpy_t2.obj (.text)
                  00019ef8    00000008     pcount3D_mss_per4ft.oer4ft (.text:xdc_runtime_Text_visitRope__I)
                  00019f00    0000009c     sysbios.aer4ft : BIOS.obj (.text:ti_sysbios_family_arm_v7r_vim_Hwi_initIntController__I)
                  00019f9c    00000004     libmmwave_xwr68xx.aer4f : mmwave_link.oer4f (.text:MMWave_registerInterruptHandler)
                  00019fa0    0000009c     sysbios.aer4ft : BIOS.obj (.text:ti_sysbios_family_arm_v7r_vim_Hwi_mapChannel__I)
                  0001a03c    00000004     libmmwave_xwr68xx.aer4f : mmwave_link.oer4f (.text:MMWave_unmaskHostIRQ)
                  0001a040    0000009c     sysbios.aer4ft : BIOS.obj (.text:ti_sysbios_knl_Semaphore_Instance_init__E)
                  0001a0dc    0000009a     libdpm_xwr68xx.aer4f : dpm_msg.oer4f (.text:DPM_msgResponseHandler)
                  0001a176    0000009a     libgtrack3D.aer4f : gtrack_math.oer4f (.text:gtrack_matrixMakeSymmetrical)
                  0001a210    00000098     libmmwave_xwr68xx.aer4f : mmwave_fullcfg.oer4f (.text:MMWave_getChirpCfg)
                  0001a2a8    00000098     rtsv7R4_T_le_v3D16_eabi.lib : fclose.obj (.text)
                  0001a340    00000098                                 : fputc.obj (.text)
                  0001a3d8    00000098     sysbios.aer4ft : vim_Hwi_asm_switch.obj (.text)
                  0001a470    00000098                    : BIOS.obj (.text:ti_sysbios_utils_Load_taskDeleteHook__E)
                  0001a508    00000096     libedma_xwr68xx.aer4f : edma.oer4f (.text:EDMA_getErrorStatusInfo)
                  0001a59e    00000096     libhwa_xwr68xx.aer4f : hwa.oer4f (.text:HWA_configRam)
                  0001a634    00000096     libuart_xwr68xx.aer4f : uartsci.oer4f (.text:UartSci_readChar)
                  0001a6ca    00000002     --HOLE-- [fill = 0]
                  0001a6cc    00000094     libsoc_xwr68xx.aer4f : soc_xwr68xx.oer4f (.text:SOC_gateClock)
                  0001a760    00000094     libgtrack3D.aer4f : gtrack_utilities_3d.oer4f (.text:gtrack_calcDistance)
                  0001a7f4    00000094                       : gtrack_math.oer4f (.text:gtrack_matrixCovFilter)
                  0001a888    00000094     libmmwavelink_xwr68xx.aer4f : rl_driver.oer4f (.text:rlDriverDeInit)
                  0001a91c    00000094                                 : rl_driver.oer4f (.text:rlDriverMsgReadCmdCtx)
                  0001a9b0    00000094                                 : rl_driver.oer4f (.text:rlDriverProcRdMsg)
                  0001aa44    00000094     sysbios.aer4ft : vim_Hwi_asm.obj (.text:ti_sysbios_family_arm_v7r_vim_Hwi_dispatchIRQ__I)
                  0001aad8    00000090     trackerproc_3d.oer4f (.text:DPU_trackerProc_updateParamTables)
                  0001ab68    00000090     libgpio_xwr68xx.aer4f : gpio.oer4f (.text:GPIO_init)
                  0001abf8    00000090     libmailbox_xwr68xx.aer4f : mailbox.oer4f (.text:Mailbox_close)
                  0001ac88    00000090     pcount3D_cli.oer4f (.text:Pcount3DDemo_CLIAntAngleFoV)
                  0001ad18    00000090     pcount3D_cli.oer4f (.text:Pcount3DDemo_CLIBpmCfg)
                  0001ada8    00000090     libuart_xwr68xx.aer4f : uartsci_dma.oer4f (.text:UartSci_initiateTxDMA)
                  0001ae38    00000090                           : uartsci.oer4f (.text:UartSci_read)
                  0001aec8    00000006     objdetrangehwa.oer4f (.text:DPC_ObjDetRangeHwa_GetRangeWinGenLen)
                  0001aece    00000002     --HOLE-- [fill = 0]
                  0001aed0    00000090     sysbios.aer4ft : BIOS.obj (.text:ti_sysbios_family_arm_v7a_Pmu_startCounter__E)
                  0001af60    00000090                    : BIOS.obj (.text:ti_sysbios_knl_Task_unblockI__E)
                  0001aff0    00000090                    : BIOS.obj (.text:xdc_runtime_LoggerBuf_getFilterLevel__E)
                  0001b080    0000008e     libgtrack3D.aer4f : gtrack_utilities_3d.oer4f (.text:gtrack_matrixComputePJT)
                  0001b10e    00000002     --HOLE-- [fill = 0]
                  0001b110    0000008c     libcli_xwr68xx.aer4f : cli_mmwave.oer4f (.text:CLI_MMWaveDataOutputMode)
                  0001b19c    0000008c     libdma_xwr68xx.aer4f : dma.oer4f (.text:DMA_deleteInstance)
                  0001b228    0000008c     pcount3D_cli.oer4f (.text:Pcount3DDemo_CLICompRangeBiasAndRxChanPhaseCfg)
                  0001b2b4    0000008c     libsoc_xwr68xx.aer4f : soc.oer4f (.text:SOC_init)
                  0001b340    0000008c                          : soc_xwr68xx.oer4f (.text:SOC_translateAddress)
                  0001b3cc    0000008c     libuart_xwr68xx.aer4f : uartsci_dma.oer4f (.text:UartSci_initiateRxDMA)
                  0001b458    0000008c     libgtrack3D.aer4f : gtrack_math.oer4f (.text:gtrack_matrixMultiply)
                  0001b4e4    0000008c     libmmwavelink_xwr68xx.aer4f : rl_device.oer4f (.text:rlDevicePowerOn)
                  0001b570    0000008c                                 : rl_driver.oer4f (.text:rlDriverMsgReadSpawnCtx)
                  0001b5fc    00000004     libmmwave_xwr68xx.aer4f : mmwave_link.oer4f (.text:MMWave_waitIRQStatus)
                  0001b600    0000008c     sysbios.aer4ft : BIOS.obj (.text:ti_sysbios_family_arm_v7a_Pmu_getCount__E)
                  0001b68c    00000004     mss_main.oer4f (.text:Pcount3DDemo_sleep)
                  0001b690    0000008c     sysbios.aer4ft : BIOS.obj (.text:ti_sysbios_family_arm_v7r_vim_Hwi_Instance_finalize__E)
                  0001b71c    00000004     libgtrack3D.aer4f : gtrack_listlib.oer4f (.text:gtrack_listGetFirst)
                  0001b720    0000008c     sysbios.aer4ft : BIOS.obj (.text:xdc_runtime_Memory_alloc__E)
                  0001b7ac    00000088     libhwa_xwr68xx.aer4f : hwa.oer4f (.text:HWA_disableParamSetInterrupt)
                  0001b834    00000088     libmmwave_xwr68xx.aer4f : mmwave_fullcfg.oer4f (.text:MMWave_getProfileCfg)
                  0001b8bc    00000088     tracker_utils.oer4f (.text:MmwDemo_CLIStateParamCfg)
                  0001b944    00000088     libgtrack3D.aer4f : gtrack_math.oer4f (.text:gtrack_matrixTransposeMultiply)
                  0001b9cc    00000088     rtsv7R4_T_le_v3D16_eabi.lib : vsnprintf.obj (.text)
                  0001ba54    0000000c     libgtrack3D.aer4f : gtrack_unit_get.oer4f (.text:gtrack_unitGetMCenter)
                  0001ba60    00000088     sysbios.aer4ft : BIOS.obj (.text:xdc_runtime_Text_putMod__E)
                  0001bae8    00000085     objdetrangehwa.oer4f (.text:DPC_ObjectDetection_stop)
                  0001bb6d    00000003     --HOLE-- [fill = 0]
                  0001bb70    00000085     sysbios.aer4ft : BIOS.obj (.text:xdc_runtime_System_formatNum__I)
                  0001bbf5    00000003     --HOLE-- [fill = 0]
                  0001bbf8    00000084     libmmwave_xwr68xx.aer4f : mmwave_dualcore.oer4f (.text:MMWave_deviceCfgAsyncEvent)
                  0001bc7c    00000084                             : mmwave_dualcore.oer4f (.text:MMWave_deviceEventFxn)
                  0001bd00    00000084                             : mmwave_fullcfg.oer4f (.text:MMWave_getNumBpmChirp)
                  0001bd84    00000084                             : mmwave.oer4f (.text:MMWave_open)
                  0001be08    00000084     libgtrack3D.aer4f : gtrack_utilities_3d.oer4f (.text:gtrack_isPointBehindTarget)
                  0001be8c    00000084                       : gtrack_math.oer4f (.text:gtrack_sincosd)
                  0001bf10    00000082     libhwa_xwr68xx.aer4f : hwa.oer4f (.text:HWA_paramDoneISR)
                  0001bf92    00000082     libgtrack3D.aer4f : gtrack_math.oer4f (.text:gtrack_matrixCovAcc)
                  0001c014    00000080     libcli_xwr68xx.aer4f : cli_mmwave.oer4f (.text:CLI_MMWaveChannelCfg)
                  0001c094    00000080     libdpm_xwr68xx.aer4f : dpm_mailbox.oer4f (.text:DPM_mboxRemoteMailboxCallbackFxn)
                  0001c114    00000080     libmmwave_xwr68xx.aer4f : mmwave_fullcfg.oer4f (.text:MMWave_getBpmChirpCfg)
                  0001c194    00000080     pcount3D_cli.oer4f (.text:Pcount3DDemo_CLIBoardAntGeometry0)
                  0001c214    00000080     pcount3D_cli.oer4f (.text:Pcount3DDemo_CLIBoardAntPhaseRot)
                  0001c294    00000080     libsoc_xwr68xx.aer4f : soc.oer4f (.text:SOC_getDeviceRFFreqScaleFactor)
                  0001c314    00000080     libuart_xwr68xx.aer4f : uartsci.oer4f (.text:UartSci_writePolling)
                  0001c394    00000080     libgtrack3D.aer4f : gtrack_module.oer4f (.text:gtrack_moduleUpdate)
                  0001c414    00000080                       : gtrack_utilities_3d.oer4f (.text:gtrack_sph2cart)
                  0001c494    00000080     libmmwavelink_xwr68xx.aer4f : rl_driver.oer4f (.text:rlDriverExecuteGetApi)
                  0001c514    0000000c                                 : rl_driver.oer4f (.text:rlDriverGetPlatformId)
                  0001c520    00000080     sysbios.aer4ft : BIOS.obj (.text:ti_sysbios_timers_rti_Timer_initDevice__I)
                  0001c5a0    0000007e     libosal_xwr68xx.aer4f : HwiP_tirtos.oer4f (.text:HwiP_create)
                  0001c61e    00000002     --HOLE-- [fill = 0]
                  0001c620    0000007e     libgtrack3D.aer4f : gtrack_math.oer4f (.text:gtrack_matrixPrint)
                  0001c69e    00000002     --HOLE-- [fill = 0]
                  0001c6a0    0000007c     libdpm_xwr68xx.aer4f : dpm_pipe.oer4f (.text:DPM_pipeSend)
                  0001c71c    0000007c     libedma_xwr68xx.aer4f : edma.oer4f (.text:EDMA_clearErrors)
                  0001c798    0000007c     libmmwave_xwr68xx.aer4f : mmwave_dualcore.oer4f (.text:MMWave_deviceOpenFxn)
                  0001c814    0000007c     libmailbox_xwr68xx.aer4f : mailbox.oer4f (.text:Mailbox_init)
                  0001c890    0000007c     tracker_utils.oer4f (.text:MmwDemoCLIMaxAccelerationParamCfg)
                  0001c90c    0000007c     pcount3D_cli.oer4f (.text:Pcount3DDemo_CLIBoardAntGeometry1)
                  0001c988    0000007c     pcount3D_cli.oer4f (.text:Pcount3DDemo_CLIStaticRngAngleCfg)
                  0001ca04    0000007c     libuart_xwr68xx.aer4f : uartsci.oer4f (.text:UartSci_readPolling)
                  0001ca80    0000007c     sysbios.aer4ft : arm_TaskSupport_asm.obj (.text:_ti_sysbios_family_arm_TaskSupport_buildTaskStack)
                  0001cafc    0000007c     rtsv7R4_T_le_v3D16_eabi.lib : s_round.obj (.text)
                  0001cb78    00000006     libdpm_xwr68xx.aer4f : dpm_mailbox.oer4f (.text:DPM_mboxSynch)
                  0001cb7e    00000002     --HOLE-- [fill = 0]
                  0001cb80    0000007c     sysbios.aer4ft : BIOS.obj (.text:xdc_runtime_Core_deleteObject__I)
                  0001cbfc    0000007b     pcount3D_cli.oer4f (.text:Pcount3DDemo_CLIGetSubframe)
                  0001cc77    00000001     --HOLE-- [fill = 0]
                  0001cc78    0000007a     rtsv7R4_T_le_v3D16_eabi.lib : memset_t2.obj (.text)
                  0001ccf2    00000002     --HOLE-- [fill = 0]
                  0001ccf4    00000078     libcli_xwr68xx.aer4f : cli_mmwave.oer4f (.text:CLI_MMWaveADCCfg)
                  0001cd6c    00000078     libedma_xwr68xx.aer4f : edma.oer4f (.text:EDMA_configParamSet)
                  0001cde4    00000078     libmmwave_xwr68xx.aer4f : mmwave_fullcfg.oer4f (.text:MMWave_getNumChirps)
                  0001ce5c    00000074                             : mmwave.oer4f (.text:MMWave_config)
                  0001ced0    00000074                             : mmwave_dualcore.oer4f (.text:MMWave_deviceStartFxn)
                  0001cf44    00000074     boot.aer4ft : boot.oer4ft (.text)
                  0001cfb8    00000074     libmmwavelink_xwr68xx.aer4f : rl_driver.oer4f (.text:rlDriverAsyncEventHandler)
                  0001d02c    00000074     rtsv7R4_T_le_v3D16_eabi.lib : getdevice.obj (.text)
                  0001d0a0    00000074                                 : s_frexp.obj (.text)
                  0001d114    00000072     libgtrack3D.aer4f : gtrack_listlib.oer4f (.text:gtrack_listRemoveElement)
                  0001d186    00000072     libmmwavelink_xwr68xx.aer4f : rl_driver.oer4f (.text:rlDriverClientCbCheck)
                  0001d1f8    00000070     libgpio_xwr68xx.aer4f : gpio.oer4f (.text:GPIO_toggle)
                  0001d268    00000070     libhwa_xwr68xx.aer4f : hwa.oer4f (.text:HWA_getDriverAccess)
                  0001d2d8    00000070     libmmwave_xwr68xx.aer4f : mmwave_dualcore.oer4f (.text:MMWave_deviceCfgFxn)
                  0001d348    00000070     rtsv7R4_T_le_v3D16_eabi.lib : printf.obj (.text)
                  0001d3b8    00000006     libedma_xwr68xx.aer4f : edma_low_level.oer4f (.text:EDMA3ClrCCErr)
                  0001d3be    00000002     --HOLE-- [fill = 0]
                  0001d3c0    00000070     sysbios.aer4ft : BIOS.obj (.text:xdc_runtime_Error_print__E)
                  0001d430    0000006e     libdma_xwr68xx.aer4f : dma.oer4f (.text:DMA_btcISR)
                  0001d49e    00000002     --HOLE-- [fill = 0]
                  0001d4a0    0000006c                          : dma.oer4f (.text:DMA_disableChannel)
                  0001d50c    0000006c                          : dma.oer4f (.text:DMA_enableChannel)
                  0001d578    0000006c     libdpm_xwr68xx.aer4f : dpm_core.oer4f (.text:DPM_relayResult)
                  0001d5e4    0000006c     libmmwave_xwr68xx.aer4f : mmwave_link.oer4f (.text:MMWave_spawn)
                  0001d650    0000006c                             : mmwave_link.oer4f (.text:MMWave_stopLink)
                  0001d6bc    0000006c     libpinmux_xwr68xx.aer4f : pinmux.oer4f (.text:Pinmux_Set_FuncSel)
                  0001d728    0000006c     rtsv7R4_T_le_v3D16_eabi.lib : copy_decompress_lzss.obj (.text:decompress:lzss)
                  0001d794    0000006c     libgtrack3D.aer4f : gtrack_math.oer4f (.text:gtrack_matrixCovNormalize)
                  0001d800    0000006c     rtsv7R4_T_le_v3D16_eabi.lib : trgmsg.obj (.text)
                  0001d86c    0000006a     libdma_xwr68xx.aer4f : dma.oer4f (.text:DMA_berISR)
                  0001d8d6    00000002     --HOLE-- [fill = 0]
                  0001d8d8    0000006a                          : dma.oer4f (.text:DMA_ftcISR)
                  0001d942    00000002     --HOLE-- [fill = 0]
                  0001d944    0000006a                          : dma.oer4f (.text:DMA_hbcISR)
                  0001d9ae    00000002     --HOLE-- [fill = 0]
                  0001d9b0    0000006a                          : dma.oer4f (.text:DMA_lfsISR)
                  0001da1a    0000006a     libuart_xwr68xx.aer4f : uartsci.oer4f (.text:UartSci_control)
                  0001da84    00000068     libdpm_xwr68xx.aer4f : dpm_msg.oer4f (.text:DPM_msgDPCCfgHandler)
                  0001daec    00000068     libmmwave_xwr68xx.aer4f : mmwave_dualcore.oer4f (.text:MMWave_deviceStopFxn)
                  0001db54    00000068     libmailbox_xwr68xx.aer4f : mailbox.oer4f (.text:Mailbox_readFlush)
                  0001dbbc    00000068     libgtrack3D.aer4f : gtrack_utilities_3d.oer4f (.text:gtrack_cart2sph)
                  0001dc24    00000068                       : gtrack_utilities_3d.oer4f (.text:gtrack_isPointInsideBox)
                  0001dc8c    00000068     rangeprochwa.oer4f (.text:rangeProcHWA_ConfigEDMATranspose)
                  0001dcf4    00000068     rangeprochwa.oer4f (.text:rangeProcHWA_ConfigHWACommon)
                  0001dd5c    00000068     libmmwavelink_xwr68xx.aer4f : rl_driver.oer4f (.text:rlDriverExecuteSetApi)
                  0001ddc4    00000068                                 : rl_driver.oer4f (.text:rlDriverHostIrqHandler)
                  0001de2c    00000068     rtsv7R4_T_le_v3D16_eabi.lib : hostlseek.obj (.text)
                  0001de94    00000068                                 : hostrename.obj (.text)
                  0001defc    00000066     libgtrack3D.aer4f : gtrack_utilities_3d.oer4f (.text:gtrack_computeMahalanobisPartial)
                  0001df62    00000066     libmmwavelink_xwr68xx.aer4f : rl_device.oer4f (.text:rlDevicePowerOff)
                  0001dfc8    00000064     libcli_xwr68xx.aer4f : cli_mmwave.oer4f (.text:CLI_MMWaveLowPowerCfg)
                  0001e02c    00000064     libedma_xwr68xx.aer4f : edma.oer4f (.text:EDMA_getTransferControllerErrorStatusInfo)
                  0001e090    00000064                           : edma.oer4f (.text:EDMA_startDmaTransfer)
                  0001e0f4    00000064     libhwa_xwr68xx.aer4f : hwa.oer4f (.text:HWA_getDMAChanIndex)
                  0001e158    00000064     libosal_xwr68xx.aer4f : SemaphoreP_tirtos.oer4f (.text:SemaphoreP_create)
                  0001e1bc    00000064     rtsv7R4_T_le_v3D16_eabi.lib : fseek.obj (.text)
                  0001e220    00000064                                 : sprintf.obj (.text)
                  0001e284    00000064     sysbios.aer4ft : exc_Exception_asm.obj (.text:ti_sysbios_family_arm_exc_Exception_initCore0__I)
                  0001e2e8    00000006     libedma_xwr68xx.aer4f : edma_low_level.oer4f (.text:EDMA3ErrIntrHighStatusGet)
                  0001e2ee    00000002     --HOLE-- [fill = 0]
                  0001e2f0    00000064     sysbios.aer4ft : BIOS.obj (.text:ti_sysbios_family_arm_v7r_vim_Hwi_phantomIntHandler__I)
                  0001e354    0000000c                    : BIOS.obj (.text:ti_sysbios_family_arm_v7a_Pmu_configureCounterI__I)
                  0001e360    00000064                    : BIOS.obj (.text:ti_sysbios_knl_Clock_logTick__E)
                  0001e3c4    0000000c                    : BIOS.obj (.text:ti_sysbios_family_arm_v7a_Pmu_getCountI__E)
                  0001e3d0    00000064                    : BIOS.obj (.text:ti_sysbios_utils_Load_logCPULoad__I)
                  0001e434    0000000c     pcount3D_mss_per4ft.oer4ft (.text:ti_sysbios_knl_Queue_Object__get__S)
                  0001e440    00000064     sysbios.aer4ft : BIOS.obj (.text:xdc_runtime_Startup_exec__E)
                  0001e4a4    00000062     libgtrack3D.aer4f : gtrack_unit_report.oer4f (.text:gtrack_unitReport)
                  0001e506    00000002     --HOLE-- [fill = 0]
                  0001e508    00000060     libcli_xwr68xx.aer4f : cli_mmwave.oer4f (.text:CLI_MMWaveExtensionHandler)
                  0001e568    00000006     libedma_xwr68xx.aer4f : edma_low_level.oer4f (.text:EDMA3GetCCErrStatus)
                  0001e56e    00000002     --HOLE-- [fill = 0]
                  0001e570    00000060     sysbios.aer4ft : BIOS.obj (.text:ti_sysbios_heaps_HeapMem_alloc__E)
                  0001e5d0    00000060                    : BIOS.obj (.text:xdc_runtime_Assert_raise__I)
                  0001e630    0000005f                    : BIOS.obj (.text:xdc_runtime_Text_putLab__E)
                  0001e68f    00000001     --HOLE-- [fill = 0]
                  0001e690    0000005e     libuart_xwr68xx.aer4f : uartsci.oer4f (.text:UartSci_writeChar)
                  0001e6ee    0000005e     libgtrack3D.aer4f : gtrack_utilities.oer4f (.text:gtrack_unrollRadialVelocity)
                  0001e74c    0000005c     libmmwave_xwr68xx.aer4f : mmwave_link.oer4f (.text:MMWave_mboxOpen)
                  0001e7a8    0000005c                             : mmwave.oer4f (.text:MMWave_stop)
                  0001e804    0000005c     rtsv7R4_T_le_v3D16_eabi.lib : hostopen.obj (.text)
                  0001e860    0000005c                                 : hostread.obj (.text)
                  0001e8bc    00000004     libgtrack3D.aer4f : gtrack_listlib.oer4f (.text:gtrack_listGetNext)
                  0001e8c0    0000005c     sysbios.aer4ft : BIOS.obj (.text:ti_sysbios_utils_Load_updateCurrentThreadTime__E)
                  0001e91c    0000005a     libuart_xwr68xx.aer4f : uartsci.oer4f (.text:UartSci_readCancel)
                  0001e976    0000005a     libmmwavelink_xwr68xx.aer4f : rl_driver.oer4f (.text:rlDriverCalChkSum)
                  0001e9d0    00000058     libdpm_xwr68xx.aer4f : dpm_core.oer4f (.text:DPM_execute)
                  0001ea28    00000058                          : dpm_mailbox.oer4f (.text:DPM_mboxInit)
                  0001ea80    00000058     libedma_xwr68xx.aer4f : edma_low_level.oer4f (.text:EDMA3EnableChInShadowReg)
                  0001ead8    00000058     libesm_xwr68xx.aer4f : esm.oer4f (.text:ESM_highpriority_FIQ)
                  0001eb30    00000058     libhwa_xwr68xx.aer4f : hwa.oer4f (.text:HWA_getDMAconfig)
                  0001eb88    00000058     libmmwave_xwr68xx.aer4f : mmwave.oer4f (.text:MMWave_execute)
                  0001ebe0    00000058                             : mmwave_link.oer4f (.text:MMWave_initCRC)
                  0001ec38    00000058     libuart_xwr68xx.aer4f : uartsci_dma.oer4f (.text:UartSci_closeDMA)
                  0001ec90    00000058     libgtrack3D.aer4f : gtrack_utilities_3d.oer4f (.text:gtrack_isInsideBoresightStaticZone)
                  0001ece8    00000058     rtsv7R4_T_le_v3D16_eabi.lib : close.obj (.text)
                  0001ed40    00000058                                 : hostwrite.obj (.text)
                  0001ed98    00000056     libmmwavelink_xwr68xx.aer4f : rl_driver.oer4f (.text:rlDriverOsiCbCheck)
                  0001edee    00000002     --HOLE-- [fill = 0]
                  0001edf0    00000054     libcrc_xwr68xx.aer4f : crc.oer4f (.text:CRC_getTransactionId)
                  0001ee44    00000054     libdma_xwr68xx.aer4f : dma.oer4f (.text:DMA_freeChannel)
                  0001ee98    00000054     libedma_xwr68xx.aer4f : edma.oer4f (.text:EDMA_error_isr)
                  0001eeec    00000054     libmmwave_xwr68xx.aer4f : mmwave_link.oer4f (.text:MMWave_initLink)
                  0001ef40    00000054     rtsv7R4_T_le_v3D16_eabi.lib : ltoa.obj (.text)
                  0001ef94    00000054     pcount3D_mss_per4ft.oer4ft (.text:ti_sysbios_family_arm_v7r_vim_Hwi_create)
                  0001efe8    00000006     libedma_xwr68xx.aer4f : edma_low_level.oer4f (.text:EDMA3GetErrIntrStatus)
                  0001efee    00000002     --HOLE-- [fill = 0]
                  0001eff0    00000054     sysbios.aer4ft : BIOS.obj (.text:ti_sysbios_heaps_HeapMem_getStats__E)
                  0001f044    00000052     libdpedma_hwa_xwr68xx.aer4f : dpedma.oer4f (.text:DPEDMA_setup_shadow_link)
                  0001f096    00000052     libgtrack3D.aer4f : gtrack_utilities_3d.oer4f (.text:gtrack_calcDim)
                  0001f0e8    00000052                       : gtrack_utilities_3d.oer4f (.text:gtrack_censor2world)
                  0001f13a    00000002     --HOLE-- [fill = 0]
                  0001f13c    00000050     libcrc_xwr68xx.aer4f : crc.oer4f (.text:CRC_getSignature)
                  0001f18c    00000050     libdpm_xwr68xx.aer4f : dpm_core.oer4f (.text:DPM_synch)
                  0001f1dc    00000050     libedma_xwr68xx.aer4f : edma_low_level.oer4f (.text:EDMA3MapChToEvtQ)
                  0001f22c    00000050     libmmwave_xwr68xx.aer4f : mmwave.oer4f (.text:MMWave_sync)
                  0001f27c    00000050     pcount3D_cli.oer4f (.text:Pcount3DDemo_CLISensorStop)
                  0001f2cc    00000050     libgtrack3D.aer4f : gtrack_utilities_3d.oer4f (.text:gtrack_isInsideSolidAngle)
                  0001f31c    00000050                       : gtrack_module.oer4f (.text:gtrack_modulePredict)
                  0001f36c    00000050     mss_main.oer4f (.text:mmwDemo_mssDPMTask)
                  0001f3bc    00000050     libmmwavelink_xwr68xx.aer4f : rl_driver.oer4f (.text:rlDeviceIdentifyCmdDir)
                  0001f40c    00000050                                 : rl_driver.oer4f (.text:rlDriverVerifyCRC)
                  0001f45c    00000050     rtsv7R4_T_le_v3D16_eabi.lib : atoi.obj (.text)
                  0001f4ac    00000050                                 : exit.obj (.text)
                  0001f4fc    00000050                                 : u_div32.obj (.text)
                  0001f54c    00000004     pcount3D_mss_per4ft.oer4ft (.text:ti_sysbios_BIOS_RtsGateProxy_enter__E)
                  0001f550    00000050     sysbios.aer4ft : BIOS.obj (.text:xdc_runtime_System_exit__E)
                  0001f5a0    0000004c     libcli_xwr68xx.aer4f : cli.oer4f (.text:CLI_write)
                  0001f5ec    0000004c     libedma_xwr68xx.aer4f : edma.oer4f (.text:EDMA_disableChannel)
                  0001f638    0000004c                           : edma.oer4f (.text:EDMA_enableChannel)
                  0001f684    0000004c     libhwa_xwr68xx.aer4f : hwa.oer4f (.text:HWA_enableDoneInterrupt)
                  0001f6d0    0000004c     libmailbox_xwr68xx.aer4f : mailbox.oer4f (.text:Mailbox_boxEmptyISRProcessing)
                  0001f71c    0000004c     pcount3D_cli.oer4f (.text:Pcount3DDemo_CLIFineMotionCfg)
                  0001f768    0000004c     libuart_xwr68xx.aer4f : uartsci.oer4f (.text:UartSci_writeCancel)
                  0001f7b4    0000004c     rtsv7R4_T_le_v3D16_eabi.lib : cpy_tbl.obj (.text)
                  0001f800    0000004c     sysbios.aer4ft : BIOS.obj (.text:ti_sysbios_family_arm_v7r_vim_Hwi_getStackInfo__E)
                  0001f84c    0000004c     pcount3D_mss_per4ft.oer4ft (.text:ti_sysbios_knl_Task_create)
                  0001f898    00000006     libedma_xwr68xx.aer4f : edma_low_level.oer4f (.text:EDMA3QdmaGetErrIntrStatus)
                  0001f89e    00000002     --HOLE-- [fill = 0]
                  0001f8a0    0000004c     sysbios.aer4ft : BIOS.obj (.text:ti_sysbios_knl_Task_stat__E)
                  0001f8ec    00000004     pcount3D_mss_per4ft.oer4ft (.text:ti_sysbios_BIOS_RtsGateProxy_leave__E)
                  0001f8f0    0000004c     sysbios.aer4ft : BIOS.obj (.text:ti_sysbios_utils_Load_taskSwitchHook__E)
                  0001f93c    0000004a     libdpm_xwr68xx.aer4f : dpm_mailbox.oer4f (.text:DPM_mboxSendResult)
                  0001f986    0000004a     libmailbox_xwr68xx.aer4f : mailbox.oer4f (.text:Mailbox_boxFullISRProcessing)
                  0001f9d0    0000004a     sysbios.aer4ft : BIOS.obj (.text:xdc_runtime_Core_assignParams__I)
                  0001fa1a    00000006     libosal_xwr68xx.aer4f : HwiP_tirtos.oer4f (.text:HwiP_restore)
                  0001fa20    0000004a     sysbios.aer4ft : BIOS.obj (.text:xdc_runtime_Text_xprintf__I)
                  0001fa6a    00000048     libdpm_xwr68xx.aer4f : dpm_pipe.oer4f (.text:DPM_pipeRecv)
                  0001fab2    00000002     --HOLE-- [fill = 0]
                  0001fab4    00000048     libhwa_xwr68xx.aer4f : hwa.oer4f (.text:HWA_deleteInstance)
                  0001fafc    00000048     libgtrack3D.aer4f : gtrack_module.oer4f (.text:gtrack_moduleAssociate)
                  0001fb44    00000048     libmmwavelink_xwr68xx.aer4f : rl_device.oer4f (.text:rlDeviceGetVersion)
                  0001fb8c    00000048                                 : rl_driver.oer4f (.text:rlDriverOsiInit)
                  0001fbd4    00000048     pcount3D_mss_per4ft.oer4ft (.text:xdc_runtime_LoggerBuf_Object__create__S)
                  0001fc1c    00000046     libmailbox_xwr68xx.aer4f : mailbox.oer4f (.text:CSL_FINSR)
                  0001fc62    00000002     --HOLE-- [fill = 0]
                  0001fc64    00000044     libadcbuf_xwr68xx.aer4f : adcbuf_mmwave.oer4f (.text:ADCBUF_MMWave_close)
                  0001fca8    00000044     libcrc_xwr68xx.aer4f : crc.oer4f (.text:CRC_resetSignature)
                  0001fcec    00000044     libdpm_xwr68xx.aer4f : dpm_core.oer4f (.text:DPM_start)
                  0001fd30    00000044                          : dpm_core.oer4f (.text:DPM_stop)
                  0001fd74    00000044     libmailbox_xwr68xx.aer4f : mailbox.oer4f (.text:Mailbox_boxFullISRMssDss)
                  0001fdb8    00000044     libsoc_xwr68xx.aer4f : soc_xwr68xx_mss.oer4f (.text:SOC_resetDMA)
                  0001fdfc    00000044     rtsv7R4_T_le_v3D16_eabi.lib : hostclose.obj (.text)
                  0001fe40    00000044                                 : hostunlink.obj (.text)
                  0001fe84    0000000a     libdpm_xwr68xx.aer4f : dpm_core.oer4f (.text:DPM_chirpISR)
                  0001fe8e    00000002     --HOLE-- [fill = 0]
                  0001fe90    00000044     sysbios.aer4ft : BIOS.obj (.text:ti_sysbios_family_arm_v7r_tms570_Core_Module_startup__E)
                  0001fed4    0000000a     libdpm_xwr68xx.aer4f : dpm_core.oer4f (.text:DPM_frameStartISR)
                  0001fede    00000002     --HOLE-- [fill = 0]
                  0001fee0    00000044     sysbios.aer4ft : BIOS.obj (.text:ti_sysbios_knl_Task_allBlockedFunction__I)
                  0001ff24    0000000a     libosal_xwr68xx.aer4f : MemoryP_tirtos.oer4f (.text:MemoryP_ctrlFree)
                  0001ff2e    00000002     --HOLE-- [fill = 0]
                  0001ff30    00000044     sysbios.aer4ft : BIOS.obj (.text:xdc_runtime_LoggerBuf_Module_startup__E)
                  0001ff74    0000000a     libosal_xwr68xx.aer4f : SemaphoreP_tirtos.oer4f (.text:SemaphoreP_post)
                  0001ff7e    00000002     --HOLE-- [fill = 0]
                  0001ff80    00000044     sysbios.aer4ft : BIOS.obj (.text:xdc_runtime_System_atexit__E)
                  0001ffc4    00000042     libedma_xwr68xx.aer4f : edma.oer4f (.text:EDMA_transferController_error_isr)
                  00020006    00000042     libhwa_xwr68xx.aer4f : hwa.oer4f (.text:HWA_reset)
                  00020048    00000042     libmmwave_xwr68xx.aer4f : mmwave_link.oer4f (.text:MMWave_executeLink)
                  0002008a    00000042     libgtrack3D.aer4f : gtrack_module.oer4f (.text:gtrack_moduleReport)
                  000200cc    00000042     libmmwavelink_xwr68xx.aer4f : rl_controller.oer4f (.text:rlGetSubBlock)
                  0002010e    00000002     --HOLE-- [fill = 0]
                  00020110    00000040     libedma_xwr68xx.aer4f : edma.oer4f (.text:EDMA_linkParamSets)
                  00020150    00000040     libhwa_xwr68xx.aer4f : hwa.oer4f (.text:HWA_getHWAMemInfo)
                  00020190    00000040     libgtrack3D.aer4f : gtrack_math.oer4f (.text:gtrack_matrixSetDiag)
                  000201d0    00000040     libmmwavelink_xwr68xx.aer4f : rl_driver.oer4f (.text:rlDriverValidateHdr)
                  00020210    00000040     rtsv7R4_T_le_v3D16_eabi.lib : strtok.obj (.text)
                  00020250    00000040     sysbios.aer4ft : BIOS.obj (.text:ti_sysbios_timers_rti_Timer_stop__E)
                  00020290    0000003e     libadcbuf_xwr68xx.aer4f : adcbuf_mmwave.oer4f (.text:CSL_FINSR)
                  000202ce    0000003e     libcrc_xwr68xx.aer4f : crc.oer4f (.text:CSL_FINSR)
                  0002030c    0000003e     libdma_xwr68xx.aer4f : dma.oer4f (.text:CSL_FINSR)
                  0002034a    0000003e     libgpio_xwr68xx.aer4f : gpio.oer4f (.text:CSL_FINSR)
                  00020388    0000003e     libhwa_xwr68xx.aer4f : hwa.oer4f (.text:CSL_FINSR)
                  000203c6    0000003e     libpinmux_xwr68xx.aer4f : pinmux.oer4f (.text:CSL_FINSR)
                  00020404    0000003e     libsoc_xwr68xx.aer4f : soc.oer4f (.text:CSL_FINSR)
                  00020442    0000003e                          : soc_xwr68xx.oer4f (.text:CSL_FINSR)
                  00020480    0000003e                          : soc_xwr68xx_mss.oer4f (.text:CSL_FINSR)
                  000204be    0000003e     libuart_xwr68xx.aer4f : uartsci.oer4f (.text:CSL_FINSR)
                  000204fc    0000003e     libdpm_xwr68xx.aer4f : dpm_msg.oer4f (.text:DPM_msgStopHandler)
                  0002053a    0000003e     libhwa_xwr68xx.aer4f : hwa.oer4f (.text:HWA_enable)
                  00020578    0000003e     libmmwave_xwr68xx.aer4f : mmwave.oer4f (.text:MMWave_decodeError)
                  000205b6    0000003e     libuart_xwr68xx.aer4f : uartsci.oer4f (.text:UartSci_close)
                  000205f4    0000003c     libcli_xwr68xx.aer4f : cli_mmwave.oer4f (.text:CLI_MMWaveFlushCfg)
                  00020630    0000003c     libmailbox_xwr68xx.aer4f : mailbox.oer4f (.text:Mailbox_writeReset)
                  0002066c    0000003c     libsoc_xwr68xx.aer4f : soc.oer4f (.text:SOC_unhaltBSS)
                  000206a8    0000003c     sysbios.aer4ft : vim_Hwi_asm.obj (.text:ti_sysbios_family_arm_v7r_vim_Hwi_init__I)
                  000206e4    0000000a     libuart_xwr68xx.aer4f : UART.oer4f (.text:UART_read)
                  000206ee    00000002     --HOLE-- [fill = 0]
                  000206f0    0000003c     sysbios.aer4ft : BIOS.obj (.text:ti_sysbios_hal_Hwi_checkStack)
                  0002072c    00000004     pcount3D_mss_per4ft.oer4ft (.text:ti_sysbios_family_arm_TaskSupport_Module__startupDone__S)
                  00020730    0000003c     sysbios.aer4ft : BIOS.obj (.text:ti_sysbios_heaps_HeapMem_init__I)
                  0002076c    0000003a     libhwa_xwr68xx.aer4f : hwa.oer4f (.text:HWA_setDMA2ACCManualTrig)
                  000207a6    00000002     --HOLE-- [fill = 0]
                  000207a8    0000003a     libosal_xwr68xx.aer4f : HwiP_tirtos.oer4f (.text:HwiP_delete)
                  000207e2    00000002     --HOLE-- [fill = 0]
                  000207e4    00000038     libcli_xwr68xx.aer4f : cli_mmwave.oer4f (.text:CLI_MMWaveExtensionInit)
                  0002081c    00000038     objdetrangehwa.oer4f (.text:DPC_ObjectDetection_deinit)
                  00020854    00000038     libdpm_xwr68xx.aer4f : dpm_core.oer4f (.text:DPM_notifyExecute)
                  0002088c    00000038     libedma_xwr68xx.aer4f : edma_low_level.oer4f (.text:EDMA3ClrMissEvt)
                  000208c4    00000038     libuart_xwr68xx.aer4f : UART.oer4f (.text:UART_init)
                  000208fc    00000036     libmmwavelink_xwr68xx.aer4f : rl_controller.oer4f (.text:rlAppendSubBlock)
                  00020932    00000036     rtsv7R4_T_le_v3D16_eabi.lib : strncpy.obj (.text)
                  00020968    00000036                                 : ull_tofs_t2.obj (.text)
                  0002099e    00000002     --HOLE-- [fill = 0]
                  000209a0    00000034     libadcbuf_xwr68xx.aer4f : ADCBuf.oer4f (.text:ADCBuf_open)
                  000209d4    00000034     libedma_xwr68xx.aer4f : edma.oer4f (.text:EDMA_configTransferControllerError)
                  00020a08    00000034     libhwa_xwr68xx.aer4f : hwa.oer4f (.text:HWA_disableDoneInterrupt)
                  00020a3c    00000034     libmmwave_xwr68xx.aer4f : mmwave_link.oer4f (.text:MMWave_mboxWrite)
                  00020a70    00000034     mss_main.oer4f (.text:Pcount3DDemo_isAllCfgInNonPendingState)
                  00020aa4    00000034     mss_main.oer4f (.text:Pcount3DDemo_isAllCfgInPendingState)
                  00020ad8    00000034     libsoc_xwr68xx.aer4f : soc_xwr68xx.oer4f (.text:SOC_enableHWA)
                  00020b0c    00000034                          : soc_xwr68xx_mss.oer4f (.text:SOC_hasDSPCore)
                  00020b40    00000034                          : soc_xwr68xx.oer4f (.text:SOC_setMMWaveDSSLinkState)
                  00020b74    00000034                          : soc_xwr68xx.oer4f (.text:SOC_setMMWaveMSSLinkState)
                  00020ba8    00000034                          : soc_xwr68xx.oer4f (.text:SOC_setMSSLinkState)
                  00020bdc    00000034     libuart_xwr68xx.aer4f : UART.oer4f (.text:UART_open)
                  00020c10    00000034     sysbios.aer4ft : BIOS.obj (.text:ti_sysbios_family_arm_a15_TimestampProvider_get64__E)
                  00020c44    00000034     pcount3D_mss_per4ft.oer4ft (.text:ti_sysbios_knl_Semaphore_create)
                  00020c78    00000032     libcrc_xwr68xx.aer4f : crc.oer4f (.text:CRC_getCRCDataSelectBitValue)
                  00020caa    00000002     --HOLE-- [fill = 0]
                  00020cac    00000032                          : crc.oer4f (.text:CRC_getCRCTypeBitValue)
                  00020cde    00000032     libedma_xwr68xx.aer4f : edma.oer4f (.text:EDMA_configQueueThreshold)
                  00020d10    00000032     libhwa_xwr68xx.aer4f : hwa.oer4f (.text:HWA_allParamDoneISR)
                  00020d42    0000000e     libosal_xwr68xx.aer4f : SemaphoreP_tirtos.oer4f (.text:SemaphoreP_delete)
                  00020d50    00000032     sysbios.aer4ft : BIOS.obj (.text:ti_sysbios_hal_Hwi_initStack)
                  00020d82    00000002     --HOLE-- [fill = 0]
                  00020d84    00000030     libadcbuf_xwr68xx.aer4f : ADCBuf.oer4f (.text:ADCBuf_init)
                  00020db4    00000030     libmmwave_xwr68xx.aer4f : mmwave_listlib.oer4f (.text:MMWave_listRemoveNode)
                  00020de4    00000030     mss_main.oer4f (.text:Pcount3DDemo_resetStaticCfgPendingState)
                  00020e14    00000030     libsoc_xwr68xx.aer4f : soc.oer4f (.text:SOC_getDevicePartNumber)
                  00020e44    00000030     libgtrack3D.aer4f : gtrack_math.oer4f (.text:gtrack_matrixAdd)
                  00020e74    00000030                       : gtrack_math.oer4f (.text:gtrack_matrixSub)
                  00020ea4    00000030     libmmwavelink_xwr68xx.aer4f : rl_sensor.oer4f (.text:rlSensorStart)
                  00020ed4    00000030     pcount3D_mss_per4ft.oer4ft (.text:ti_sysbios_BIOS_startFunc__I)
                  00020f04    0000000a     libuart_xwr68xx.aer4f : UART.oer4f (.text:UART_write)
                  00020f0e    00000002     --HOLE-- [fill = 0]
                  00020f10    00000030     sysbios.aer4ft : BIOS.obj (.text:ti_sysbios_family_arm_TaskSupport_start__E)
                  00020f40    00000030     pcount3D_mss_per4ft.oer4ft (.text:ti_sysbios_gates_GateHwi_Object__create__S)
                  00020f70    00000030     pcount3D_mss_per4ft.oer4ft (.text:ti_sysbios_gates_GateMutex_Object__create__S)
                  00020fa0    00000030     pcount3D_mss_per4ft.oer4ft (.text:ti_sysbios_heaps_HeapMem_Object__create__S)
                  00020fd0    00000030     sysbios.aer4ft : BIOS.obj (.text:ti_sysbios_heaps_HeapMem_free__E)
                  00021000    00000030     pcount3D_mss_per4ft.oer4ft (.text:ti_sysbios_knl_Semaphore_construct)
                  00021030    00000030     pcount3D_mss_per4ft.oer4ft (.text:xdc_runtime_Error_policyLog__I)
                  00021060    0000002f     sysbios.aer4ft : BIOS.obj (.text:xdc_runtime_Text_printVisFxn__I)
                  0002108f    00000001     --HOLE-- [fill = 0]
                  00021090    0000002e     libdpm_xwr68xx.aer4f : dpm_msg.oer4f (.text:DPM_msgStartHandler)
                  000210be    0000002e     objdetrangehwa.oer4f (.text:_DPC_Objdet_Assert)
                  000210ec    00000004     pcount3D_mss_per4ft.oer4ft (.text:ti_sysbios_family_arm_v7r_vim_Hwi_delete)
                  000210f0    0000002e     sysbios.aer4ft : BIOS.obj (.text:ti_sysbios_knl_Semaphore_pendTimeout__I)
                  0002111e    0000002e     pcount3D_mss_per4ft.oer4ft (.text:ti_sysbios_rts_MemAlloc_alloc)
                  0002114c    0000002c     libdpm_xwr68xx.aer4f : dpm_pipe.oer4f (.text:DPM_pipeInit)
                  00021178    0000002c     trackerproc_3d.oer4f (.text:DPU_TrackerProc_init)
                  000211a4    0000002c     libedma_xwr68xx.aer4f : edma.oer4f (.text:EDMA_validate_channelIdchannelType)
                  000211d0    0000002c     libgpio_xwr68xx.aer4f : gpio.oer4f (.text:GPIO_HighPriorityISR)
                  000211fc    0000002c                           : gpio.oer4f (.text:GPIO_LowPriorityISR)
                  00021228    0000002c     libmmwave_xwr68xx.aer4f : mmwave_osal.oer4f (.text:MMWave_osalMutexCreate)
                  00021254    0000002c                             : mmwave_osal.oer4f (.text:MMWave_osalSemCreate)
                  00021280    0000002c     libsoc_xwr68xx.aer4f : soc_xwr68xx_mss.oer4f (.text:SOC_waitBSSPowerUp)
                  000212ac    0000002c     libmmwavelink_xwr68xx.aer4f : rl_device.oer4f (.text:rlDeviceGetMssVersion)
                  000212d8    0000002c                                 : rl_sensor.oer4f (.text:rlSensorStop)
                  00021304    0000002c     rtsv7R4_T_le_v3D16_eabi.lib : unlink.obj (.text)
                  00021330    0000002c     pcount3D_mss_per4ft.oer4ft (.text:ti_sysbios_BIOS_atExitFunc__I)
                  0002135c    0000002c     pcount3D_mss_per4ft.oer4ft (.text:ti_sysbios_gates_GateHwi_Handle__label__S)
                  00021388    0000002c     pcount3D_mss_per4ft.oer4ft (.text:ti_sysbios_gates_GateMutex_Handle__label__S)
                  000213b4    0000002c     pcount3D_mss_per4ft.oer4ft (.text:ti_sysbios_heaps_HeapMem_Handle__label__S)
                  000213e0    0000002c     pcount3D_mss_per4ft.oer4ft (.text:ti_sysbios_knl_Clock_doTick__I)
                  0002140c    0000002c     pcount3D_mss_per4ft.oer4ft (.text:ti_sysbios_knl_Queue_construct)
                  00021438    00000006     tracker_utils.oer4f (.text:gtrack_log)
                  0002143e    00000002     --HOLE-- [fill = 0]
                  00021440    0000002c     sysbios.aer4ft : BIOS.obj (.text:ti_sysbios_timers_rti_Timer_periodicStub__E)
                  0002146c    0000002c     pcount3D_mss_per4ft.oer4ft (.text:xdc_runtime_LoggerBuf_Handle__label__S)
                  00021498    0000002a     objdetrangehwa.oer4f (.text:DPC_ObjDetRangeHwa_MemPoolAlloc)
                  000214c2    0000002a     libdpm_xwr68xx.aer4f : dpm_pipe.oer4f (.text:DPM_pipeDeinit)
                  000214ec    0000002a     libedma_xwr68xx.aer4f : edma.oer4f (.text:EDMA_isError)
                  00021516    0000002a     mmwdemo_adcconfig.oer4f (.text:MmwDemo_ADCBufOpen)
                  00021540    0000002a     libsoc_xwr68xx.aer4f : soc.oer4f (.text:SOC_SystemISR)
                  0002156a    0000002a     libmmwavelink_xwr68xx.aer4f : rl_device.oer4f (.text:rlDeviceGetMmWaveLinkVersion)
                  00021594    0000002a     rtsv7R4_T_le_v3D16_eabi.lib : strspn.obj (.text)
                  000215be    00000028     objdetrangehwa.oer4f (.text:DPC_ObjDetRangeHwa_reconfigSubFrame)
                  000215e6    00000002     --HOLE-- [fill = 0]
                  000215e8    00000028     libdpm_xwr68xx.aer4f : dpm_mailbox.oer4f (.text:DPM_mboxDeinit)
                  00021610    00000028                          : dpm_msg.oer4f (.text:DPM_msgInitHeader)
                  00021638    00000028     rangeprochwa.oer4f (.text:DPU_RangeProcHWA_deinit)
                  00021660    00000028     libmailbox_xwr68xx.aer4f : mailbox.oer4f (.text:Mailbox_Config_init)
                  00021688    00000028     libuart_xwr68xx.aer4f : uartsci_dma.oer4f (.text:UartSci_RxDMACallbackFxn)
                  000216b0    00000028                           : uartsci_dma.oer4f (.text:UartSci_TxDMACallbackFxn)
                  000216d8    00000028     libmmwavelink_xwr68xx.aer4f : rl_driver.oer4f (.text:rlDriverConstructInMsg)
                  00021700    00000028     rtsv7R4_T_le_v3D16_eabi.lib : e_sqrtf.obj (.text)
                  00021728    00000028                                 : lseek.obj (.text)
                  00021750    00000028                                 : write.obj (.text)
                  00021778    00000006     libmmwavelink_xwr68xx.aer4f : rl_controller.oer4f (.text:rlGetSubBlockId)
                  0002177e    00000002     --HOLE-- [fill = 0]
                  00021780    00000028     sysbios.aer4ft : BIOS.obj (.text:ti_sysbios_knl_Idle_run__E)
                  000217a8    00000006     libmmwavelink_xwr68xx.aer4f : rl_controller.oer4f (.text:rlGetSubBlockLen)
                  000217ae    00000002     --HOLE-- [fill = 0]
                  000217b0    00000028     sysbios.aer4ft : BIOS.obj (.text:xdc_runtime_SysStd_abort__E)
                  000217d8    00000006                    : a15_TimestampProvider_asm.obj (.text:ti_sysbios_family_arm_a15_TimestampProvider_get32__E)
                  000217de    00000002     --HOLE-- [fill = 0]
                  000217e0    00000028                    : BIOS.obj (.text:xdc_runtime_System_aprintf_va__F)
                  00021808    00000026     libgtrack3D.aer4f : gtrack_listlib.oer4f (.text:gtrack_listEnqueue)
                  0002182e    00000026                       : gtrack_math.oer4f (.text:gtrack_vectorAdd)
                  00021854    00000026                       : gtrack_math.oer4f (.text:gtrack_vectorSub)
                  0002187a    00000026     libmmwavelink_xwr68xx.aer4f : rl_sensor.oer4f (.text:rlRfInitCalibConfig)
                  000218a0    00000026                                 : rl_sensor.oer4f (.text:rlRfRunTimeCalibConfig)
                  000218c6    00000026                                 : rl_sensor.oer4f (.text:rlRfSetCalMonFreqLimitConfig)
                  000218ec    00000026                                 : rl_sensor.oer4f (.text:rlRfSetDeviceCfg)
                  00021912    00000026                                 : rl_sensor.oer4f (.text:rlRfSetLdoBypassConfig)
                  00021938    00000026                                 : rl_sensor.oer4f (.text:rlSetAdcOutConfig)
                  0002195e    00000026                                 : rl_sensor.oer4f (.text:rlSetBpmCommonConfig)
                  00021984    00000026                                 : rl_sensor.oer4f (.text:rlSetChannelConfig)
                  000219aa    00000026                                 : rl_sensor.oer4f (.text:rlSetContModeConfig)
                  000219d0    00000026     rtsv7R4_T_le_v3D16_eabi.lib : memcmp.obj (.text)
                  000219f6    0000000a     libuart_xwr68xx.aer4f : UART.oer4f (.text:UART_writePolling)
                  00021a00    00000026     sysbios.aer4ft : BIOS.obj (.text:xdc_runtime_System_printf_va__F)
                  00021a26    00000002     --HOLE-- [fill = 0]
                  00021a28    00000025     mss_main.oer4f (.text:_Pcount3DDemo_debugAssert)
                  00021a4d    00000001     --HOLE-- [fill = 0]
                  00021a4e    00000024     libcrc_xwr68xx.aer4f : crc.oer4f (.text:CRC_isTransactionIdValid)
                  00021a72    00000002     --HOLE-- [fill = 0]
                  00021a74    00000024     libedma_xwr68xx.aer4f : edma_low_level.oer4f (.text:EDMA3ClrEvt)
                  00021a98    00000024                           : edma_low_level.oer4f (.text:EDMA3ClrIntr)
                  00021abc    00000024                           : edma_low_level.oer4f (.text:EDMA3DisableDmaEvt)
                  00021ae0    00000024                           : edma_low_level.oer4f (.text:EDMA3DisableEvtIntr)
                  00021b04    00000024                           : edma_low_level.oer4f (.text:EDMA3EnableDmaEvt)
                  00021b28    00000024                           : edma_low_level.oer4f (.text:EDMA3EnableEvtIntr)
                  00021b4c    00000024                           : edma_low_level.oer4f (.text:EDMA3SetEvt)
                  00021b70    00000024                           : edma.oer4f (.text:EDMA_clearTransferControllerErrors)
                  00021b94    00000024     libgpio_xwr68xx.aer4f : gpio.oer4f (.text:GPIO_processInterrupt)
                  00021bb8    00000024     libsoc_xwr68xx.aer4f : soc_xwr68xx.oer4f (.text:SOC_isDSSOperational)
                  00021bdc    00000024                          : soc_xwr68xx.oer4f (.text:SOC_isMMWaveDSSOperational)
                  00021c00    00000024                          : soc_xwr68xx.oer4f (.text:SOC_isMMWaveMSSOperational)
                  00021c24    00000024     libgtrack3D.aer4f : gtrack_listlib.oer4f (.text:gtrack_listDequeue)
                  00021c48    00000024     libmmwavelink_xwr68xx.aer4f : rl_sensor.oer4f (.text:rlEnableContMode)
                  00021c6c    00000024                                 : rl_sensor.oer4f (.text:rlRfSetCalMonTimeUnitConfig)
                  00021c90    00000024                                 : rl_sensor.oer4f (.text:rlSetLowPowerModeConfig)
                  00021cb4    00000024     pcount3D_mss_per4ft.oer4ft (.text:ti_sysbios_BIOS_registerRTSLock__I)
                  00021cd8    00000024     pcount3D_mss_per4ft.oer4ft (.text:ti_sysbios_BIOS_removeRTSLock__I)
                  00021cfc    00000024     pcount3D_mss_per4ft.oer4ft (.text:ti_sysbios_gates_GateMutex_Object__delete__S)
                  00021d20    00000024     sysbios.aer4ft : BIOS.obj (.text:ti_sysbios_knl_Clock_Module_startup__E)
                  00021d44    00000024     pcount3D_mss_per4ft.oer4ft (.text:ti_sysbios_knl_Semaphore_Object__delete__S)
                  00021d68    00000022     libuart_xwr68xx.aer4f : uartsci.oer4f (.text:UartSci_disableRxDMA)
                  00021d8a    00000022                           : uartsci.oer4f (.text:UartSci_enableRxDMA)
                  00021dac    00000022     rtsv7R4_T_le_v3D16_eabi.lib : strcspn.obj (.text)
                  00021dce    00000020     libdpm_xwr68xx.aer4f : dpm_listlib.oer4f (.text:DPM_listCat)
                  00021dee    00000002     --HOLE-- [fill = 0]
                  00021df0    00000020     libedma_xwr68xx.aer4f : edma_low_level.oer4f (.text:EDMA3QdmaClrMissEvt)
                  00021e10    00000020     libesm_xwr68xx.aer4f : esm.oer4f (.text:ESM_lowpriority_IRQ)
                  00021e30    00000020     libmmwave_xwr68xx.aer4f : mmwave_listlib.oer4f (.text:MMWave_listCat)
                  00021e50    00000020     mmwdemo_rfparser.oer4f (.text:MmwDemo_RFParser_getChirpEndIdx)
                  00021e70    00000020     libpinmux_xwr68xx.aer4f : pinmux.oer4f (.text:Pinmux_Unlock)
                  00021e90    00000020     libgtrack3D.aer4f : gtrack_math.oer4f (.text:gtrack_vectorScalarMulAcc)
                  00021eb0    00000020     libmmwavelink_xwr68xx.aer4f : rl_sensor.oer4f (.text:rlRfInit)
                  00021ed0    00000020     rtsv7R4_T_le_v3D16_eabi.lib : memchr.obj (.text)
                  00021ef0    00000020     sysbios.aer4ft : BIOS.obj (.text:ti_sysbios_family_arm_TaskSupport_stackUsed__E)
                  00021f10    00000020                    : BIOS.obj (.text:ti_sysbios_family_arm_a15_TimestampProvider_autoRefreshFxn__I)
                  00021f30    00000020                    : BIOS.obj (.text:ti_sysbios_family_arm_v7a_Pmu_Module_startup__E)
                  00021f50    00000020     pcount3D_mss_per4ft.oer4ft (.text:ti_sysbios_family_arm_v7r_vim_Hwi_Object__delete__S)
                  00021f70    00000020     sysbios.aer4ft : BIOS.obj (.text:ti_sysbios_family_arm_v7r_vim_Hwi_disableInterrupt__E)
                  00021f90    00000020                    : BIOS.obj (.text:ti_sysbios_family_arm_v7r_vim_Hwi_enableInterrupt__E)
                  00021fb0    00000020     pcount3D_mss_per4ft.oer4ft (.text:ti_sysbios_gates_GateHwi_Object__delete__S)
                  00021fd0    00000020     pcount3D_mss_per4ft.oer4ft (.text:ti_sysbios_heaps_HeapMem_Object__delete__S)
                  00021ff0    00000020     pcount3D_mss_per4ft.oer4ft (.text:ti_sysbios_knl_Semaphore_destruct)
                  00022010    00000020     pcount3D_mss_per4ft.oer4ft (.text:xdc_runtime_LoggerBuf_Object__delete__S)
                  00022030    0000001e     libdpm_xwr68xx.aer4f : dpm_pipe.oer4f (.text:DPM_pipeDequeue)
                  0002204e    0000001e     libmmwave_xwr68xx.aer4f : mmwave_fullcfg.oer4f (.text:MMWave_internalDelChirp)
                  0002206c    0000001e     libsoc_xwr68xx.aer4f : soc_xwr68xx_mss.oer4f (.text:SOC_getOutAddr_LUTType)
                  0002208a    0000001e     libgtrack3D.aer4f : gtrack_math.oer4f (.text:gtrack_matrixInit)
                  000220a8    0000001e     pcount3D_mss_per4ft.oer4ft (.text:ti_sysbios_BIOS_errorRaiseHook__I)
                  000220c6    0000001c     libcrc_xwr68xx.aer4f : crc.oer4f (.text:CRC_releaseTransactionId)
                  000220e2    0000001c     libadcbuf_xwr68xx.aer4f : adcbuf_mmwave.oer4f (.text:CSL_FEXTR)
                  000220fe    0000001c     libdma_xwr68xx.aer4f : dma.oer4f (.text:CSL_FEXTR)
                  0002211a    0000001c     libhwa_xwr68xx.aer4f : hwa.oer4f (.text:CSL_FEXTR)
                  00022136    0000001c     libmmwave_xwr68xx.aer4f : mmwave.oer4f (.text:CSL_FEXTR)
                  00022152    0000001c     libsoc_xwr68xx.aer4f : soc.oer4f (.text:CSL_FEXTR)
                  0002216e    0000001c                          : soc_xwr68xx.oer4f (.text:CSL_FEXTR)
                  0002218a    0000001c                          : soc_xwr68xx_mss.oer4f (.text:CSL_FEXTR)
                  000221a6    0000001c     libuart_xwr68xx.aer4f : uartsci.oer4f (.text:CSL_FEXTR)
                  000221c2    0000001c     libdpm_xwr68xx.aer4f : dpm_listlib.oer4f (.text:DPM_listRemove)
                  000221de    0000001c     libmmwave_xwr68xx.aer4f : mmwave_listlib.oer4f (.text:MMWave_listRemove)
                  000221fa    00000002     --HOLE-- [fill = 0]
                  000221fc    0000001c     mss_main.oer4f (.text:Pcount3DDemo_DPC_ObjectDetection_processFrameBeginCallBackFxn)
                  00022218    0000001c     libsoc_xwr68xx.aer4f : soc_xwr68xx_mss.oer4f (.text:SOC_getInAddr_LUTType)
                  00022234    0000001c     sysbios.aer4ft : arm_TaskSupport_asm.obj (.text:_ti_sysbios_family_arm_TaskSupport_glue)
                  00022250    0000001c                    : arm_TaskSupport_asm.obj (.text:_ti_sysbios_family_arm_TaskSupport_swap__E)
                  0002226c    0000001c     libgtrack3D.aer4f : gtrack_math.oer4f (.text:gtrack_matrixGetDiag)
                  00022288    0000001c                       : gtrack_math.oer4f (.text:gtrack_vectorScalarMul)
                  000222a4    0000001c     rtsv7R4_T_le_v3D16_eabi.lib : memccpy.obj (.text)
                  000222c0    0000001c     pcount3D_mss_per4ft.oer4ft (.text:ti_sysbios_BIOS_rtsLock__I)
                  000222dc    00000004     pcount3D_mss_per4ft.oer4ft (.text:ti_sysbios_heaps_HeapMem_Module_GateProxy_enter__E)
                  000222e0    0000001c     sysbios.aer4ft : BIOS.obj (.text:ti_sysbios_family_arm_v7r_vim_Hwi_clearInterrupt__E)
                  000222fc    00000004     pcount3D_mss_per4ft.oer4ft (.text:ti_sysbios_heaps_HeapMem_Module_GateProxy_leave__E)
                  00022300    0000001c     sysbios.aer4ft : BIOS.obj (.text:ti_sysbios_gates_GateMutex_Instance_init__E)
                  0002231c    00000004     pcount3D_mss_per4ft.oer4ft (.text:ti_sysbios_knl_Clock_TimerProxy_getMaxTicks__E)
                  00022320    0000001c     sysbios.aer4ft : BIOS.obj (.text:ti_sysbios_gates_GateMutex_leave__E)
                  0002233c    0000001c     pcount3D_mss_per4ft.oer4ft (.text:ti_sysbios_knl_Queue_destruct)
                  00022358    00000004     pcount3D_mss_per4ft.oer4ft (.text:ti_sysbios_knl_Semaphore_delete)
                  0002235c    00000004     pcount3D_mss_per4ft.oer4ft (.text:xdc_runtime_LoggerBuf_Module_GateProxy_enter__E)
                  00022360    0000001c     sysbios.aer4ft : BIOS.obj (.text:ti_sysbios_knl_Task_restoreHwi__E)
                  0002237c    00000004     pcount3D_mss_per4ft.oer4ft (.text:xdc_runtime_LoggerBuf_Module_GateProxy_leave__E)
                  00022380    0000001c     sysbios.aer4ft : BIOS.obj (.text:xdc_runtime_LoggerBuf_Instance_finalize__E)
                  0002239c    0000001a     objdetrangehwa.oer4f (.text:DPC_ObjDetRangeHwa_GenRangeWindow)
                  000223b6    0000001a     libdpm_xwr68xx.aer4f : dpm_listlib.oer4f (.text:DPM_listAdd)
                  000223d0    0000001a                          : dpm_mailbox.oer4f (.text:DPM_mboxMsgSend)
                  000223ea    0000001a                          : dpm_msg.oer4f (.text:DPM_msgAssertHandler)
                  00022404    0000001a                          : dpm_msg.oer4f (.text:DPM_msgDPCInfoHandler)
                  0002241e    0000001a     libedma_xwr68xx.aer4f : edma_low_level.oer4f (.text:EDMA3SetPaRAM)
                  00022438    0000001a     libmmwave_xwr68xx.aer4f : mmwave_dualcore.oer4f (.text:MMWave_deviceSyncFxn)
                  00022452    0000001a                             : mmwave.oer4f (.text:MMWave_encodeError)
                  0002246c    0000001a                             : mmwave_listlib.oer4f (.text:MMWave_listAdd)
                  00022486    0000001a     pcount3D_mss_per4ft.oer4ft (.text:free)
                  000224a0    0000001a     libmmwavelink_xwr68xx.aer4f : rl_sensor.oer4f (.text:rlGetRfDieId)
                  000224ba    0000001a     rtsv7R4_T_le_v3D16_eabi.lib : s_copysign.obj (.text)
                  000224d4    0000001a     sysbios.aer4ft : a15_TimestampProvider_asm.obj (.text:ti_sysbios_family_arm_a15_TimestampProvider_initCCNT__I)
                  000224ee    0000001a     pcount3D_mss_per4ft.oer4ft (.text:xdc_runtime_System_aprintf__E)
                  00022508    0000001a     pcount3D_mss_per4ft.oer4ft (.text:xdc_runtime_System_printf__E)
                  00022522    00000018     libadcbuf_xwr68xx.aer4f : adcbuf_mmwave.oer4f (.text:ADCBUFContinuousModeCtrl)
                  0002253a    00000002     --HOLE-- [fill = 0]
                  0002253c    00000018     libcli_xwr68xx.aer4f : cli_mmwave.oer4f (.text:CLI_getMMWaveExtensionOpenConfig)
                  00022554    00000018     libdpm_xwr68xx.aer4f : dpm_msg.oer4f (.text:DPM_msgBSSFaultHandler)
                  0002256c    00000018     libedma_xwr68xx.aer4f : edma_low_level.oer4f (.text:EDMA3DisableQdmaEvt)
                  00022584    00000018                           : edma_low_level.oer4f (.text:EDMA3EnableQdmaEvt)
                  0002259c    00000018     libmmwave_xwr68xx.aer4f : mmwave_osal.oer4f (.text:MMWave_osalMutexLock)
                  000225b4    00000018                             : mmwave_osal.oer4f (.text:MMWave_osalSemWait)
                  000225cc    00000018     libmailbox_xwr68xx.aer4f : mailbox.oer4f (.text:Mailbox_boxEmptyISRBss)
                  000225e4    00000018                              : mailbox.oer4f (.text:Mailbox_boxEmptyISRMssDss)
                  000225fc    00000018                              : mailbox.oer4f (.text:Mailbox_boxFullISRBss)
                  00022614    00000018     mmwdemo_rfparser.oer4f (.text:MmwDemo_RFParser_getChirpStartIdx)
                  0002262c    00000018     mss_main.oer4f (.text:Pcount3DDemo_DPC_ObjectDetection_processInterFrameCallBackFxn)
                  00022644    00000018     tracker_utils.oer4f (.text:gtrack_alloc)
                  0002265c    00000018     libmmwavelink_xwr68xx.aer4f : rl_device.oer4f (.text:rlDeviceGetRfVersion)
                  00022674    00000018                                 : rl_driver.oer4f (.text:rlDriverCalCRC)
                  0002268c    00000018                                 : rl_driver.oer4f (.text:rlDriverFillPayload)
                  000226a4    00000018     rtsv7R4_T_le_v3D16_eabi.lib : args_main.obj (.text)
                  000226bc    00000018                                 : strcmp.obj (.text)
                  000226d4    00000018     pcount3D_mss_per4ft.oer4ft (.text:ti_sysbios_BIOS_rtsUnlock__I)
                  000226ec    00000018     sysbios.aer4ft : BIOS.obj (.text:ti_sysbios_family_arm_v7a_Pmu_initCounters__I)
                  00022704    00000018     pcount3D_mss_per4ft.oer4ft (.text:ti_sysbios_family_arm_v7r_vim_Hwi_Module__startupDone__F)
                  0002271c    00000018     pcount3D_mss_per4ft.oer4ft (.text:ti_sysbios_family_arm_v7r_vim_Hwi_Params__init__S)
                  00022734    00000018     pcount3D_mss_per4ft.oer4ft (.text:ti_sysbios_knl_Semaphore_Params__init__S)
                  0002274c    00000018     pcount3D_mss_per4ft.oer4ft (.text:ti_sysbios_knl_Task_Params__init__S)
                  00022764    0000000a     libgtrack3D.aer4f : gtrack_listlib.oer4f (.text:gtrack_listInit)
                  0002276e    00000002     --HOLE-- [fill = 0]
                  00022770    00000018     sysbios.aer4ft : BIOS.obj (.text:ti_sysbios_knl_Task_enter__I)
                  00022788    00000018     pcount3D_mss_per4ft.oer4ft (.text:ti_sysbios_timers_rti_Timer_Module__startupDone__F)
                  000227a0    00000018     sysbios.aer4ft : BIOS.obj (.text:xdc_runtime_Error_init__E)
                  000227b8    00000016     rangeprochwa.oer4f (.text:rangeProcHWA_EDMA_transferCompletionCallbackFxn)
                  000227ce    00000016     rtsv7R4_T_le_v3D16_eabi.lib : strchr.obj (.text)
                  000227e4    00000016                                 : strlen.obj (.text)
                  000227fa    00000016     pcount3D_mss_per4ft.oer4ft (.text:ti_sysbios_BIOS_exitFunc__I)
                  00022810    00000016     sysbios.aer4ft : BIOS.obj (.text:ti_sysbios_knl_Idle_loop__E)
                  00022826    0000000a     libmathutils.aer4f : mathutils.oer4f (.text:mathUtils_floorLog2)
                  00022830    00000016     sysbios.aer4ft : BIOS.obj (.text:ti_sysbios_knl_Task_sleepTimeout__I)
                  00022846    00000014     libosal_xwr68xx.aer4f : CycleprofilerP_tirtos.oer4f (.text:CycleprofilerP_init)
                  0002285a    00000002     --HOLE-- [fill = 0]
                  0002285c    00000014     libedma_xwr68xx.aer4f : edma_low_level.oer4f (.text:EDMA3GetIntrStatus)
                  00022870    00000014                           : edma_low_level.oer4f (.text:EDMA3IntrStatusHighGet)
                  00022884    00000014                           : edma_low_level.oer4f (.text:EDMA3MapQdmaChToPaRAM)
                  00022898    00000014     libosal_xwr68xx.aer4f : HwiP_tirtos.oer4f (.text:HwiP_Params_init)
                  000228ac    00000014     libmmwave_xwr68xx.aer4f : mmwave_fullcfg.oer4f (.text:MMWave_internalDelBpmChirp)
                  000228c0    00000014                             : mmwave_fullcfg.oer4f (.text:MMWave_internalDelProfile)
                  000228d4    00000014                             : mmwave_osal.oer4f (.text:MMWave_osalMutexDelete)
                  000228e8    00000014                             : mmwave_osal.oer4f (.text:MMWave_osalSemDelete)
                  000228fc    00000014     mmwdemo_rfparser.oer4f (.text:MmwDemo_RFParser_getNumSubFrames)
                  00022910    00000014     libpinmux_xwr68xx.aer4f : pinmux.oer4f (.text:Pinmux_Lock)
                  00022924    00000014     libuart_xwr68xx.aer4f : uartsci.oer4f (.text:UartSci_disableTxDMA)
                  00022938    00000014                           : uartsci.oer4f (.text:UartSci_enableTxDMA)
                  0002294c    00000014     libosal_xwr68xx.aer4f : DebugP_tirtos.oer4f (.text:_DebugP_assert)
                  00022960    00000014     libmathutils.aer4f : mathutils.oer4f (.text:mathUtils_ceilLog2)
                  00022974    00000014     libmmwavelink_xwr68xx.aer4f : rl_controller.oer4f (.text:rlAppendDummy)
                  00022988    00000014                                 : rl_driver.oer4f (.text:rlDriverIsDeviceMapValid)
                  0002299c    00000014     rtsv7R4_T_le_v3D16_eabi.lib : _lock.obj (.text)
                  000229b0    00000014                                 : strcpy.obj (.text)
                  000229c4    00000014     pcount3D_mss_per4ft.oer4ft (.text:ti_sysbios_heaps_HeapMem_Object__get__S)
                  000229d8    00000014     pcount3D_mss_per4ft.oer4ft (.text:xdc_runtime_LoggerBuf_Object__get__S)
                  000229ec    00000012     libcrc_xwr68xx.aer4f : crc.oer4f (.text:CRC_initConfigParams)
                  000229fe    00000012     libedma_xwr68xx.aer4f : edma_low_level.oer4f (.text:EDMA3SetQdmaTrigWord)
                  00022a10    00000012     libmmwave_xwr68xx.aer4f : mmwave_dualcore.oer4f (.text:MMWave_deviceGetDeviceInfo)
                  00022a22    00000012     libosal_xwr68xx.aer4f : MemoryP_tirtos.oer4f (.text:MemoryP_ctrlAlloc)
                  00022a34    00000012                           : SemaphoreP_tirtos.oer4f (.text:SemaphoreP_pend)
                  00022a46    00000012     libmathutils.aer4f : mathutils.oer4f (.text:mathUtils_pow2roundup)
                  00022a58    00000012     rtsv7R4_T_le_v3D16_eabi.lib : s_copysignf.obj (.text)
                  00022a6a    00000004     pcount3D_mss_per4ft.oer4ft (.text:xdc_runtime_System_Module_GateProxy_enter__E)
                  00022a6e    00000002     --HOLE-- [fill = 0]
                  00022a70    00000012     sysbios.aer4ft : BIOS.obj (.text:ti_sysbios_hal_Hwi_Module_startup__E)
                  00022a82    0000000e     rtsv7R4_T_le_v3D16_eabi.lib : copy_decompress_none.obj (.text:decompress:none)
                  00022a90    00000012     sysbios.aer4ft : BIOS.obj (.text:xdc_runtime_LoggerBuf_write1__E)
                  00022aa2    0000000e     libgtrack3D.aer4f : gtrack_unit_get.oer4f (.text:gtrack_unitGetC)
                  00022ab0    00000012     sysbios.aer4ft : BIOS.obj (.text:xdc_runtime_LoggerBuf_write2__E)
                  00022ac2    00000012     pcount3D_mss_per4ft.oer4ft (.text:xdc_runtime_Startup_exec__I)
                  00022ad4    00000010     libadcbuf_xwr68xx.aer4f : ADCBuf.oer4f (.text:ADCBuf_Params_init)
                  00022ae4    00000010     libcli_xwr68xx.aer4f : cli_mmwave.oer4f (.text:CLI_getMMWaveExtensionConfig)
                  00022af4    00000010     libcrc_xwr68xx.aer4f : crc.oer4f (.text:CRC_getSignatureRegister)
                  00022b04    00000010     libdma_xwr68xx.aer4f : dma.oer4f (.text:DMA_Params_init)
                  00022b14    00000010     tracker_utils.oer4f (.text:gtrack_free)
                  00022b24    00000010     libgtrack3D.aer4f : gtrack_math.oer4f (.text:gtrack_vectorInit)
                  00022b34    0000000a     sysbios.aer4ft : tms570_Core_asm.obj (.text:ti_sysbios_family_arm_v7r_tms570_Core_getId__E)
                  00022b3e    00000002     --HOLE-- [fill = 0]
                  00022b40    00000010                    : BIOS.obj (.text:ti_sysbios_BIOS_getCpuFreq__E)
                  00022b50    00000010                    : BIOS.obj (.text:ti_sysbios_BIOS_setThreadType__E)
                  00022b60    00000010                    : BIOS.obj (.text:ti_sysbios_BIOS_start__E)
                  00022b70    00000010                    : BIOS.obj (.text:ti_sysbios_family_arm_a15_TimestampProvider_Module_startup__E)
                  00022b80    00000010                    : BIOS.obj (.text:ti_sysbios_family_arm_v7a_Pmu_disableInterruptI__E)
                  00022b90    00000010                    : BIOS.obj (.text:ti_sysbios_family_arm_v7a_Pmu_enableInterruptI__E)
                  00022ba0    00000010                    : BIOS.obj (.text:ti_sysbios_family_arm_v7a_Pmu_getNumCounters__E)
                  00022bb0    00000010                    : BIOS.obj (.text:ti_sysbios_family_arm_v7a_Pmu_startCounterI__E)
                  00022bc0    00000010                    : BIOS.obj (.text:ti_sysbios_family_arm_v7a_Pmu_stopCounterI__E)
                  00022bd0    00000010                    : BIOS.obj (.text:ti_sysbios_gates_GateMutex_Instance_finalize__E)
                  00022be0    00000010     pcount3D_mss_per4ft.oer4ft (.text:ti_sysbios_heaps_HeapBuf_Object__get__S)
                  00022bf0    00000010     sysbios.aer4ft : BIOS.obj (.text:ti_sysbios_knl_Semaphore_Instance_finalize__E)
                  00022c00    00000010     pcount3D_mss_per4ft.oer4ft (.text:ti_sysbios_knl_Task_Object__get__S)
                  00022c10    00000010     sysbios.aer4ft : BIOS.obj (.text:ti_sysbios_knl_Task_disable__E)
                  00022c20    00000010                    : BIOS.obj (.text:xdc_runtime_LoggerBuf_write0__E)
                  00022c30    00000010                    : BIOS.obj (.text:xdc_runtime_Memory_free__E)
                  00022c40    00000010                    : BIOS.obj (.text:xdc_runtime_Memory_getStats__E)
                  00022c50    0000000e     libgtrack3D.aer4f : gtrack_unit_get.oer4f (.text:gtrack_unitGetSpread)
                  00022c5e    0000000e     sysbios.aer4ft : a15_TimestampProvider_asm.obj (.text:ti_sysbios_family_arm_a15_TimestampProvider_getOverflowCCNT__I)
                  00022c6c    00000004     pcount3D_mss_per4ft.oer4ft (.text:xdc_runtime_System_Module_GateProxy_leave__E)
                  00022c70    0000000e     sysbios.aer4ft : BIOS.obj (.text:ti_sysbios_knl_Queue_empty__E)
                  00022c7e    00000002     --HOLE-- [fill = 0]
                  00022c80    0000000c                    : BIOS.obj (.text:ti_sysbios_family_arm_TaskSupport_checkStack__E)
                  00022c8c    00000004     --HOLE-- [fill = 0]
                  00022c90    0000000c                    : BIOS.obj (.text:ti_sysbios_family_arm_TaskSupport_getStackAlignment__E)
                  00022c9c    00000004     --HOLE-- [fill = 0]
                  00022ca0    0000000c                    : BIOS.obj (.text:ti_sysbios_family_arm_exc_Exception_Module_startup__E)
                  00022cac    00000004     --HOLE-- [fill = 0]
                  00022cb0    0000000c                    : BIOS.obj (.text:ti_sysbios_family_arm_v7r_vim_Hwi_switchFromBootStack__E)
                  00022cbc    00000004     --HOLE-- [fill = 0]
                  00022cc0    0000000c                    : BIOS.obj (.text:ti_sysbios_utils_Load_getCPULoad__E)
                  00022ccc    00000004     --HOLE-- [fill = 0]
                  00022cd0    0000000c                    : BIOS.obj (.text:ti_sysbios_utils_Load_taskRegHook__E)
                  00022cdc    00000004     --HOLE-- [fill = 0]
                  00022ce0    0000000c                    : BIOS.obj (.text:xdc_runtime_Startup_rtsDone__E)
                  00022cec    00000004     --HOLE-- [fill = 0]
                  00022cf0    0000000c                    : BIOS.obj (.text:xdc_runtime_SysStd_exit__E)
                  00022cfc    0000000a     pcount3D_mss_per4ft.oer4ft (.text:xdc_runtime_IHeap_alloc)
                  00022d06    0000000a     pcount3D_mss_per4ft.oer4ft (.text:xdc_runtime_IHeap_free)
                  00022d10    0000000a     pcount3D_mss_per4ft.oer4ft (.text:xdc_runtime_IHeap_getStats)
                  00022d1a    00000006     --HOLE-- [fill = 0]
                  00022d20    0000000a     sysbios.aer4ft : BIOS.obj (.text:xdc_runtime_LoggerBuf_disable__E)
                  00022d2a    00000006     --HOLE-- [fill = 0]
                  00022d30    0000000a                    : BIOS.obj (.text:xdc_runtime_LoggerBuf_enable__E)
                  00022d3a    00000006     --HOLE-- [fill = 0]
                  00022d40    00000008                    : BIOS.obj (.text:ti_sysbios_gates_GateHwi_enter__E)
                  00022d48    00000008     --HOLE-- [fill = 0]
                  00022d50    00000006                    : BIOS.obj (.text:ti_sysbios_family_arm_v7r_vim_Hwi_startup__E)
                  00022d56    0000000a     --HOLE-- [fill = 0]
                  00022d60    00000006                    : BIOS.obj (.text:ti_sysbios_gates_GateHwi_leave__E)
                  00022d66    0000000a     --HOLE-- [fill = 0]
                  00022d70    00000006                    : BIOS.obj (.text:ti_sysbios_heaps_HeapMem_isBlocking__E)
                  00022d76    0000000a     --HOLE-- [fill = 0]
                  00022d80    00000006                    : BIOS.obj (.text:ti_sysbios_knl_Queue_Instance_init__E)
                  00022d86    0000000a     --HOLE-- [fill = 0]
                  00022d90    00000006                    : BIOS.obj (.text:xdc_runtime_System_Module_startup__E)
                  00022d96    0000000a     --HOLE-- [fill = 0]
                  00022da0    00000004                    : BIOS.obj (.text:ti_sysbios_gates_GateHwi_query__E)
                  00022da4    0000000c     --HOLE-- [fill = 0]
                  00022db0    00000004                    : BIOS.obj (.text:ti_sysbios_gates_GateMutex_query__E)
                  00022db4    0000000c     --HOLE-- [fill = 0]
                  00022dc0    00000004                    : BIOS.obj (.text:ti_sysbios_knl_Task_startup__E)
                  00022dc4    0000000c     --HOLE-- [fill = 0]
                  00022dd0    00000004                    : BIOS.obj (.text:ti_sysbios_timers_rti_Timer_getMaxTicks__E)
                  00022dd4    0000000c     --HOLE-- [fill = 0]
                  00022de0    00000004                    : BIOS.obj (.text:xdc_runtime_SysStd_putch__E)
                  00022de4    0000000c     --HOLE-- [fill = 0]
                  00022df0    00000004                    : BIOS.obj (.text:xdc_runtime_SysStd_ready__E)
                  00022df4    0000000c     --HOLE-- [fill = 0]
                  00022e00    00000002                    : BIOS.obj (.text:ti_sysbios_BIOS_linkedWithIncorrectBootLibrary__E)
                  00022e02    0000000e     --HOLE-- [fill = 0]
                  00022e10    00000002                    : BIOS.obj (.text:ti_sysbios_gates_GateHwi_Instance_init__E)

.const     0    00022e18    00002268     
                  00022e18    00000b50     libgtrack3D.aer4f : gtrack_math.oer4f (.const:$O1$$)
                  00023968    00000498                       : gtrack_create.oer4f (.const:$O1$$)
                  00023e00    000002e6     pcount3D_cli.oer4f (.const:.string)
                  000240e6    00000002     pcount3D_mss_per4ft.oer4ft (.const:ti_sysbios_family_arm_exc_Exception_Module__id__C)
                  000240e8    000002b8     libmmwavelink_xwr68xx.aer4f : rl_sensor.oer4f (.const:$O1$$)
                  000243a0    00000158     rtsv7R4_T_le_v3D16_eabi.lib : k_rem_pio2.obj (.const:$O1$$)
                  000244f8    00000101                                 : ctype.obj (.const:.string:_ctypes_)
                  000245f9    00000001     pcount3D_mss_per4ft.oer4ft (.const:xdc_runtime_Text_charTab__A)
                  000245fa    00000002     pcount3D_mss_per4ft.oer4ft (.const:ti_sysbios_family_arm_v7a_Pmu_Module__id__C)
                  000245fc    000000a0     libcli_xwr68xx.aer4f : cli_mmwave.oer4f (.const:.string)
                  0002469c    00000004                          : cli.oer4f (.const:.string:$P$T0$1)
                  000246a0    00000098     rtsv7R4_T_le_v3D16_eabi.lib : strtod.obj (.const:$O1$$)
                  00024738    00000088     libmmwavelink_xwr68xx.aer4f : rl_driver.oer4f (.const:$O2$$)
                  000247c0    00000080     pcount3D_mss_per4ft.oer4ft (.const:ti_sysbios_family_arm_v7r_vim_Hwi_channelMap__A)
                  00024840    00000044     pcount3D_mss_per4ft.oer4ft (.const:ti_sysbios_knl_Task_Object__PARAMS__C)
                  00024884    00000040     libhwa_xwr68xx.aer4f : hwa.oer4f (.const:gHwaTrigSignatures)
                  000248c4    0000003c     libuart_xwr68xx.aer4f : UART.oer4f (.const:UART_defaultParams)
                  00024900    0000003c     pcount3D_mss_per4ft.oer4ft (.const:xdc_runtime_LoggerBuf_Module__FXNS__C)
                  0002493c    00000038     libedma_xwr68xx.aer4f : edma_xwr1xxx.oer4f (.const:gEdmaHwAttrs)
                  00024974    00000034     rtsv7R4_T_le_v3D16_eabi.lib : s_atanf.obj (.const:$O1$$)
                  000249a8    00000030                                 : s_tanf.obj (.const:T)
                  000249d8    00000030     pcount3D_mss_per4ft.oer4ft (.const:ti_sysbios_family_arm_v7r_vim_Hwi_Object__PARAMS__C)
                  00024a08    00000030     pcount3D_mss_per4ft.oer4ft (.const:xdc_runtime_Startup_sfxnTab__A)
                  00024a38    00000028     libdpm_xwr68xx.aer4f : dpm_msg.oer4f (.const:gDPMMessageFxnTable)
                  00024a60    00000028     pcount3D_mss_per4ft.oer4ft (.const:ti_sysbios_heaps_HeapMem_Module__FXNS__C)
                  00024a88    00000028     pcount3D_mss_per4ft.oer4ft (.const:xdc_runtime_LoggerBuf_Object__PARAMS__C)
                  00024ab0    00000024     libmailbox_xwr68xx.aer4f : mailbox.oer4f (.const:Mailbox_defaultCfg)
                  00024ad4    00000024     libgtrack3D.aer4f : gtrack_utilities_3d.oer4f (.const:pInit)
                  00024af8    00000024     pcount3D_mss_per4ft.oer4ft (.const:ti_sysbios_gates_GateHwi_Module__FXNS__C)
                  00024b1c    00000024     pcount3D_mss_per4ft.oer4ft (.const:ti_sysbios_gates_GateMutex_Module__FXNS__C)
                  00024b40    00000024     pcount3D_mss_per4ft.oer4ft (.const:ti_sysbios_heaps_HeapMem_Object__PARAMS__C)
                  00024b64    00000024     pcount3D_mss_per4ft.oer4ft (.const:ti_sysbios_knl_Semaphore_Object__PARAMS__C)
                  00024b88    00000020     libcli_xwr68xx.aer4f : cli_mmwave.oer4f (.const:$P$T0$1)
                  00024ba8    00000020     libhwa_xwr68xx.aer4f : hwa.oer4f (.const:$P$T0$1)
                  00024bc8    00000020     pcount3D_mss_per4ft.oer4ft (.const:ti_sysbios_family_arm_v7r_vim_Hwi_Object__DESC__C)
                  00024be8    00000020     pcount3D_mss_per4ft.oer4ft (.const:ti_sysbios_gates_GateHwi_Object__DESC__C)
                  00024c08    00000020     pcount3D_mss_per4ft.oer4ft (.const:ti_sysbios_gates_GateMutex_Object__DESC__C)
                  00024c28    00000020     pcount3D_mss_per4ft.oer4ft (.const:ti_sysbios_heaps_HeapMem_Object__DESC__C)
                  00024c48    00000020     pcount3D_mss_per4ft.oer4ft (.const:ti_sysbios_knl_Queue_Object__DESC__C)
                  00024c68    00000020     pcount3D_mss_per4ft.oer4ft (.const:ti_sysbios_knl_Semaphore_Object__DESC__C)
                  00024c88    00000020     pcount3D_mss_per4ft.oer4ft (.const:ti_sysbios_knl_Task_Object__DESC__C)
                  00024ca8    00000020     pcount3D_mss_per4ft.oer4ft (.const:xdc_runtime_LoggerBuf_Object__DESC__C)
                  00024cc8    00000018     rtsv7R4_T_le_v3D16_eabi.lib : e_powf.obj (.const:$O1$$)
                  00024ce0    00000018     pcount3D_mss_per4ft.oer4ft (.const:ti_sysbios_gates_GateHwi_Object__PARAMS__C)
                  00024cf8    00000018     pcount3D_mss_per4ft.oer4ft (.const:ti_sysbios_gates_GateMutex_Object__PARAMS__C)
                  00024d10    00000018     pcount3D_mss_per4ft.oer4ft (.const:ti_sysbios_knl_Queue_Object__PARAMS__C)
                  00024d28    00000018     pcount3D_mss_per4ft.oer4ft (.const:ti_sysbios_knl_Task_hooks__A)
                  00024d40    00000018     pcount3D_mss_per4ft.oer4ft (.const:xdc_runtime_Startup_sfxnRts__A)
                  00024d58    00000014     libadcbuf_xwr68xx.aer4f : adcbuf_mmwave.oer4f (.const:gADCBufFxnTable)
                  00024d6c    00000010                             : ADCBuf.oer4f (.const:ADCBuf_defaultParams)
                  00024d7c    00000010     libedma_xwr68xx.aer4f : edma.oer4f (.const:EDMA_config$1)
                  00024d8c    00000010     libadcbuf_xwr68xx.aer4f : adcbuf_xwr1xxx.oer4f (.const:gADCBufHwCfg)
                  00024d9c    00000010     pcount3D_mss_per4ft.oer4ft (.const:ti_sysbios_family_arm_v7r_vim_Hwi_intReqEnaSet__A)
                  00024dac    00000010     pcount3D_mss_per4ft.oer4ft (.const:ti_sysbios_family_arm_v7r_vim_Hwi_wakeEnaSet__A)
                  00024dbc    0000000c     pcount3D_mss_per4ft.oer4ft (.const:ti_sysbios_knl_Idle_funcList__A)
                  00024dc8    00000008     pcount3D_mss_per4ft.oer4ft (.const:ti_sysbios_knl_Idle_funcList__C)
                  00024dd0    00000008     pcount3D_mss_per4ft.oer4ft (.const:ti_sysbios_knl_Task_hooks__C)
                  00024dd8    00000008     pcount3D_mss_per4ft.oer4ft (.const:xdc_runtime_Startup_firstFxns__A)
                  00024de0    00000008     pcount3D_mss_per4ft.oer4ft (.const:xdc_runtime_Startup_firstFxns__C)
                  00024de8    00000008     pcount3D_mss_per4ft.oer4ft (.const:xdc_runtime_Startup_lastFxns__C)
                  00024df0    00000004     pcount3D_mss_per4ft.oer4ft (.const:ti_sysbios_family_arm_TaskSupport_stackAlignment__C)
                  00024df4    00000004     pcount3D_mss_per4ft.oer4ft (.const:ti_sysbios_family_arm_exc_Exception_E_dataAbort__C)
                  00024df8    00000004     pcount3D_mss_per4ft.oer4ft (.const:ti_sysbios_family_arm_exc_Exception_E_prefetchAbort__C)
                  00024dfc    00000004     pcount3D_mss_per4ft.oer4ft (.const:ti_sysbios_family_arm_exc_Exception_E_swi__C)
                  00024e00    00000004     pcount3D_mss_per4ft.oer4ft (.const:ti_sysbios_family_arm_exc_Exception_E_undefinedInstruction__C)
                  00024e04    00000004     pcount3D_mss_per4ft.oer4ft (.const:ti_sysbios_family_arm_exc_Exception_excHookFuncs__A)
                  00024e08    00000004     pcount3D_mss_per4ft.oer4ft (.const:ti_sysbios_family_arm_exc_Exception_excHookFuncs__C)
                  00024e0c    00000004     pcount3D_mss_per4ft.oer4ft (.const:ti_sysbios_family_arm_v7a_Pmu_A_invalidCounterId__C)
                  00024e10    00000004     pcount3D_mss_per4ft.oer4ft (.const:ti_sysbios_family_arm_v7a_Pmu_Module__diagsEnabled__C)
                  00024e14    00000004     pcount3D_mss_per4ft.oer4ft (.const:ti_sysbios_family_arm_v7a_Pmu_Module__diagsIncluded__C)
                  00024e18    00000004     pcount3D_mss_per4ft.oer4ft (.const:ti_sysbios_family_arm_v7a_Pmu_Module__diagsMask__C)
                  00024e1c    00000004     pcount3D_mss_per4ft.oer4ft (.const:ti_sysbios_family_arm_v7r_tms570_Core_E_mismatchedIds__C)
                  00024e20    00000004     pcount3D_mss_per4ft.oer4ft (.const:ti_sysbios_family_arm_v7r_tms570_Core_id__C)
                  00024e24    00000004     pcount3D_mss_per4ft.oer4ft (.const:ti_sysbios_family_arm_v7r_vim_Hwi_A_badChannelId__C)
                  00024e28    00000004     pcount3D_mss_per4ft.oer4ft (.const:ti_sysbios_family_arm_v7r_vim_Hwi_E_alreadyDefined__C)
                  00024e2c    00000004     pcount3D_mss_per4ft.oer4ft (.const:ti_sysbios_family_arm_v7r_vim_Hwi_E_badIntNum__C)
                  00024e30    00000004     pcount3D_mss_per4ft.oer4ft (.const:ti_sysbios_family_arm_v7r_vim_Hwi_E_phantomInterrupt__C)
                  00024e34    00000004     pcount3D_mss_per4ft.oer4ft (.const:ti_sysbios_family_arm_v7r_vim_Hwi_E_undefined__C)
                  00024e38    00000004     pcount3D_mss_per4ft.oer4ft (.const:ti_sysbios_family_arm_v7r_vim_Hwi_E_unsupportedMaskingOption__C)
                  00024e3c    00000004     pcount3D_mss_per4ft.oer4ft (.const:ti_sysbios_family_arm_v7r_vim_Hwi_LD_end__C)
                  00024e40    00000004     pcount3D_mss_per4ft.oer4ft (.const:ti_sysbios_family_arm_v7r_vim_Hwi_LM_begin__C)
                  00024e44    00000004     pcount3D_mss_per4ft.oer4ft (.const:ti_sysbios_family_arm_v7r_vim_Hwi_Module__diagsEnabled__C)
                  00024e48    00000004     pcount3D_mss_per4ft.oer4ft (.const:ti_sysbios_family_arm_v7r_vim_Hwi_Module__diagsIncluded__C)
                  00024e4c    00000004     pcount3D_mss_per4ft.oer4ft (.const:ti_sysbios_family_arm_v7r_vim_Hwi_Module__diagsMask__C)
                  00024e50    00000004     pcount3D_mss_per4ft.oer4ft (.const:ti_sysbios_family_arm_v7r_vim_Hwi_Module__loggerFxn1__C)
                  00024e54    00000004     pcount3D_mss_per4ft.oer4ft (.const:ti_sysbios_family_arm_v7r_vim_Hwi_Module__loggerFxn8__C)
                  00024e58    00000004     pcount3D_mss_per4ft.oer4ft (.const:ti_sysbios_family_arm_v7r_vim_Hwi_Module__loggerObj__C)
                  00024e5c    00000004     pcount3D_mss_per4ft.oer4ft (.const:ti_sysbios_family_arm_v7r_vim_Hwi_NUM_INTERRUPTS__C)
                  00024e60    00000004     pcount3D_mss_per4ft.oer4ft (.const:ti_sysbios_family_arm_v7r_vim_Hwi_channelMap__C)
                  00024e64    00000004     pcount3D_mss_per4ft.oer4ft (.const:ti_sysbios_family_arm_v7r_vim_Hwi_intReqEnaSet__C)
                  00024e68    00000004     pcount3D_mss_per4ft.oer4ft (.const:ti_sysbios_family_arm_v7r_vim_Hwi_phantomFunc__C)
                  00024e6c    00000004     pcount3D_mss_per4ft.oer4ft (.const:ti_sysbios_family_arm_v7r_vim_Hwi_taskDisable__C)
                  00024e70    00000004     pcount3D_mss_per4ft.oer4ft (.const:ti_sysbios_family_arm_v7r_vim_Hwi_taskRestoreHwi__C)
                  00024e74    00000004     pcount3D_mss_per4ft.oer4ft (.const:ti_sysbios_family_arm_v7r_vim_Hwi_wakeEnaSet__C)
                  00024e78    00000004     pcount3D_mss_per4ft.oer4ft (.const:ti_sysbios_gates_GateMutex_A_badContext__C)
                  00024e7c    00000004     pcount3D_mss_per4ft.oer4ft (.const:ti_sysbios_gates_GateMutex_Instance_State_sem__O)
                  00024e80    00000004     pcount3D_mss_per4ft.oer4ft (.const:ti_sysbios_gates_GateMutex_Module__diagsEnabled__C)
                  00024e84    00000004     pcount3D_mss_per4ft.oer4ft (.const:ti_sysbios_gates_GateMutex_Module__diagsIncluded__C)
                  00024e88    00000004     pcount3D_mss_per4ft.oer4ft (.const:ti_sysbios_gates_GateMutex_Module__diagsMask__C)
                  00024e8c    00000004     pcount3D_mss_per4ft.oer4ft (.const:ti_sysbios_hal_Hwi_E_stackOverflow__C)
                  00024e90    00000004     pcount3D_mss_per4ft.oer4ft (.const:ti_sysbios_heaps_HeapBuf_Instance_State_freeList__O)
                  00024e94    00000004     pcount3D_mss_per4ft.oer4ft (.const:ti_sysbios_heaps_HeapBuf_Object__count__C)
                  00024e98    00000004     pcount3D_mss_per4ft.oer4ft (.const:ti_sysbios_heaps_HeapBuf_numConstructedHeaps__C)
                  00024e9c    00000004     pcount3D_mss_per4ft.oer4ft (.const:ti_sysbios_heaps_HeapMem_A_align__C)
                  00024ea0    00000004     pcount3D_mss_per4ft.oer4ft (.const:ti_sysbios_heaps_HeapMem_A_heapSize__C)
                  00024ea4    00000004     pcount3D_mss_per4ft.oer4ft (.const:ti_sysbios_heaps_HeapMem_A_invalidFree__C)
                  00024ea8    00000004     pcount3D_mss_per4ft.oer4ft (.const:ti_sysbios_heaps_HeapMem_A_zeroBlock__C)
                  00024eac    00000004     pcount3D_mss_per4ft.oer4ft (.const:ti_sysbios_heaps_HeapMem_E_memory__C)
                  00024eb0    00000004     pcount3D_mss_per4ft.oer4ft (.const:ti_sysbios_heaps_HeapMem_Module__diagsEnabled__C)
                  00024eb4    00000004     pcount3D_mss_per4ft.oer4ft (.const:ti_sysbios_heaps_HeapMem_Module__diagsIncluded__C)
                  00024eb8    00000004     pcount3D_mss_per4ft.oer4ft (.const:ti_sysbios_heaps_HeapMem_Module__diagsMask__C)
                  00024ebc    00000004     pcount3D_mss_per4ft.oer4ft (.const:ti_sysbios_heaps_HeapMem_Module__gateObj__C)
                  00024ec0    00000004     pcount3D_mss_per4ft.oer4ft (.const:ti_sysbios_heaps_HeapMem_Object__count__C)
                  00024ec4    00000004     pcount3D_mss_per4ft.oer4ft (.const:ti_sysbios_heaps_HeapMem_reqAlign__C)
                  00024ec8    00000004     pcount3D_mss_per4ft.oer4ft (.const:ti_sysbios_knl_Clock_LM_begin__C)
                  00024ecc    00000004     pcount3D_mss_per4ft.oer4ft (.const:ti_sysbios_knl_Clock_LM_tick__C)
                  00024ed0    00000004     pcount3D_mss_per4ft.oer4ft (.const:ti_sysbios_knl_Clock_LW_delayed__C)
                  00024ed4    00000004     pcount3D_mss_per4ft.oer4ft (.const:ti_sysbios_knl_Clock_Module_State_clockQ__O)
                  00024ed8    00000004     pcount3D_mss_per4ft.oer4ft (.const:ti_sysbios_knl_Clock_Module__diagsEnabled__C)
                  00024edc    00000004     pcount3D_mss_per4ft.oer4ft (.const:ti_sysbios_knl_Clock_Module__diagsIncluded__C)
                  00024ee0    00000004     pcount3D_mss_per4ft.oer4ft (.const:ti_sysbios_knl_Clock_Module__diagsMask__C)
                  00024ee4    00000004     pcount3D_mss_per4ft.oer4ft (.const:ti_sysbios_knl_Clock_Module__loggerFxn1__C)
                  00024ee8    00000004     pcount3D_mss_per4ft.oer4ft (.const:ti_sysbios_knl_Clock_Module__loggerFxn2__C)
                  00024eec    00000004     pcount3D_mss_per4ft.oer4ft (.const:ti_sysbios_knl_Clock_Module__loggerObj__C)
                  00024ef0    00000004     pcount3D_mss_per4ft.oer4ft (.const:ti_sysbios_knl_Semaphore_A_badContext__C)
                  00024ef4    00000004     pcount3D_mss_per4ft.oer4ft (.const:ti_sysbios_knl_Semaphore_A_noEvents__C)
                  00024ef8    00000004     pcount3D_mss_per4ft.oer4ft (.const:ti_sysbios_knl_Semaphore_A_overflow__C)
                  00024efc    00000004     pcount3D_mss_per4ft.oer4ft (.const:ti_sysbios_knl_Semaphore_A_pendTaskDisabled__C)
                  00024f00    00000004     pcount3D_mss_per4ft.oer4ft (.const:ti_sysbios_knl_Semaphore_Instance_State_pendQ__O)
                  00024f04    00000004     pcount3D_mss_per4ft.oer4ft (.const:ti_sysbios_knl_Semaphore_LM_pend__C)
                  00024f08    00000004     pcount3D_mss_per4ft.oer4ft (.const:ti_sysbios_knl_Semaphore_LM_post__C)
                  00024f0c    00000004     pcount3D_mss_per4ft.oer4ft (.const:ti_sysbios_knl_Semaphore_Module__diagsEnabled__C)
                  00024f10    00000004     pcount3D_mss_per4ft.oer4ft (.const:ti_sysbios_knl_Semaphore_Module__diagsIncluded__C)
                  00024f14    00000004     pcount3D_mss_per4ft.oer4ft (.const:ti_sysbios_knl_Semaphore_Module__diagsMask__C)
                  00024f18    00000004     pcount3D_mss_per4ft.oer4ft (.const:ti_sysbios_knl_Semaphore_Module__loggerFxn2__C)
                  00024f1c    00000004     pcount3D_mss_per4ft.oer4ft (.const:ti_sysbios_knl_Semaphore_Module__loggerFxn4__C)
                  00024f20    00000004     pcount3D_mss_per4ft.oer4ft (.const:ti_sysbios_knl_Semaphore_Module__loggerObj__C)
                  00024f24    00000004     pcount3D_mss_per4ft.oer4ft (.const:ti_sysbios_knl_Task_A_badPriority__C)
                  00024f28    00000004     pcount3D_mss_per4ft.oer4ft (.const:ti_sysbios_knl_Task_A_badTaskState__C)
                  00024f2c    00000004     pcount3D_mss_per4ft.oer4ft (.const:ti_sysbios_knl_Task_A_badThreadType__C)
                  00024f30    00000004     pcount3D_mss_per4ft.oer4ft (.const:ti_sysbios_knl_Task_A_badTimeout__C)
                  00024f34    00000004     pcount3D_mss_per4ft.oer4ft (.const:ti_sysbios_knl_Task_A_noPendElem__C)
                  00024f38    00000004     pcount3D_mss_per4ft.oer4ft (.const:ti_sysbios_knl_Task_A_sleepTaskDisabled__C)
                  00024f3c    00000004     pcount3D_mss_per4ft.oer4ft (.const:ti_sysbios_knl_Task_E_spOutOfBounds__C)
                  00024f40    00000004     pcount3D_mss_per4ft.oer4ft (.const:ti_sysbios_knl_Task_E_stackOverflow__C)
                  00024f44    00000004     pcount3D_mss_per4ft.oer4ft (.const:ti_sysbios_knl_Task_LD_block__C)
                  00024f48    00000004     pcount3D_mss_per4ft.oer4ft (.const:ti_sysbios_knl_Task_LD_exit__C)
                  00024f4c    00000004     pcount3D_mss_per4ft.oer4ft (.const:ti_sysbios_knl_Task_LD_ready__C)
                  00024f50    00000004     pcount3D_mss_per4ft.oer4ft (.const:ti_sysbios_knl_Task_LM_sleep__C)
                  00024f54    00000004     pcount3D_mss_per4ft.oer4ft (.const:ti_sysbios_knl_Task_LM_switch__C)
                  00024f58    00000004     pcount3D_mss_per4ft.oer4ft (.const:ti_sysbios_knl_Task_Module_State_inactiveQ__O)
                  00024f5c    00000004     pcount3D_mss_per4ft.oer4ft (.const:ti_sysbios_knl_Task_Module__diagsEnabled__C)
                  00024f60    00000004     pcount3D_mss_per4ft.oer4ft (.const:ti_sysbios_knl_Task_Module__diagsIncluded__C)
                  00024f64    00000004     pcount3D_mss_per4ft.oer4ft (.const:ti_sysbios_knl_Task_Module__diagsMask__C)
                  00024f68    00000004     pcount3D_mss_per4ft.oer4ft (.const:ti_sysbios_knl_Task_Module__loggerFxn2__C)
                  00024f6c    00000004     pcount3D_mss_per4ft.oer4ft (.const:ti_sysbios_knl_Task_Module__loggerFxn4__C)
                  00024f70    00000004     pcount3D_mss_per4ft.oer4ft (.const:ti_sysbios_knl_Task_Module__loggerObj__C)
                  00024f74    00000004     pcount3D_mss_per4ft.oer4ft (.const:ti_sysbios_knl_Task_Object__count__C)
                  00024f78    00000004     pcount3D_mss_per4ft.oer4ft (.const:ti_sysbios_knl_Task_Object__heap__C)
                  00024f7c    00000004     pcount3D_mss_per4ft.oer4ft (.const:ti_sysbios_knl_Task_allBlockedFunc__C)
                  00024f80    00000004     pcount3D_mss_per4ft.oer4ft (.const:ti_sysbios_knl_Task_defaultStackHeap__C)
                  00024f84    00000004     pcount3D_mss_per4ft.oer4ft (.const:ti_sysbios_knl_Task_defaultStackSize__C)
                  00024f88    00000004     pcount3D_mss_per4ft.oer4ft (.const:ti_sysbios_knl_Task_numConstructedTasks__C)
                  00024f8c    00000004     pcount3D_mss_per4ft.oer4ft (.const:ti_sysbios_timers_rti_Timer_E_cannotSupport__C)
                  00024f90    00000004     pcount3D_mss_per4ft.oer4ft (.const:ti_sysbios_timers_rti_Timer_Module__diagsEnabled__C)
                  00024f94    00000004     pcount3D_mss_per4ft.oer4ft (.const:ti_sysbios_timers_rti_Timer_Module__diagsIncluded__C)
                  00024f98    00000004     pcount3D_mss_per4ft.oer4ft (.const:ti_sysbios_timers_rti_Timer_Module__diagsMask__C)
                  00024f9c    00000004     pcount3D_mss_per4ft.oer4ft (.const:ti_sysbios_timers_rti_Timer_numTimerDevices__C)
                  00024fa0    00000004     pcount3D_mss_per4ft.oer4ft (.const:ti_sysbios_timers_rti_Timer_startupNeeded__C)
                  00024fa4    00000004     pcount3D_mss_per4ft.oer4ft (.const:ti_sysbios_utils_Load_LS_cpuLoad__C)
                  00024fa8    00000004     pcount3D_mss_per4ft.oer4ft (.const:ti_sysbios_utils_Load_LS_taskLoad__C)
                  00024fac    00000004     pcount3D_mss_per4ft.oer4ft (.const:ti_sysbios_utils_Load_Module_State_taskList__O)
                  00024fb0    00000004     pcount3D_mss_per4ft.oer4ft (.const:ti_sysbios_utils_Load_Module__diagsEnabled__C)
                  00024fb4    00000004     pcount3D_mss_per4ft.oer4ft (.const:ti_sysbios_utils_Load_Module__diagsIncluded__C)
                  00024fb8    00000004     pcount3D_mss_per4ft.oer4ft (.const:ti_sysbios_utils_Load_Module__diagsMask__C)
                  00024fbc    00000004     pcount3D_mss_per4ft.oer4ft (.const:ti_sysbios_utils_Load_Module__loggerFxn1__C)
                  00024fc0    00000004     pcount3D_mss_per4ft.oer4ft (.const:ti_sysbios_utils_Load_Module__loggerFxn4__C)
                  00024fc4    00000004     pcount3D_mss_per4ft.oer4ft (.const:ti_sysbios_utils_Load_Module__loggerObj__C)
                  00024fc8    00000004     pcount3D_mss_per4ft.oer4ft (.const:ti_sysbios_utils_Load_postUpdate__C)
                  00024fcc    00000004     pcount3D_mss_per4ft.oer4ft (.const:ti_sysbios_utils_Load_windowInMs__C)
                  00024fd0    00000004     pcount3D_mss_per4ft.oer4ft (.const:xdc_runtime_Assert_E_assertFailed__C)
                  00024fd4    00000004     pcount3D_mss_per4ft.oer4ft (.const:xdc_runtime_Core_A_initializedParams__C)
                  00024fd8    00000004     pcount3D_mss_per4ft.oer4ft (.const:xdc_runtime_Core_Module__diagsEnabled__C)
                  00024fdc    00000004     pcount3D_mss_per4ft.oer4ft (.const:xdc_runtime_Core_Module__diagsIncluded__C)
                  00024fe0    00000004     pcount3D_mss_per4ft.oer4ft (.const:xdc_runtime_Core_Module__diagsMask__C)
                  00024fe4    00000004     pcount3D_mss_per4ft.oer4ft (.const:xdc_runtime_Error_E_memory__C)
                  00024fe8    00000004     pcount3D_mss_per4ft.oer4ft (.const:xdc_runtime_Error_policyFxn__C)
                  00024fec    00000004     pcount3D_mss_per4ft.oer4ft (.const:xdc_runtime_Error_policy__C)
                  00024ff0    00000004     pcount3D_mss_per4ft.oer4ft (.const:xdc_runtime_Error_raiseHook__C)
                  00024ff4    00000004     pcount3D_mss_per4ft.oer4ft (.const:xdc_runtime_IFilterLogger_Interface__BASE__C)
                  00024ff8    00000004     pcount3D_mss_per4ft.oer4ft (.const:xdc_runtime_IGateProvider_Interface__BASE__C)
                  00024ffc    00000004     pcount3D_mss_per4ft.oer4ft (.const:xdc_runtime_IHeap_Interface__BASE__C)
                  00025000    00000004     pcount3D_mss_per4ft.oer4ft (.const:xdc_runtime_ILogger_Interface__BASE__C)
                  00025004    00000004     pcount3D_mss_per4ft.oer4ft (.const:xdc_runtime_IModule_Interface__BASE__C)
                  00025008    00000004     pcount3D_mss_per4ft.oer4ft (.const:xdc_runtime_LoggerBuf_E_badLevel__C)
                  0002500c    00000004     pcount3D_mss_per4ft.oer4ft (.const:xdc_runtime_LoggerBuf_Module__gateObj__C)
                  00025010    00000004     pcount3D_mss_per4ft.oer4ft (.const:xdc_runtime_LoggerBuf_Object__count__C)
                  00025014    00000004     pcount3D_mss_per4ft.oer4ft (.const:xdc_runtime_LoggerBuf_statusLogger__C)
                  00025018    00000004     pcount3D_mss_per4ft.oer4ft (.const:xdc_runtime_Memory_defaultHeapInstance__C)
                  0002501c    00000004     pcount3D_mss_per4ft.oer4ft (.const:xdc_runtime_Startup_execImpl__C)
                  00025020    00000004     pcount3D_mss_per4ft.oer4ft (.const:xdc_runtime_Startup_maxPasses__C)
                  00025024    00000004     pcount3D_mss_per4ft.oer4ft (.const:xdc_runtime_Startup_sfxnRts__C)
                  00025028    00000004     pcount3D_mss_per4ft.oer4ft (.const:xdc_runtime_Startup_sfxnTab__C)
                  0002502c    00000004     pcount3D_mss_per4ft.oer4ft (.const:xdc_runtime_System_Module__gateObj__C)
                  00025030    00000004     pcount3D_mss_per4ft.oer4ft (.const:xdc_runtime_System_abortFxn__C)
                  00025034    00000004     pcount3D_mss_per4ft.oer4ft (.const:xdc_runtime_System_exitFxn__C)
                  00025038    00000004     pcount3D_mss_per4ft.oer4ft (.const:xdc_runtime_System_extendFxn__C)
                  0002503c    00000004     pcount3D_mss_per4ft.oer4ft (.const:xdc_runtime_System_maxAtexitHandlers__C)
                  00025040    00000004     pcount3D_mss_per4ft.oer4ft (.const:xdc_runtime_Text_charTab__C)
                  00025044    00000004     pcount3D_mss_per4ft.oer4ft (.const:xdc_runtime_Text_visitRopeFxn__C)
                  00025048    00000002     pcount3D_mss_per4ft.oer4ft (.const:ti_sysbios_family_arm_v7r_tms570_Core_Module__id__C)
                  0002504a    00000002     pcount3D_mss_per4ft.oer4ft (.const:ti_sysbios_family_arm_v7r_vim_Hwi_Module__id__C)
                  0002504c    00000002     pcount3D_mss_per4ft.oer4ft (.const:ti_sysbios_family_arm_v7r_vim_Hwi_Module__loggerDefined__C)
                  0002504e    00000002     pcount3D_mss_per4ft.oer4ft (.const:ti_sysbios_gates_GateMutex_Module__id__C)
                  00025050    00000002     pcount3D_mss_per4ft.oer4ft (.const:ti_sysbios_hal_Hwi_Module__id__C)
                  00025052    00000002     pcount3D_mss_per4ft.oer4ft (.const:ti_sysbios_heaps_HeapMem_Module__id__C)
                  00025054    00000002     pcount3D_mss_per4ft.oer4ft (.const:ti_sysbios_knl_Clock_Module__id__C)
                  00025056    00000002     pcount3D_mss_per4ft.oer4ft (.const:ti_sysbios_knl_Clock_Module__loggerDefined__C)
                  00025058    00000002     pcount3D_mss_per4ft.oer4ft (.const:ti_sysbios_knl_Semaphore_Module__id__C)
                  0002505a    00000002     pcount3D_mss_per4ft.oer4ft (.const:ti_sysbios_knl_Semaphore_Module__loggerDefined__C)
                  0002505c    00000002     pcount3D_mss_per4ft.oer4ft (.const:ti_sysbios_knl_Task_Module__id__C)
                  0002505e    00000002     pcount3D_mss_per4ft.oer4ft (.const:ti_sysbios_knl_Task_Module__loggerDefined__C)
                  00025060    00000002     pcount3D_mss_per4ft.oer4ft (.const:ti_sysbios_timers_rti_Timer_Module__id__C)
                  00025062    00000002     pcount3D_mss_per4ft.oer4ft (.const:ti_sysbios_timers_rti_Timer_continueOnSuspend__C)
                  00025064    00000002     pcount3D_mss_per4ft.oer4ft (.const:ti_sysbios_utils_Load_Module__id__C)
                  00025066    00000002     pcount3D_mss_per4ft.oer4ft (.const:ti_sysbios_utils_Load_Module__loggerDefined__C)
                  00025068    00000002     pcount3D_mss_per4ft.oer4ft (.const:ti_sysbios_utils_Load_autoAddTasks__C)
                  0002506a    00000002     pcount3D_mss_per4ft.oer4ft (.const:ti_sysbios_utils_Load_updateInIdle__C)
                  0002506c    00000002     pcount3D_mss_per4ft.oer4ft (.const:xdc_runtime_Core_Module__id__C)
                  0002506e    00000002     pcount3D_mss_per4ft.oer4ft (.const:xdc_runtime_Error_Module__loggerDefined__C)
                  00025070    00000002     pcount3D_mss_per4ft.oer4ft (.const:xdc_runtime_Error_maxDepth__C)
                  00025072    00000002     pcount3D_mss_per4ft.oer4ft (.const:xdc_runtime_LoggerBuf_Module__id__C)
                  00025074    00000002     pcount3D_mss_per4ft.oer4ft (.const:xdc_runtime_LoggerBuf_filterByLevel__C)
                  00025076    00000002     pcount3D_mss_per4ft.oer4ft (.const:xdc_runtime_Main_Module__id__C)
                  00025078    00000002     pcount3D_mss_per4ft.oer4ft (.const:xdc_runtime_Memory_Module__id__C)
                  0002507a    00000002     pcount3D_mss_per4ft.oer4ft (.const:xdc_runtime_Text_isLoaded__C)
                  0002507c    00000002     pcount3D_mss_per4ft.oer4ft (.const:xdc_runtime_Text_registryModsLastId__C)
                  0002507e    00000002     pcount3D_mss_per4ft.oer4ft (.const:xdc_runtime_Text_unnamedModsLastId__C)

.cinit     0    00025080    00000598     
                  00025080    0000052f     (.cinit..data.load) [load image, compression = lzss]
                  000255af    00000001     --HOLE-- [fill = 0]
                  000255b0    0000000c     (__TI_handler_table)
                  000255bc    00000004     --HOLE-- [fill = 0]
                  000255c0    00000008     (.cinit..bss.load) [load image, compression = zero_init]
                  000255c8    00000008     (.cinit..dpcLocalRam.load) [load image, compression = zero_init]
                  000255d0    00000008     (.cinit..l3ram.load) [load image, compression = zero_init]
                  000255d8    00000008     (.cinit..myFiqStack.load) [load image, compression = zero_init]
                  000255e0    00000008     (.cinit.systemHeap.load) [load image, compression = zero_init]
                  000255e8    00000030     (__TI_cinit_table)

.data      0    08020800    00003a0e     UNINITIALIZED
                  08020800    000023b0     mss_main.oer4f (.data:$O1$$)
                  08022bb0    000003e8     libmmwavelink_xwr68xx.aer4f : rl_driver.oer4f (.data:$O1$$)
                  08022f98    000003c0     trackerproc_3d.oer4f (.data:$O1$$)
                  08023358    00000368     libcli_xwr68xx.aer4f : cli_mmwave.oer4f (.data:$O1$$)
                  080236c0    00000200     pcount3D_mss_per4ft.oer4ft (.data:ti_sysbios_family_arm_v7r_vim_Hwi_Module_State_0_dispatchTable__A)
                  080238c0    000000f0     rtsv7R4_T_le_v3D16_eabi.lib : defs.obj (.data:_ftable)
                  080239b0    00000098     pcount3D_mss_per4ft.oer4ft (.data:ti_sysbios_utils_Load_Module__state__V)
                  08023a48    00000080     pcount3D_mss_per4ft.oer4ft (.data:ti_sysbios_knl_Task_Module_State_0_readyQ__A)
                  08023ac8    00000078     rtsv7R4_T_le_v3D16_eabi.lib : write.obj (.data:_device)
                  08023b40    00000060     libdma_xwr68xx.aer4f : dma_xwr68xx.oer4f (.data:gDMAHwCfg)
                  08023ba0    0000005c     pcount3D_mss_per4ft.oer4ft (.data:ti_sysbios_knl_Task_Object__table__V)
                  08023bfc    00000058     libuart_xwr68xx.aer4f : uart_xwr68xx.oer4f (.data:gUartSciHwCfg)
                  08023c54    00000050     rtsv7R4_T_le_v3D16_eabi.lib : write.obj (.data:_stream)
                  08023ca4    00000050     libmailbox_xwr68xx.aer4f : mailbox.oer4f (.data:gMailboxMCB)
                  08023cf4    00000048     pcount3D_mss_per4ft.oer4ft (.data:ti_sysbios_knl_Task_Module__state__V)
                  08023d3c    00000040     libsoc_xwr68xx.aer4f : soc_xwr68xx.oer4f (.data:SOC_TranslateAddr_LUT)
                  08023d7c    00000040     pcount3D_mss_per4ft.oer4ft (.data:ti_sysbios_gates_GateMutex_Object__table__V)
                  08023dbc    0000003c     pcount3D_mss_per4ft.oer4ft (.data:ti_sysbios_timers_rti_Timer_Object__table__V)
                  08023df8    00000034     pcount3D_mss_per4ft.oer4ft (.data:ti_sysbios_family_arm_v7r_vim_Hwi_Module__state__V)
                  08023e2c    00000030     libhwa_xwr68xx.aer4f : hwa_xwr68xx.oer4f (.data:gHWAHwCfg)
                  08023e5c    0000002c     pcount3D_mss_per4ft.oer4ft (.data:ti_sysbios_family_arm_v7r_vim_Hwi_Object__table__V)
                  08023e88    0000002c     pcount3D_mss_per4ft.oer4ft (.data:ti_sysbios_knl_Clock_Module__state__V)
                  08023eb4    00000028     libuart_xwr68xx.aer4f : uartsci.oer4f (.data:gUartSciFxnTable)
                  08023edc    00000024                           : uart_xwr68xx.oer4f (.data:UART_config)
                  08023f00    00000024     objdetrangehwa.oer4f (.data:gDPC_ObjDetRangeHWACfg)
                  08023f24    00000024     pcount3D_mss_per4ft.oer4ft (.data:ti_sysbios_BIOS_Module__state__V)
                  08023f48    00000024     pcount3D_mss_per4ft.oer4ft (.data:xdc_runtime_LoggerBuf_Object__table__V)
                  08023f6c    00000004     libhwa_xwr68xx.aer4f : hwa_xwr68xx.oer4f (.data:gHWADriverPtr)
                  08023f70    00000020     libsoc_xwr68xx.aer4f : soc_xwr68xx_mss.oer4f (.data:gSOCHwAttrib)
                  08023f90    00000020     pcount3D_mss_per4ft.oer4ft (.data:ti_sysbios_knl_Clock_Object__table__V)
                  08023fb0    00000020     pcount3D_mss_per4ft.oer4ft (.data:xdc_runtime_Error_IgnoreBlock)
                  08023fd0    00000020     pcount3D_mss_per4ft.oer4ft (.data:xdc_runtime_System_Module_State_0_atexitHandlers__A)
                  08023ff0    0000001c     pcount3D_mss_per4ft.oer4ft (.data:ti_sysbios_utils_Load_Module_State_0_taskEnv__A)
                  0802400c    00000018     libadcbuf_xwr68xx.aer4f : adcbuf_xwr1xxx.oer4f (.data:ADCBuf_config)
                  08024024    00000018     libmailbox_xwr68xx.aer4f : mailbox_xwr68xx.oer4f (.data:gMailboxMssBssHwCfg)
                  0802403c    00000018                              : mailbox_xwr68xx.oer4f (.data:gMailboxMssDssHwCfg)
                  08024054    00000018     pcount3D_mss_per4ft.oer4ft (.data:ti_sysbios_heaps_HeapMem_Object__table__V)
                  0802406c    00000018     pcount3D_mss_per4ft.oer4ft (.data:ti_sysbios_timers_rti_Timer_Module_State_0_device__A)
                  08024084    00000014     libdpm_xwr68xx.aer4f : dpm_mailbox.oer4f (.data:gDPMRemoteTable)
                  08024098    00000014     pcount3D_mss_per4ft.oer4ft (.data:ti_sysbios_family_arm_exc_Exception_Module__state__V)
                  080240ac    00000010     libdma_xwr68xx.aer4f : dma.oer4f (.data:DMA_defaultParams)
                  080240bc    00000010     libhwa_xwr68xx.aer4f : hwa.oer4f (.data:gHwaEDMAChanMapping)
                  080240cc    00000010     rtsv7R4_T_le_v3D16_eabi.lib : defs.obj (.data)
                  080240dc    00000010     pcount3D_mss_per4ft.oer4ft (.data:ti_sysbios_timers_rti_Timer_Module_State_0_intFreqs__A)
                  080240ec    00000010     pcount3D_mss_per4ft.oer4ft (.data:ti_sysbios_timers_rti_Timer_Module__state__V)
                  080240fc    0000000c     rtsv7R4_T_le_v3D16_eabi.lib : exit.obj (.data:$O1$$)
                  08024108    0000000c     libesm_xwr68xx.aer4f : esm_xwr1xxx.oer4f (.data:gESMHwCfgAttrs)
                  08024114    0000000c     pcount3D_mss_per4ft.oer4ft (.data:ti_sysbios_family_arm_v7a_Pmu_Module__state__V)
                  08024120    0000000c     pcount3D_mss_per4ft.oer4ft (.data:ti_sysbios_knl_Task_Module__root__V)
                  0802412c    00000008     rtsv7R4_T_le_v3D16_eabi.lib : _lock.obj (.data:$O1$$)
                  08024134    00000008     mmwdemo_rfparser.oer4f (.data:MmwDemo_RFParserHwCfg)
                  0802413c    00000008     libdpm_xwr68xx.aer4f : dpm_xwr68xx.oer4f (.data:gDPMHwAttrib)
                  08024144    00000008     libgpio_xwr68xx.aer4f : gpio_xwr68xx.oer4f (.data:gGPIOHwAtrrib)
                  0802414c    00000008     pcount3D_mss_per4ft.oer4ft (.data:ti_sysbios_family_arm_v7r_vim_Hwi_Module__root__V)
                  08024154    00000008     pcount3D_mss_per4ft.oer4ft (.data:ti_sysbios_gates_GateHwi_Module__root__V)
                  0802415c    00000008     pcount3D_mss_per4ft.oer4ft (.data:ti_sysbios_gates_GateMutex_Module__root__V)
                  08024164    00000008     pcount3D_mss_per4ft.oer4ft (.data:ti_sysbios_hal_Hwi_Object__table__V)
                  0802416c    00000008     pcount3D_mss_per4ft.oer4ft (.data:ti_sysbios_heaps_HeapMem_Module__root__V)
                  08024174    00000008     pcount3D_mss_per4ft.oer4ft (.data:ti_sysbios_knl_Queue_Module__root__V)
                  0802417c    00000008     pcount3D_mss_per4ft.oer4ft (.data:ti_sysbios_knl_Semaphore_Module__root__V)
                  08024184    00000008     pcount3D_mss_per4ft.oer4ft (.data:ti_sysbios_timers_rti_Timer_Module_State_0_handles__A)
                  0802418c    00000008     pcount3D_mss_per4ft.oer4ft (.data:xdc_runtime_LoggerBuf_Module__root__V)
                  08024194    00000008     pcount3D_mss_per4ft.oer4ft (.data:xdc_runtime_Registry_Module__state__V)
                  0802419c    00000008     pcount3D_mss_per4ft.oer4ft (.data:xdc_runtime_Startup_Module__state__V)
                  080241a4    00000008     pcount3D_mss_per4ft.oer4ft (.data:xdc_runtime_System_Module__state__V)
                  080241ac    00000006     pcount3D_mss_per4ft.oer4ft (.data:xdc_runtime_LoggerBuf_Module__state__V)
                  080241b2    00000002     pcount3D_mss_per4ft.oer4ft (.data:ti_sysbios_family_arm_exc_Exception_Module_State_0_excActive__A)
                  080241b4    00000004     libadcbuf_xwr68xx.aer4f : ADCBuf.oer4f (.data)
                  080241b8    00000004     libcrc_xwr68xx.aer4f : crc_xwr68xx.oer4f (.data)
                  080241bc    00000004     libdpm_xwr68xx.aer4f : dpm_mailbox.oer4f (.data)
                  080241c0    00000004     libedma_xwr68xx.aer4f : edma_low_level.oer4f (.data)
                  080241c4    00000004     libpinmux_xwr68xx.aer4f : pinmux_xwr1xxx.oer4f (.data)
                  080241c8    00000004     libuart_xwr68xx.aer4f : UART.oer4f (.data)
                  080241cc    00000004     rtsv7R4_T_le_v3D16_eabi.lib : errno.obj (.data)
                  080241d0    00000004                                 : fopen.obj (.data)
                  080241d4    00000004                                 : open.obj (.data)
                  080241d8    00000004                                 : stkdepth_vars.obj (.data)
                  080241dc    00000004                                 : strtok.obj (.data)
                  080241e0    00000004     pcount3D_mss_per4ft.oer4ft (.data:ti_sysbios_family_arm_a15_TimestampProvider_Module__state__V)
                  080241e4    00000004     pcount3D_mss_per4ft.oer4ft (.data:ti_sysbios_family_arm_exc_Exception_Module_State_0_excContext__A)
                  080241e8    00000004     pcount3D_mss_per4ft.oer4ft (.data:ti_sysbios_family_arm_exc_Exception_Module_State_0_excStackBuffers__A)
                  080241ec    00000004     pcount3D_mss_per4ft.oer4ft (.data:ti_sysbios_family_arm_exc_Exception_Module_State_0_excStack__A)
                  080241f0    00000004     pcount3D_mss_per4ft.oer4ft (.data:ti_sysbios_gates_GateHwi_Object__table__V)
                  080241f4    00000004     pcount3D_mss_per4ft.oer4ft (.data:ti_sysbios_heaps_HeapBuf_Module__state__V)
                  080241f8    00000004     pcount3D_mss_per4ft.oer4ft (.data:ti_sysbios_knl_Task_Module_State_0_idleTask__A)
                  080241fc    00000004     pcount3D_mss_per4ft.oer4ft (.data:ti_sysbios_utils_Load_Module_State_0_runningTask__A)
                  08024200    00000004     pcount3D_mss_per4ft.oer4ft (.data:ti_sysbios_utils_Load_Module_State_0_taskStartTime__A)
                  08024204    00000004     tracker_utils.oer4f (.data)
                  08024208    00000004     pcount3D_mss_per4ft.oer4ft (.data:xdc_runtime_Memory_Module__state__V)
                  0802420c    00000002     pcount3D_mss_per4ft.oer4ft (.data:xdc_runtime_Error_Module__state__V)

.bss       0    08024210    00003794     UNINITIALIZED
                  08024210    00001900     (.common:xdc_runtime_LoggerBuf_Instance_State_0_entryArr__A)
                  08025b10    00001000     (.common:ti_sysbios_family_arm_exc_Exception_Module_State_0_excStack_0__A)
                  08026b10    000004e8     libedma_xwr68xx.aer4f : edma.oer4f (.bss:$O1$$)
                  08026ff8    00000320     pcount3D_mss_per4ft.oer4ft (.bss:taskStackSection)
                  08027318    000001a8     (.common:gCLI)
                  080274c0    00000194     (.common:gGPIOMCB)
                  08027654    00000120     rtsv7R4_T_le_v3D16_eabi.lib : trgmsg.obj (.bss:_CIOBUF_)
                  08027774    00000100     (.common:gMMWave_MCB)
                  08027874    000000a0     (.common:__TI_tmpnams)
                  08027914    00000070     (.common:gEsmMCB)
                  08027984    00000008     (.common:gDMADriverPtr)
                  0802798c    00000008     (.common:gMMWave_DualcoreMCB)
                  08027994    00000008     (.common:parmbuf)
                  0802799c    00000004     (.common:gObjDetObj)
                  080279a0    00000004     (.common:ti_sysbios_knl_Task_Instance_State_0_hookEnv__A)

.myFiqStack 
*          0    080299a8    00000800     UNINITIALIZED
                  080299a8    00000800     pcount3D_mss_per4ft.oer4ft (.myFiqStack)

.stack     0    0802a1a8    00000800     UNINITIALIZED
                  0802a1a8    00000800     --HOLE--

xdc.meta   0    00000000    0000010a     COPY SECTION
                  00000000    0000010a     pcount3D_mss_per4ft.oer4ft (xdc.meta)

xdc.noload 
*          0    00000000    00000000     COPY SECTION

.l3ram     0    51000000    00090000     UNINITIALIZED
                  51000000    00090000     mss_main.oer4f (.l3ram)

MODULE SUMMARY

       Module                          code     ro data   rw data
       ------                          ----     -------   -------
    .\
       rangeprochwa.oer4f              5934     0         0      
       objdetrangehwa.oer4f            2909     0         40     
       trackerproc_3d.oer4f            1032     0         960    
    +--+-------------------------------+--------+---------+---------+
       Total:                          9875     0         1000   
                                                                 
    .\common\
       mmwdemo_rfparser.oer4f          1740     0         8      
       mmwdemo_adcconfig.oer4f         216      0         0      
    +--+-------------------------------+--------+---------+---------+
       Total:                          1956     0         8      
                                                                 
    .\mss\
       mss_main.oer4f                  12257    0         607152 
       pcount3D_cli.oer4f              6098     742       0      
       tracker_utils.oer4f             1922     0         4      
    +--+-------------------------------+--------+---------+---------+
       Total:                          20277    742       607156 
                                                                 
    C:\Users\a0226064\workspace_v10_activeProject\3D_people_count_68xx_mss\Debug\configPkg\package\cfg\
       pcount3D_mss_per4ft.oer4ft      2236     1757      148154 
    +--+-------------------------------+--------+---------+---------+
       Total:                          2236     1757      148154 
                                                                 
    C:/ti/mmw_industrial_toolbox/labs/common/src/dpu/trackerproc_overhead/packages/ti/alg/gtrack/lib/libgtrack3D.aer4f
       gtrack_unit_update.oer4f        4917     0         0      
       gtrack_math.oer4f               1654     2896      0      
       gtrack_create.oer4f             1504     1176      0      
       gtrack_utilities_3d.oer4f       2520     36        0      
       gtrack_module.oer4f             2260     0         0      
       gtrack_utilities.oer4f          1134     0         0      
       gtrack_unit_score.oer4f         1056     0         0      
       gtrack_unit_event.oer4f         876      0         0      
       gtrack_step.oer4f               664      0         0      
       gtrack_unit_predict.oer4f       526      0         0      
       gtrack_unit_start.oer4f         464      0         0      
       gtrack_unit_create.oer4f        428      0         0      
       gtrack_listlib.oer4f            206      0         0      
       gtrack_delete.oer4f             200      0         0      
       gtrack_unit_stop.oer4f          158      0         0      
       gtrack_unit_report.oer4f        98       0         0      
       gtrack_unit_get.oer4f           40       0         0      
       gtrack_unit_delete.oer4f        8        0         0      
    +--+-------------------------------+--------+---------+---------+
       Total:                          18713    4108      0      
                                                                 
    C:/ti/mmwave_sdk_03_05_00_04/packages/ti/control/dpm/lib/libdpm_xwr68xx.aer4f
       dpm_core.oer4f                  1264     0         0      
       dpm_msg.oer4f                   1134     40        0      
       dpm_mailbox.oer4f               362      0         24     
       dpm_pipe.oer4f                  312      0         0      
       dpm_listlib.oer4f               86       0         0      
       dpm_xwr68xx.oer4f               0        0         8      
    +--+-------------------------------+--------+---------+---------+
       Total:                          3158     40        32     
                                                                 
    C:/ti/mmwave_sdk_03_05_00_04/packages/ti/control/mmwave/lib/libmmwave_xwr68xx.aer4f
       mmwave_link.oer4f               2612     0         0      
       mmwave_dualcore.oer4f           2108     0         8      
       mmwave_fullcfg.oer4f            2002     0         0      
       mmwave.oer4f                    1016     0         256    
       mmwave_osal.oer4f               200      0         0      
       mmwave_listlib.oer4f            142      0         0      
    +--+-------------------------------+--------+---------+---------+
       Total:                          8080     0         264    
                                                                 
    C:/ti/mmwave_sdk_03_05_00_04/packages/ti/control/mmwavelink/lib/libmmwavelink_xwr68xx.aer4f
       rl_driver.oer4f                 4458     136       1000   
       rl_sensor.oer4f                 1992     696       0      
       rl_device.oer4f                 424      0         0      
       rl_controller.oer4f             152      0         0      
    +--+-------------------------------+--------+---------+---------+
       Total:                          7026     832       1000   
                                                                 
    C:/ti/mmwave_sdk_03_05_00_04/packages/ti/datapath/dpedma/lib/libdpedma_hwa_xwr68xx.aer4f
       dpedma.oer4f                    610      0         0      
       dpedmahwa.oer4f                 234      0         0      
    +--+-------------------------------+--------+---------+---------+
       Total:                          844      0         0      
                                                                 
    C:/ti/mmwave_sdk_03_05_00_04/packages/ti/drivers/adcbuf/lib/libadcbuf_xwr68xx.aer4f
       adcbuf_mmwave.oer4f             1852     20        0      
       ADCBuf.oer4f                    126      16        4      
       adcbuf_xwr1xxx.oer4f            0        16        24     
    +--+-------------------------------+--------+---------+---------+
       Total:                          1978     52        28     
                                                                 
    C:/ti/mmwave_sdk_03_05_00_04/packages/ti/drivers/crc/lib/libcrc_xwr68xx.aer4f
       crc.oer4f                       1256     0         0      
       crc_xwr68xx.oer4f               0        0         4      
    +--+-------------------------------+--------+---------+---------+
       Total:                          1256     0         4      
                                                                 
    C:/ti/mmwave_sdk_03_05_00_04/packages/ti/drivers/dma/lib/libdma_xwr68xx.aer4f
       dma.oer4f                       3358     0         16     
       dma_xwr68xx.oer4f               0        0         104    
    +--+-------------------------------+--------+---------+---------+
       Total:                          3358     0         120    
                                                                 
    C:/ti/mmwave_sdk_03_05_00_04/packages/ti/drivers/edma/lib/libedma_xwr68xx.aer4f
       edma.oer4f                      3090     16        1256   
       edma_low_level.oer4f            882      0         4      
       edma_xwr1xxx.oer4f              0        56        0      
    +--+-------------------------------+--------+---------+---------+
       Total:                          3972     72        1260   
                                                                 
    C:/ti/mmwave_sdk_03_05_00_04/packages/ti/drivers/esm/lib/libesm_xwr68xx.aer4f
       esm.oer4f                       456      0         112    
       esm_xwr1xxx.oer4f               0        0         12     
    +--+-------------------------------+--------+---------+---------+
       Total:                          456      0         124    
                                                                 
    C:/ti/mmwave_sdk_03_05_00_04/packages/ti/drivers/gpio/lib/libgpio_xwr68xx.aer4f
       gpio.oer4f                      998      0         404    
       gpio_xwr68xx.oer4f              0        0         8      
    +--+-------------------------------+--------+---------+---------+
       Total:                          998      0         412    
                                                                 
    C:/ti/mmwave_sdk_03_05_00_04/packages/ti/drivers/hwa/lib/libhwa_xwr68xx.aer4f
       hwa.oer4f                       4236     96        16     
       hwa_xwr68xx.oer4f               0        0         52     
    +--+-------------------------------+--------+---------+---------+
       Total:                          4236     96        68     
                                                                 
    C:/ti/mmwave_sdk_03_05_00_04/packages/ti/drivers/mailbox/lib/libmailbox_xwr68xx.aer4f
       mailbox.oer4f                   1916     36        80     
       mailbox_xwr68xx.oer4f           0        0         48     
    +--+-------------------------------+--------+---------+---------+
       Total:                          1916     36        128    
                                                                 
    C:/ti/mmwave_sdk_03_05_00_04/packages/ti/drivers/osal/lib/libosal_xwr68xx.aer4f
       HwiP_tirtos.oer4f               226      0         0      
       SemaphoreP_tirtos.oer4f         150      0         0      
       MemoryP_tirtos.oer4f            36       0         0      
       CycleprofilerP_tirtos.oer4f     26       0         0      
       DebugP_tirtos.oer4f             20       0         0      
    +--+-------------------------------+--------+---------+---------+
       Total:                          458      0         0      
                                                                 
    C:/ti/mmwave_sdk_03_05_00_04/packages/ti/drivers/pinmux/lib/libpinmux_xwr68xx.aer4f
       pinmux.oer4f                    390      0         0      
       pinmux_xwr1xxx.oer4f            0        0         4      
    +--+-------------------------------+--------+---------+---------+
       Total:                          390      0         4      
                                                                 
    C:/ti/mmwave_sdk_03_05_00_04/packages/ti/drivers/soc/lib/libsoc_xwr68xx.aer4f
       soc_xwr68xx_mss.oer4f           1264     0         32     
       soc_xwr68xx.oer4f               894      0         64     
       soc.oer4f                       836      0         0      
       soc_mpu.o                       182      0         0      
    +--+-------------------------------+--------+---------+---------+
       Total:                          3176     0         96     
                                                                 
    C:/ti/mmwave_sdk_03_05_00_04/packages/ti/drivers/uart/lib/libuart_xwr68xx.aer4f
       uartsci.oer4f                   2192     0         40     
       uartsci_dma.oer4f               642      0         0      
       UART.oer4f                      150      60        4      
       uart_xwr68xx.oer4f              0        0         124    
    +--+-------------------------------+--------+---------+---------+
       Total:                          2984     60        168    
                                                                 
    C:/ti/mmwave_sdk_03_05_00_04/packages/ti/utils/cli/lib/libcli_xwr68xx.aer4f
       cli_mmwave.oer4f                4652     192       872    
       cli.oer4f                       820      4         424    
    +--+-------------------------------+--------+---------+---------+
       Total:                          5472     196       1296   
                                                                 
    C:/ti/mmwave_sdk_03_05_00_04/packages/ti/utils/mathutils/lib/libmathutils.aer4f
       mathutils.oer4f                 344      0         0      
    +--+-------------------------------+--------+---------+---------+
       Total:                          344      0         0      
                                                                 
    C:/ti/ti-cgt-arm_16.9.6.LTS/lib/rtsv7R4_T_le_v3D16_eabi.lib
       _printfi.obj                    4218     0         0      
       k_rem_pio2.obj                  1532     344       0      
       e_powf.obj                      1424     24        0      
       s_cos.obj                       1012     0         0      
       s_tanf.obj                      788      48        0      
       ull_div32.obj                   696      0         0      
       strtod.obj                      484      152       0      
       e_logf.obj                      484      0         0      
       fopen.obj                       456      0         4      
       defs.obj                        0        0         416    
       trgmsg.obj                      108      0         288    
       s_atanf.obj                     340      52        0      
       fputs.obj                       312      0         0      
       ctype.obj                       0        257       0      
       write.obj                       40       0         200    
       s_scalbn.obj                    236      0         0      
       s_floor.obj                     224      0         0      
       s_ceil.obj                      220      0         0      
       setvbuf.obj                     220      0         0      
       s_scalbnf.obj                   212      0         0      
       fflush.obj                      204      0         0      
       open.obj                        188      0         4      
       k_cos.obj                       184      0         0      
       _io_perm.obj                    174      0         0      
       k_sin.obj                       164      0         0      
       memcpy_t2.obj                   156      0         0      
       fclose.obj                      152      0         0      
       fputc.obj                       152      0         0      
       vsnprintf.obj                   136      0         0      
       s_round.obj                     124      0         0      
       memset_t2.obj                   122      0         0      
       getdevice.obj                   116      0         0      
       s_frexp.obj                     116      0         0      
       printf.obj                      112      0         0      
       copy_decompress_lzss.obj        108      0         0      
       hostlseek.obj                   104      0         0      
       hostrename.obj                  104      0         0      
       fseek.obj                       100      0         0      
       hostopen.obj                    92       0         8      
       sprintf.obj                     100      0         0      
       exit.obj                        80       0         12     
       hostread.obj                    92       0         0      
       close.obj                       88       0         0      
       hostwrite.obj                   88       0         0      
       ltoa.obj                        84       0         0      
       atoi.obj                        80       0         0      
       u_div32.obj                     80       0         0      
       cpy_tbl.obj                     76       0         0      
       hostclose.obj                   68       0         0      
       hostunlink.obj                  68       0         0      
       strtok.obj                      64       0         4      
       strncpy.obj                     54       0         0      
       ull_tofs_t2.obj                 54       0         0      
       unlink.obj                      44       0         0      
       strspn.obj                      42       0         0      
       e_sqrtf.obj                     40       0         0      
       lseek.obj                       40       0         0      
       memcmp.obj                      38       0         0      
       strcspn.obj                     34       0         0      
       memchr.obj                      32       0         0      
       _lock.obj                       20       0         8      
       memccpy.obj                     28       0         0      
       s_copysign.obj                  26       0         0      
       args_main.obj                   24       0         0      
       strcmp.obj                      24       0         0      
       strchr.obj                      22       0         0      
       strlen.obj                      22       0         0      
       strcpy.obj                      20       0         0      
       s_copysignf.obj                 18       0         0      
       copy_decompress_none.obj        14       0         0      
       copy_zero_init.obj              12       0         0      
       errno.obj                       0        0         4      
       stkdepth_vars.obj               0        0         4      
       i_div0.obj                      2        0         0      
    +--+-------------------------------+--------+---------+---------+
       Total:                          17192    877       952    
                                                                 
    C:\ti\bios_6_73_01_01\packages\ti\targets\arm\rtsarm\lib\auto_init.aer4ft
       auto_init.oer4ft                160      0         0      
    +--+-------------------------------+--------+---------+---------+
       Total:                          160      0         0      
                                                                 
    C:\ti\bios_6_73_01_01\packages\ti\targets\arm\rtsarm\lib\boot.aer4ft
       boot.oer4ft                     116      0         0      
    +--+-------------------------------+--------+---------+---------+
       Total:                          116      0         0      
                                                                 
    C:\ti\mmw_industrial_toolbox\labs\people_counting\68xx_3D_people_counting\src\mss\src\sysbios\sysbios.aer4ft
       BIOS.obj                        20742    0         0      
       exc_Exception_asm.obj           308      0         0      
       vim_Hwi_asm.obj                 208      0         0      
       arm_TaskSupport_asm.obj         180      0         0      
       vim_Hwi_asm_switch.obj          152      0         0      
       a15_TimestampProvider_asm.obj   46       0         0      
       arm_IntrinsicsSupport_asm.obj   12       0         0      
       tms570_Core_asm.obj             10       0         0      
    +--+-------------------------------+--------+---------+---------+
       Total:                          21658    0         0      
                                                                 
       Stack:                          0        0         2048   
       Linker Generated:               0        1427      0      
    +--+-------------------------------+--------+---------+---------+
       Grand Total:                    142285   10295     764322 


LINKER GENERATED COPY TABLES

__TI_cinit_table @ 000255e8 records: 6, size/record: 8, table size: 48
	.data: load addr=00025080, load size=0000052f bytes, run addr=08020800, run size=00003a0e bytes, compression=lzss
	.bss: load addr=000255c0, load size=00000008 bytes, run addr=08024210, run size=00003794 bytes, compression=zero_init
	.dpcLocalRam: load addr=000255c8, load size=00000008 bytes, run addr=080279a4, run size=00002000 bytes, compression=zero_init
	.l3ram: load addr=000255d0, load size=00000008 bytes, run addr=51000000, run size=00090000 bytes, compression=zero_init
	.myFiqStack: load addr=000255d8, load size=00000008 bytes, run addr=080299a8, run size=00000800 bytes, compression=zero_init
	systemHeap: load addr=000255e0, load size=00000008 bytes, run addr=08000000, run size=00020800 bytes, compression=zero_init


LINKER GENERATED HANDLER TABLE

__TI_handler_table @ 000255b0 records: 3, size/record: 4, table size: 12
	index: 0, handler: __TI_zero_init
	index: 1, handler: __TI_decompress_lzss
	index: 2, handler: __TI_decompress_none


GLOBAL SYMBOLS: SORTED ALPHABETICALLY BY Name 

address   name                                                                 
-------   ----                                                                 
0001fc65  ADCBUF_MMWave_close                                                  
00006add  ADCBUF_MMWave_control                                                
00018bcd  ADCBUF_MMWave_getChanBufAddr                                         
0000117b  ADCBUF_MMWave_init                                                   
00012e29  ADCBUF_MMWave_open                                                   
00022ad5  ADCBuf_Params_init                                                   
0802400c  ADCBuf_config                                                        
000182d7  ADCBuf_control                                                       
00024d6c  ADCBuf_defaultParams                                                 
00020d85  ADCBuf_init                                                          
000209a1  ADCBuf_open                                                          
0001f4ad  C$$EXIT                                                              
0001d833  C$$IO$$                                                              
0001e509  CLI_MMWaveExtensionHandler                                           
00018c75  CLI_MMWaveExtensionHelp                                              
000207e5  CLI_MMWaveExtensionInit                                              
00022ae5  CLI_getMMWaveExtensionConfig                                         
0002253d  CLI_getMMWaveExtensionOpenConfig                                     
00015c01  CLI_open                                                             
0001f5a1  CLI_write                                                            
00014eb5  CRC_computeSignature                                                 
0001f13d  CRC_getSignature                                                     
0001edf1  CRC_getTransactionId                                                 
000229ed  CRC_initConfigParams                                                 
0000d485  CRC_open                                                             
00013bfb  CycleprofilerP_getTimeStamp                                          
00022847  CycleprofilerP_init                                                  
00022b05  DMA_Params_init                                                      
00019455  DMA_assignChannel                                                    
00014bb5  DMA_clearChannelInterruptFlag                                        
080240ac  DMA_defaultParams                                                    
0001d4a1  DMA_disableChannel                                                   
0001458d  DMA_disableInterrupt                                                 
0001d50d  DMA_enableChannel                                                    
00015ce1  DMA_enableInterrupt                                                  
0001ee45  DMA_freeChannel                                                      
00017dd1  DMA_getChannelInterruptFlag                                          
000030d7  DMA_init                                                             
0000ad25  DMA_open                                                             
0000da91  DMA_setChannelParams                                                 
0001594d  DPEDMAHWA_configTwoHotSignature                                      
00013ae1  DPEDMAHWA_configTwoHotSignatureWithMinorMode                         
00013f3d  DPEDMA_configSyncAB                                                  
0001479d  DPEDMA_configSyncA_singleFrame                                       
0001f045  DPEDMA_setup_shadow_link                                             
00017641  DPM_deinit                                                           
0001e9d1  DPM_execute                                                          
00010e15  DPM_init                                                             
00017705  DPM_ioctl                                                            
000223b7  DPM_listAdd                                                          
00021dcf  DPM_listCat                                                          
000221c3  DPM_listRemove                                                       
00021611  DPM_msgInitHeader                                                    
00010f95  DPM_msgRecv                                                          
00020855  DPM_notifyExecute                                                    
000214c3  DPM_pipeDeinit                                                       
0002114d  DPM_pipeInit                                                         
0001fa6b  DPM_pipeRecv                                                         
0001c6a1  DPM_pipeSend                                                         
0001d579  DPM_relayResult                                                      
0001fced  DPM_start                                                            
0001fd31  DPM_stop                                                             
0001f18d  DPM_synch                                                            
00006f85  DPU_RangeProcHWA_config                                              
000167e9  DPU_RangeProcHWA_control                                             
00021639  DPU_RangeProcHWA_deinit                                              
00017895  DPU_RangeProcHWA_init                                                
00005b7d  DPU_RangeProcHWA_process                                             
00010b0d  DPU_TrackerProc_config                                               
00021179  DPU_TrackerProc_init                                                 
0000ed3d  DPU_TrackerProc_process                                              
0001aad9  DPU_trackerProc_updateParamTables                                    
0000afd5  EDMA3ChannelToParamMap                                               
0001d3b9  EDMA3ClrCCErr                                                        
00021a75  EDMA3ClrEvt                                                          
00021a99  EDMA3ClrIntr                                                         
0002088d  EDMA3ClrMissEvt                                                      
00021abd  EDMA3DisableDmaEvt                                                   
00021ae1  EDMA3DisableEvtIntr                                                  
0002256d  EDMA3DisableQdmaEvt                                                  
0001ea81  EDMA3EnableChInShadowReg                                             
00021b05  EDMA3EnableDmaEvt                                                    
00021b29  EDMA3EnableEvtIntr                                                   
00022585  EDMA3EnableQdmaEvt                                                   
0001e2e9  EDMA3ErrIntrHighStatusGet                                            
0001e569  EDMA3GetCCErrStatus                                                  
0001efe9  EDMA3GetErrIntrStatus                                                
0002285d  EDMA3GetIntrStatus                                                   
00018d1d  EDMA3Init                                                            
00022871  EDMA3IntrStatusHighGet                                               
0001f1dd  EDMA3MapChToEvtQ                                                     
00022885  EDMA3MapQdmaChToPaRAM                                                
00021df1  EDMA3QdmaClrMissEvt                                                  
0001f899  EDMA3QdmaGetErrIntrStatus                                            
00021b4d  EDMA3SetEvt                                                          
0002241f  EDMA3SetPaRAM                                                        
000229ff  EDMA3SetQdmaTrigWord                                                 
00010675  EDMA_configChannel                                                   
00013d19  EDMA_configErrorMonitoring                                           
0001cd6d  EDMA_configParamSet                                                  
0001f5ed  EDMA_disableChannel                                                  
0001f639  EDMA_enableChannel                                                   
00013651  EDMA_init                                                            
00020111  EDMA_linkParamSets                                                   
0000f459  EDMA_open                                                            
0001e091  EDMA_startDmaTransfer                                                
0000d275  EDMAsetRegion                                                        
0001ead9  ESM_highpriority_FIQ                                                 
000194f9  ESM_init                                                             
00021e11  ESM_lowpriority_IRQ                                                  
0001886d  ESM_processInterrupt                                                 
0001ab69  GPIO_init                                                            
00011289  GPIO_setConfig                                                       
0001d1f9  GPIO_toggle                                                          
00017b9d  GPIO_write                                                           
0001fdfd  HOSTclose                                                            
0001de2d  HOSTlseek                                                            
0001e805  HOSTopen                                                             
0001e861  HOSTread                                                             
0001de95  HOSTrename                                                           
0001fe41  HOSTunlink                                                           
0001ed41  HOSTwrite                                                            
0000a7a9  HWA_configCommon                                                     
000037e5  HWA_configParamSet                                                   
0001a59f  HWA_configRam                                                        
00020a09  HWA_disableDoneInterrupt                                             
0001b7ad  HWA_disableParamSetInterrupt                                         
0002053b  HWA_enable                                                           
0001f685  HWA_enableDoneInterrupt                                              
00016c01  HWA_enableParamSetInterrupt                                          
0001e0f5  HWA_getDMAChanIndex                                                  
0001eb31  HWA_getDMAconfig                                                     
00020151  HWA_getHWAMemInfo                                                    
000065f7  HWA_init                                                             
000107fd  HWA_open                                                             
00020007  HWA_reset                                                            
0002076d  HWA_setDMA2ACCManualTrig                                             
00022899  HwiP_Params_init                                                     
0001c5a1  HwiP_create                                                          
000207a9  HwiP_delete                                                          
0000c809  HwiP_disable                                                         
000060dd  HwiP_disableInterrupt                                                
0000996d  HwiP_enableInterrupt                                                 
0001fa1b  HwiP_restore                                                         
0001959d  MMWave_addBpmChirp                                                   
000170c9  MMWave_addChirp                                                      
00018395  MMWave_addProfile                                                    
0001ce5d  MMWave_config                                                        
00017191  MMWave_configBPM                                                     
00019b51  MMWave_configLink                                                    
00020579  MMWave_decodeError                                                   
0000eb69  MMWave_decodeErrorLevel                                              
0001bbf9  MMWave_deviceCfgAsyncEvent                                           
0001d2d9  MMWave_deviceCfgFxn                                                  
0001bc7d  MMWave_deviceEventFxn                                                
0000b51d  MMWave_deviceExecuteFxn                                              
00022a11  MMWave_deviceGetDeviceInfo                                           
00014261  MMWave_deviceInitFxn                                                 
0001c799  MMWave_deviceOpenFxn                                                 
0001ced1  MMWave_deviceStartFxn                                                
0001daed  MMWave_deviceStopFxn                                                 
00022439  MMWave_deviceSyncFxn                                                 
00022453  MMWave_encodeError                                                   
0001eb89  MMWave_execute                                                       
00020049  MMWave_executeLink                                                   
00017259  MMWave_flushCfg                                                      
0001c115  MMWave_getBpmChirpCfg                                                
00018e6d  MMWave_getBpmChirpHandle                                             
0001a211  MMWave_getChirpCfg                                                   
00017321  MMWave_getChirpHandle                                                
0001bd01  MMWave_getNumBpmChirp                                                
0001cde5  MMWave_getNumChirps                                                  
0001b835  MMWave_getProfileCfg                                                 
00019bed  MMWave_getProfileHandle                                              
00015ea1  MMWave_init                                                          
0001eeed  MMWave_initLink                                                      
0002246d  MMWave_listAdd                                                       
00021e31  MMWave_listCat                                                       
0001436d  MMWave_listGetHead                                                   
0001447d  MMWave_listGetNext                                                   
000221df  MMWave_listRemove                                                    
00020db5  MMWave_listRemoveNode                                                
0001bd85  MMWave_open                                                          
000101c5  MMWave_openLink                                                      
00021229  MMWave_osalMutexCreate                                               
000228d5  MMWave_osalMutexDelete                                               
0002259d  MMWave_osalMutexLock                                                 
00011ee5  MMWave_osalMutexUnlock                                               
00021255  MMWave_osalSemCreate                                                 
000228e9  MMWave_osalSemDelete                                                 
000139b5  MMWave_osalSemSignal                                                 
000225b5  MMWave_osalSemWait                                                   
00019641  MMWave_start                                                         
000148a1  MMWave_startLink                                                     
0001e7a9  MMWave_stop                                                          
0001d651  MMWave_stopLink                                                      
0001f22d  MMWave_sync                                                          
00021661  Mailbox_Config_init                                                  
0001abf9  Mailbox_close                                                        
00024ab0  Mailbox_defaultCfg                                                   
0001c815  Mailbox_init                                                         
0000bf01  Mailbox_open                                                         
000162e9  Mailbox_read                                                         
0001db55  Mailbox_readFlush                                                    
00014695  Mailbox_write                                                        
00020631  Mailbox_writeReset                                                   
00022a23  MemoryP_ctrlAlloc                                                    
0001ff25  MemoryP_ctrlFree                                                     
000116d9  MemoryP_getStats                                                     
0001c891  MmwDemoCLIMaxAccelerationParamCfg                                    
00018711  MmwDemo_ADCBufConfig                                                 
00021517  MmwDemo_ADCBufOpen                                                   
000196e5  MmwDemo_CLIAllocationParamCfg                                        
00013775  MmwDemo_CLIBoundaryBoxCfg                                            
00019c89  MmwDemo_CLIGatingParamCfg                                            
00016211  MmwDemo_CLIPresenceParamCfg                                          
000153a5  MmwDemo_CLISensorPositionCfg                                         
0001b8bd  MmwDemo_CLIStateParamCfg                                             
00018445  MmwDemo_CLIStaticBoundaryBoxCfg                                      
00011115  MmwDemo_CLITrackingCfg                                               
08024134  MmwDemo_RFParserHwCfg                                                
00021e51  MmwDemo_RFParser_getChirpEndIdx                                      
00022615  MmwDemo_RFParser_getChirpStartIdx                                    
000228fd  MmwDemo_RFParser_getNumSubFrames                                     
00019d25  MmwDemo_RFParser_parseConfig                                         
000028f1  Pcount3DDemo_CLIInit                                                 
00013895  Pcount3DDemo_CfgUpdate                                               
0000ca35  Pcount3DDemo_bpmConfig                                               
00012a7d  Pcount3DDemo_configSensor                                            
00020a71  Pcount3DDemo_isAllCfgInNonPendingState                               
00020aa5  Pcount3DDemo_isAllCfgInPendingState                                  
0000e7c5  Pcount3DDemo_openSensor                                              
00020de5  Pcount3DDemo_resetStaticCfgPendingState                              
0001b68d  Pcount3DDemo_sleep                                                   
0000e5e9  Pcount3DDemo_startSensor                                             
0000f295  Pcount3DDemo_stopSensor                                              
0001d6bd  Pinmux_Set_FuncSel                                                   
00019065  Pinmux_Set_OverrideCtrl                                              
UNDEFED   SHT$$INIT_ARRAY$$Base                                                
UNDEFED   SHT$$INIT_ARRAY$$Limit                                               
00017fb3  SOC_MPUAreRegionsSeparate                                            
00017f5f  SOC_MPUDisable                                                       
00017f93  SOC_MPUDisableBackgroundRegion                                       
00017f41  SOC_MPUEnable                                                        
00017f7d  SOC_MPUEnableBackgroundRegion                                        
00017fa9  SOC_MPUGetNumberOfRegions                                            
00017fc1  SOC_MPUGetRegion                                                     
00017fcd  SOC_MPUGetRegionBaseAddress                                          
00017fe7  SOC_MPUGetRegionPermission                                           
00017fdd  SOC_MPUGetRegionType                                                 
00017fbb  SOC_MPUSetRegion                                                     
00017fc7  SOC_MPUSetRegionBaseAddress                                          
00017ff1  SOC_MPUSetRegionSizeRegister                                         
00017fd3  SOC_MPUSetRegionTypeAndPermission                                    
00021541  SOC_SystemISR                                                        
08023d3c  SOC_TranslateAddr_LUT                                                
0001910d  SOC_deregisterSysIntListener                                         
00009345  SOC_deviceInit                                                       
00020ad9  SOC_enableHWA                                                        
0001a6cd  SOC_gateClock                                                        
00020e15  SOC_getDevicePartNumber                                              
0001c295  SOC_getDeviceRFFreqScaleFactor                                       
00022219  SOC_getInAddr_LUTType                                                
0002206d  SOC_getOutAddr_LUTType                                               
00020b0d  SOC_hasDSPCore                                                       
0001b2b5  SOC_init                                                             
00021bb9  SOC_isDSSOperational                                                 
00021bdd  SOC_isMMWaveDSSOperational                                           
00021c01  SOC_isMMWaveMSSOperational                                           
000198d1  SOC_registerSysIntListener                                           
0001fdb9  SOC_resetDMA                                                         
00020b41  SOC_setMMWaveDSSLinkState                                            
00020b75  SOC_setMMWaveMSSLinkState                                            
00020ba9  SOC_setMSSLinkState                                                  
0001b341  SOC_translateAddress                                                 
000173e9  SOC_ungateClock                                                      
0002066d  SOC_unhaltBSS                                                        
00021281  SOC_waitBSSPowerUp                                                   
000126b9  SemaphoreP_Params_init                                               
0001e159  SemaphoreP_create                                                    
00020d43  SemaphoreP_delete                                                    
00022a35  SemaphoreP_pend                                                      
0001ff75  SemaphoreP_post                                                      
0001ff75  SemaphoreP_postFromClock                                             
0001ff75  SemaphoreP_postFromISR                                               
000149a5  UART_Params_init                                                     
08023edc  UART_config                                                          
000248c4  UART_defaultParams                                                   
000208c5  UART_init                                                            
00020bdd  UART_open                                                            
000206e5  UART_read                                                            
00020f05  UART_write                                                           
000219f7  UART_writePolling                                                    
0001ec39  UartSci_closeDMA                                                     
00021d69  UartSci_disableRxDMA                                                 
00022925  UartSci_disableTxDMA                                                 
00021d8b  UartSci_enableRxDMA                                                  
00022939  UartSci_enableTxDMA                                                  
0001b3cd  UartSci_initiateRxDMA                                                
0001ada9  UartSci_initiateTxDMA                                                
00017a15  UartSci_isDMAEnabled                                                 
00018225  UartSci_openDMA                                                      
000210bf  _DPC_Objdet_Assert                                                   
0002294d  _DebugP_assert                                                       
00021a29  _Pcount3DDemo_debugAssert                                            
00000000  __ASM__                                                              
08027654  __CIOBUF_                                                            
00000085  __ISA__                                                              
00000097  __PLAT__                                                             
0802a9a8  __STACK_END                                                          
00000800  __STACK_SIZE                                                         
000000bb  __TARG__                                                             
000255e8  __TI_CINIT_Base                                                      
00025618  __TI_CINIT_Limit                                                     
000255b0  __TI_Handler_Table_Base                                              
000255bc  __TI_Handler_Table_Limit                                             
00019971  __TI_auto_init                                                       
0000f197  __TI_cleanup                                                         
080240fc  __TI_cleanup_ptr                                                     
0001a2a9  __TI_closefile                                                       
0001d729  __TI_decompress_lzss                                                 
00022a83  __TI_decompress_none                                                 
00016e65  __TI_doflush                                                         
08024100  __TI_dtors_ptr                                                       
08024104  __TI_enable_exit_profile_output                                      
080240cc  __TI_ft_end                                                          
ffffffff  __TI_pprof_out_hndl                                                  
000008c5  __TI_printfi                                                         
ffffffff  __TI_prof_data_size                                                  
ffffffff  __TI_prof_data_start                                                 
00018823  __TI_rd_ok                                                           
0001d837  __TI_readmsg                                                         
00025080  __TI_static_base__                                                   
08027874  __TI_tmpnams                                                         
0001d801  __TI_writemsg                                                        
000187bf  __TI_wrt_ok                                                          
00018655  __TI_zero_init                                                       
000000e2  __TRDR__                                                             
00009343  __aeabi_idiv0                                                        
0001cc79  __aeabi_memclr                                                       
0001cc79  __aeabi_memclr4                                                      
0001cc79  __aeabi_memclr8                                                      
00019e5d  __aeabi_memcpy                                                       
00019e5d  __aeabi_memcpy4                                                      
00019e5d  __aeabi_memcpy8                                                      
0001cc7b  __aeabi_memset                                                       
0001cc7b  __aeabi_memset4                                                      
0001cc7b  __aeabi_memset8                                                      
080240d8  __aeabi_stderr                                                       
080240d0  __aeabi_stdin                                                        
080240d4  __aeabi_stdout                                                       
0001f4fc  __aeabi_uidiv                                                        
0001f4fc  __aeabi_uidivmod                                                     
00020969  __aeabi_ul2f                                                         
0000aa6c  __aeabi_uldivmod                                                     
ffffffff  __binit__                                                            
ffffffff  __c_args__                                                           
00017e89  __kernel_cos                                                         
00003e3d  __kernel_rem_pio2                                                    
0001982d  __kernel_sin                                                         
0802a1a8  __stack                                                              
000226a5  _args_main                                                           
0001cf44  _c_int00                                                             
000244f8  _ctypes_                                                             
08023ac8  _device                                                              
080238c0  _ftable                                                              
0802412c  _lock                                                                
000229ab  _nop                                                                 
000229a3  _register_lock                                                       
0002299d  _register_unlock                                                     
08023c54  _stream                                                              
08024130  _unlock                                                              
0001f4b1  abort                                                                
08023018  appAllocationParamTable                                              
08022fc8  appGatingParamTable                                                  
08023078  appPresenceParamTable                                                
08023168  appSceneryParamTable                                                 
08022f98  appStateParamTable                                                   
00011c41  atanf                                                                
0001f45d  atoi                                                                 
ffffffff  binit                                                                
00016059  ceil                                                                 
00016059  ceill                                                                
0001ece9  close                                                                
0001f7b5  copy_in                                                              
000224bb  copysign                                                             
00022a59  copysignf                                                            
000224bb  copysignl                                                            
000084d9  cos                                                                  
000084d9  cosl                                                                 
00023988  defaultAllocationParams                                              
00023974  defaultGatingParams                                                  
000239a0  defaultPresenceParams                                                
000239dc  defaultSceneryParams                                                 
00023968  defaultStateParams                                                   
08026b10  edmaDbg                                                              
080241cc  errno                                                                
0001f4b9  exit                                                                 
0001a30f  fclose                                                               
00016eb1  fflush                                                               
0001d02d  finddevice                                                           
00015dc1  floor                                                                
00015dc1  floorl                                                               
0000f1ed  fopen                                                                
0001a341  fputc                                                                
00012bb5  fputs                                                                
00022487  free                                                                 
0000f1c3  freopen                                                              
0001d0a1  frexp                                                                
0001d0a1  frexpl                                                               
0001e1bd  fseek                                                                
00024d58  gADCBufFxnTable                                                      
00024d8c  gADCBufHwCfg                                                         
08027318  gCLI                                                                 
08023430  gCLIMMWaveControlCfg                                                 
08023388  gCLIMMWaveExtensionTable                                             
08023360  gCLIMMWaveOpenCfg                                                    
08023358  gCLI_mmwave_freq_scale_factor                                        
080241b8  gCRCRegister                                                         
08027984  gDMADriverPtr                                                        
08023b40  gDMAHwCfg                                                            
080279a4  gDPCTCM                                                              
08023f00  gDPC_ObjDetRangeHWACfg                                               
080241bc  gDPM                                                                 
0802413c  gDPMHwAttrib                                                         
00024a38  gDPMMessageFxnTable                                                  
08024084  gDPMRemoteTable                                                      
08024108  gESMHwCfgAttrs                                                       
0002493c  gEdmaHwAttrs                                                         
08027914  gEsmMCB                                                              
08024144  gGPIOHwAtrrib                                                        
080274c0  gGPIOMCB                                                             
08024204  gGtrackMemoryUsed                                                    
08023f6c  gHWADriverPtr                                                        
08023e2c  gHWAHwCfg                                                            
080240bc  gHwaEDMAChanMapping                                                  
0802798c  gMMWave_DualcoreMCB                                                  
08027774  gMMWave_MCB                                                          
08023ca4  gMailboxMCB                                                          
08024024  gMailboxMssBssHwCfg                                                  
0802403c  gMailboxMssDssHwCfg                                                  
51000000  gMmwL3                                                               
08020808  gMmwMssMCB                                                           
0802799c  gObjDetObj                                                           
080241c4  gPinmuxRegs                                                          
08020800  gRFLdoBypassCfg                                                      
08023f70  gSOCHwAttrib                                                         
08023eb4  gUartSciFxnTable                                                     
08023bfc  gUartSciHwCfg                                                        
0001d05b  getdevice                                                            
00022645  gtrack_alloc                                                         
0001f097  gtrack_calcDim                                                       
0001a761  gtrack_calcDistance                                                  
000184f5  gtrack_calcMeasurementLimits                                         
000191b5  gtrack_calcMeasurementSpread                                         
0001dbbd  gtrack_cart2sph                                                      
00012f5d  gtrack_cartesian2spherical                                           
0001f0e9  gtrack_censor2world                                                  
0000e22d  gtrack_computeJacobian                                               
000193ad  gtrack_computeMahalanobis                                            
0001defd  gtrack_computeMahalanobisPartial                                     
0000500d  gtrack_create                                                        
000174b1  gtrack_delete                                                        
00022b15  gtrack_free                                                          
0001ec91  gtrack_isInsideBoresightStaticZone                                   
0001f2cd  gtrack_isInsideSolidAngle                                            
0001be09  gtrack_isPointBehindTarget                                           
0001dc25  gtrack_isPointInsideBox                                              
00021c25  gtrack_listDequeue                                                   
00021809  gtrack_listEnqueue                                                   
0001b71d  gtrack_listGetFirst                                                  
0001e8bd  gtrack_listGetNext                                                   
00022765  gtrack_listInit                                                      
0001d115  gtrack_listRemoveElement                                             
00021439  gtrack_log                                                           
00020e45  gtrack_matrixAdd                                                     
0001b081  gtrack_matrixComputePJT                                              
0001bf93  gtrack_matrixCovAcc                                                  
0001a7f5  gtrack_matrixCovFilter                                               
0001d795  gtrack_matrixCovNormalize                                            
0002226d  gtrack_matrixGetDiag                                                 
0002208b  gtrack_matrixInit                                                    
00009011  gtrack_matrixInv                                                     
0001a177  gtrack_matrixMakeSymmetrical                                         
0001b459  gtrack_matrixMultiply                                                
0001c621  gtrack_matrixPrint                                                   
00016715  gtrack_matrixPrint2                                                  
00020191  gtrack_matrixSetDiag                                                 
00020e75  gtrack_matrixSub                                                     
0001b945  gtrack_matrixTransposeMultiply                                       
00004439  gtrack_moduleAllocate                                                
0001fafd  gtrack_moduleAssociate                                               
0001f31d  gtrack_modulePredict                                                 
000104e9  gtrack_modulePresence                                                
0002008b  gtrack_moduleReport                                                  
0001c395  gtrack_moduleUpdate                                                  
0001be8d  gtrack_sincosd                                                       
0001c415  gtrack_sph2cart                                                      
00014cb5  gtrack_spherical2cartesian                                           
0000b285  gtrack_step                                                          
0000fb31  gtrack_unitCreate                                                    
000151a9  gtrack_unitDelete                                                    
00008ca5  gtrack_unitEvent                                                     
00022aa3  gtrack_unitGetC                                                      
0001ba55  gtrack_unitGetMCenter                                                
00022c51  gtrack_unitGetSpread                                                 
0000ce61  gtrack_unitPredict                                                   
0001e4a5  gtrack_unitReport                                                    
00007ca9  gtrack_unitScore                                                     
0000e999  gtrack_unitStart                                                     
00019ab1  gtrack_unitStop                                                      
0000117d  gtrack_unitUpdate                                                    
0001e6ef  gtrack_unrollRadialVelocity                                          
0002182f  gtrack_vectorAdd                                                     
00022b25  gtrack_vectorInit                                                    
00022289  gtrack_vectorScalarMul                                               
00021e91  gtrack_vectorScalarMulAcc                                            
00021855  gtrack_vectorSub                                                     
00007409  gtrack_velocityStateHandling                                         
00015771  ldexp                                                                
00016565  ldexpf                                                               
00015771  ldexpl                                                               
0000dc81  logf                                                                 
00021729  lseek                                                                
0001ef41  ltoa                                                                 
0000f619  main                                                                 
080241d8  main_func_sp                                                         
0002111f  malloc                                                               
00022961  mathUtils_ceilLog2                                                   
00022827  mathUtils_floorLog2                                                  
000131b9  mathUtils_genWindow                                                  
00022a47  mathUtils_pow2roundup                                                
000222a5  memccpy                                                              
00021ed1  memchr                                                               
000219d1  memcmp                                                               
00019e5d  memcpy                                                               
0001cc81  memset                                                               
00017d15  open                                                                 
00024ad4  pInit                                                                
08027994  parmbuf                                                              
080234fc  partInfoStringArray                                                  
000055ed  powf                                                                 
0001d351  printf                                                               
0001a341  putc                                                                 
0001a3c7  putchar                                                              
00012cc5  puts                                                                 
080241c0  regionId                                                             
00021305  remove                                                               
00022975  rlAppendDummy                                                        
000208fd  rlAppendSubBlock                                                     
0002156b  rlDeviceGetMmWaveLinkVersion                                         
000212ad  rlDeviceGetMssVersion                                                
0002265d  rlDeviceGetRfVersion                                                 
0001fb45  rlDeviceGetVersion                                                   
0001f3bd  rlDeviceIdentifyCmdDir                                               
0001df63  rlDevicePowerOff                                                     
0001b4e5  rlDevicePowerOn                                                      
0001cfb9  rlDriverAsyncEventHandler                                            
00022675  rlDriverCalCRC                                                       
0001e977  rlDriverCalChkSum                                                    
00010359  rlDriverCmdInvoke                                                    
00012571  rlDriverCmdSendRetry                                                 
000216d9  rlDriverConstructInMsg                                               
00016639  rlDriverConstructOutMsg                                              
0001a889  rlDriverDeInit                                                       
0001c495  rlDriverExecuteGetApi                                                
0001dd5d  rlDriverExecuteSetApi                                                
0002268d  rlDriverFillPayload                                                  
00016a59  rlDriverGetHandle                                                    
0001c515  rlDriverGetPlatformId                                                
0001ddc5  rlDriverHostIrqHandler                                               
00014db5  rlDriverInit                                                         
00022989  rlDriverIsDeviceMapValid                                             
00015f7d  rlDriverMsgCmdReply                                                  
0000f7d5  rlDriverMsgRead                                                      
0001a91d  rlDriverMsgReadCmdCtx                                                
0001b571  rlDriverMsgReadSpawnCtx                                              
00017955  rlDriverMsgWrite                                                     
0001fb8d  rlDriverOsiInit                                                      
0001a9b1  rlDriverProcRdMsg                                                    
000152ad  rlDriverRdVerifyMsg                                                  
0000ef05  rlDriverRxHdrRead                                                    
000201d1  rlDriverValidateHdr                                                  
0001f40d  rlDriverVerifyCRC                                                    
0001925d  rlDriverWaitForResponse                                              
00021c49  rlEnableContMode                                                     
000224a1  rlGetRfDieId                                                         
000200cd  rlGetSubBlock                                                        
00021779  rlGetSubBlockId                                                      
000217a9  rlGetSubBlockLen                                                     
00016ccd  rlRfCalibDataRestore                                                 
00021eb1  rlRfInit                                                             
0002187b  rlRfInitCalibConfig                                                  
00015a39  rlRfPhShiftCalibDataRestore                                          
000218a1  rlRfRunTimeCalibConfig                                               
000218c7  rlRfSetCalMonFreqLimitConfig                                         
00021c6d  rlRfSetCalMonTimeUnitConfig                                          
000218ed  rlRfSetDeviceCfg                                                     
00021913  rlRfSetLdoBypassConfig                                               
00020ea5  rlSensorStart                                                        
000212d9  rlSensorStop                                                         
00021939  rlSetAdcOutConfig                                                    
00019305  rlSetAdvFrameConfig                                                  
0002195f  rlSetBpmCommonConfig                                                 
00021985  rlSetChannelConfig                                                   
00016d99  rlSetChirpConfig                                                     
000219ab  rlSetContModeConfig                                                  
00017579  rlSetFrameConfig                                                     
00021c91  rlSetLowPowerModeConfig                                              
00016491  rlSetMultiBpmChirpConfig                                             
000185a5  rlSetProfileConfig                                                   
08022cb0  rl_rxMsg                                                             
08022bb0  rl_txMsg                                                             
0001cafd  round                                                                
0001cafd  roundl                                                               
00015771  scalbn                                                               
00016565  scalbnf                                                              
00015771  scalbnl                                                              
00016135  setvbuf                                                              
0001e221  sprintf                                                              
00021701  sqrtf                                                                
000227cf  strchr                                                               
000226bd  strcmp                                                               
000229b1  strcpy                                                               
00021dad  strcspn                                                              
000227e5  strlen                                                               
00020933  strncpy                                                              
00021595  strspn                                                               
0000de65  strtod                                                               
00020211  strtok                                                               
0000de65  strtold                                                              
000096ad  tanf                                                                 
08023f24  ti_sysbios_BIOS_Module__state__V                                     
00021389  ti_sysbios_BIOS_RtsGateProxy_Handle__label__S                        
0001f54d  ti_sysbios_BIOS_RtsGateProxy_enter__E                                
0001f8ed  ti_sysbios_BIOS_RtsGateProxy_leave__E                                
00022db1  ti_sysbios_BIOS_RtsGateProxy_query__E                                
00021331  ti_sysbios_BIOS_atExitFunc__I                                        
000220a9  ti_sysbios_BIOS_errorRaiseHook__I                                    
000227fb  ti_sysbios_BIOS_exitFunc__I                                          
00022b41  ti_sysbios_BIOS_getCpuFreq__E                                        
00022e01  ti_sysbios_BIOS_linkedWithIncorrectBootLibrary__E                    
0000d06f  ti_sysbios_BIOS_nullFunc__I                                          
00021cb5  ti_sysbios_BIOS_registerRTSLock__I                                   
00021cd9  ti_sysbios_BIOS_removeRTSLock__I                                     
000222c1  ti_sysbios_BIOS_rtsLock__I                                           
000226d5  ti_sysbios_BIOS_rtsUnlock__I                                         
00022b51  ti_sysbios_BIOS_setThreadType__E                                     
00020ed5  ti_sysbios_BIOS_startFunc__I                                         
00022b61  ti_sysbios_BIOS_start__E                                             
00018164  ti_sysbios_family_arm_IntrinsicsSupport_maxbitA__I                   
00018164  ti_sysbios_family_arm_IntrinsicsSupport_maxbit__E                    
0002072d  ti_sysbios_family_arm_TaskSupport_Module__startupDone__S             
0001ca80  ti_sysbios_family_arm_TaskSupport_buildTaskStack                     
00022c81  ti_sysbios_family_arm_TaskSupport_checkStack__E                      
00022c91  ti_sysbios_family_arm_TaskSupport_getStackAlignment__E               
00022234  ti_sysbios_family_arm_TaskSupport_glue                               
00024df0  ti_sysbios_family_arm_TaskSupport_stackAlignment__C                  
00021ef1  ti_sysbios_family_arm_TaskSupport_stackUsed__E                       
00020f11  ti_sysbios_family_arm_TaskSupport_start__E                           
00022250  ti_sysbios_family_arm_TaskSupport_swap__E                            
080241e0  ti_sysbios_family_arm_a15_TimestampProvider_Module__state__V         
00022b71  ti_sysbios_family_arm_a15_TimestampProvider_Module_startup__E        
00021f11  ti_sysbios_family_arm_a15_TimestampProvider_autoRefreshFxn__I        
000217d9  ti_sysbios_family_arm_a15_TimestampProvider_get32__E                 
00020c11  ti_sysbios_family_arm_a15_TimestampProvider_get64__E                 
00022b41  ti_sysbios_family_arm_a15_TimestampProvider_getFreq__E               
00022c5f  ti_sysbios_family_arm_a15_TimestampProvider_getOverflowCCNT__I       
000224d5  ti_sysbios_family_arm_a15_TimestampProvider_initCCNT__I              
00024df4  ti_sysbios_family_arm_exc_Exception_E_dataAbort__C                   
00024df8  ti_sysbios_family_arm_exc_Exception_E_prefetchAbort__C               
00024dfc  ti_sysbios_family_arm_exc_Exception_E_swi__C                         
00024e00  ti_sysbios_family_arm_exc_Exception_E_undefinedInstruction__C        
080241b2  ti_sysbios_family_arm_exc_Exception_Module_State_0_excActive__A      
080241e4  ti_sysbios_family_arm_exc_Exception_Module_State_0_excContext__A     
080241e8  ti_sysbios_family_arm_exc_Exception_Module_State_0_excStackBuffers__A
08025b10  ti_sysbios_family_arm_exc_Exception_Module_State_0_excStack_0__A     
080241ec  ti_sysbios_family_arm_exc_Exception_Module_State_0_excStack__A       
000240e6  ti_sysbios_family_arm_exc_Exception_Module__id__C                    
08024098  ti_sysbios_family_arm_exc_Exception_Module__state__V                 
00022ca1  ti_sysbios_family_arm_exc_Exception_Module_startup__E                
0000b7a1  ti_sysbios_family_arm_exc_Exception_excDumpContext__I                
00016988  ti_sysbios_family_arm_exc_Exception_excHandlerAsm__I                 
000169f0  ti_sysbios_family_arm_exc_Exception_excHandlerDataAsm__I             
00011571  ti_sysbios_family_arm_exc_Exception_excHandler__I                    
00024e04  ti_sysbios_family_arm_exc_Exception_excHookFuncs__A                  
00024e08  ti_sysbios_family_arm_exc_Exception_excHookFuncs__C                  
0001e284  ti_sysbios_family_arm_exc_Exception_initCore0__I                     
00024e0c  ti_sysbios_family_arm_v7a_Pmu_A_invalidCounterId__C                  
00024e10  ti_sysbios_family_arm_v7a_Pmu_Module__diagsEnabled__C                
00024e14  ti_sysbios_family_arm_v7a_Pmu_Module__diagsIncluded__C               
00024e18  ti_sysbios_family_arm_v7a_Pmu_Module__diagsMask__C                   
000245fa  ti_sysbios_family_arm_v7a_Pmu_Module__id__C                          
08024114  ti_sysbios_family_arm_v7a_Pmu_Module__state__V                       
00021f31  ti_sysbios_family_arm_v7a_Pmu_Module_startup__E                      
0001e354  ti_sysbios_family_arm_v7a_Pmu_configureCounterI__I                   
000177d1  ti_sysbios_family_arm_v7a_Pmu_configureCounter__E                    
00022b80  ti_sysbios_family_arm_v7a_Pmu_disableInterruptI__E                   
00022b90  ti_sysbios_family_arm_v7a_Pmu_enableInterruptI__E                    
0001e3c4  ti_sysbios_family_arm_v7a_Pmu_getCountI__E                           
0001b601  ti_sysbios_family_arm_v7a_Pmu_getCount__E                            
000177c8  ti_sysbios_family_arm_v7a_Pmu_getEnabled__E                          
00022ba0  ti_sysbios_family_arm_v7a_Pmu_getNumCounters__E                      
000226ec  ti_sysbios_family_arm_v7a_Pmu_initCounters__I                        
00022bb0  ti_sysbios_family_arm_v7a_Pmu_startCounterI__E                       
0001aed1  ti_sysbios_family_arm_v7a_Pmu_startCounter__E                        
00022bc0  ti_sysbios_family_arm_v7a_Pmu_stopCounterI__E                        
00024e1c  ti_sysbios_family_arm_v7r_tms570_Core_E_mismatchedIds__C             
00025048  ti_sysbios_family_arm_v7r_tms570_Core_Module__id__C                  
0001fe91  ti_sysbios_family_arm_v7r_tms570_Core_Module_startup__E              
00022b35  ti_sysbios_family_arm_v7r_tms570_Core_getId__E                       
00024e20  ti_sysbios_family_arm_v7r_tms570_Core_id__C                          
00024e24  ti_sysbios_family_arm_v7r_vim_Hwi_A_badChannelId__C                  
00024e28  ti_sysbios_family_arm_v7r_vim_Hwi_E_alreadyDefined__C                
00024e2c  ti_sysbios_family_arm_v7r_vim_Hwi_E_badIntNum__C                     
00024e30  ti_sysbios_family_arm_v7r_vim_Hwi_E_phantomInterrupt__C              
00024e34  ti_sysbios_family_arm_v7r_vim_Hwi_E_undefined__C                     
00024e38  ti_sysbios_family_arm_v7r_vim_Hwi_E_unsupportedMaskingOption__C      
0001b691  ti_sysbios_family_arm_v7r_vim_Hwi_Instance_finalize__E               
00013c01  ti_sysbios_family_arm_v7r_vim_Hwi_Instance_init__E                   
00024e3c  ti_sysbios_family_arm_v7r_vim_Hwi_LD_end__C                          
00024e40  ti_sysbios_family_arm_v7r_vim_Hwi_LM_begin__C                        
080236c0  ti_sysbios_family_arm_v7r_vim_Hwi_Module_State_0_dispatchTable__A    
080299a8  ti_sysbios_family_arm_v7r_vim_Hwi_Module_State_0_fiqStack__A         
00024e44  ti_sysbios_family_arm_v7r_vim_Hwi_Module__diagsEnabled__C            
00024e48  ti_sysbios_family_arm_v7r_vim_Hwi_Module__diagsIncluded__C           
00024e4c  ti_sysbios_family_arm_v7r_vim_Hwi_Module__diagsMask__C               
0002504a  ti_sysbios_family_arm_v7r_vim_Hwi_Module__id__C                      
0002504c  ti_sysbios_family_arm_v7r_vim_Hwi_Module__loggerDefined__C           
00024e50  ti_sysbios_family_arm_v7r_vim_Hwi_Module__loggerFxn1__C              
00024e54  ti_sysbios_family_arm_v7r_vim_Hwi_Module__loggerFxn8__C              
00024e58  ti_sysbios_family_arm_v7r_vim_Hwi_Module__loggerObj__C               
0802414c  ti_sysbios_family_arm_v7r_vim_Hwi_Module__root__V                    
00022705  ti_sysbios_family_arm_v7r_vim_Hwi_Module__startupDone__F             
00022705  ti_sysbios_family_arm_v7r_vim_Hwi_Module__startupDone__S             
08023df8  ti_sysbios_family_arm_v7r_vim_Hwi_Module__state__V                   
000154a1  ti_sysbios_family_arm_v7r_vim_Hwi_Module_startup__E                  
00024e5c  ti_sysbios_family_arm_v7r_vim_Hwi_NUM_INTERRUPTS__C                  
00024bc8  ti_sysbios_family_arm_v7r_vim_Hwi_Object__DESC__C                    
000249d8  ti_sysbios_family_arm_v7r_vim_Hwi_Object__PARAMS__C                  
00021f51  ti_sysbios_family_arm_v7r_vim_Hwi_Object__delete__S                  
08023e5c  ti_sysbios_family_arm_v7r_vim_Hwi_Object__table__V                   
0002271d  ti_sysbios_family_arm_v7r_vim_Hwi_Params__init__S                    
000247c0  ti_sysbios_family_arm_v7r_vim_Hwi_channelMap__A                      
00024e60  ti_sysbios_family_arm_v7r_vim_Hwi_channelMap__C                      
000222e1  ti_sysbios_family_arm_v7r_vim_Hwi_clearInterrupt__E                  
0001ef95  ti_sysbios_family_arm_v7r_vim_Hwi_create                             
000210ed  ti_sysbios_family_arm_v7r_vim_Hwi_delete                             
00021f71  ti_sysbios_family_arm_v7r_vim_Hwi_disableInterrupt__E                
0000eb71  ti_sysbios_family_arm_v7r_vim_Hwi_dispatchIRQC__I                    
0001aa44  ti_sysbios_family_arm_v7r_vim_Hwi_dispatchIRQ__I                     
00021f91  ti_sysbios_family_arm_v7r_vim_Hwi_enableInterrupt__E                 
0001f801  ti_sysbios_family_arm_v7r_vim_Hwi_getStackInfo__E                    
00019f01  ti_sysbios_family_arm_v7r_vim_Hwi_initIntController__I               
000206a8  ti_sysbios_family_arm_v7r_vim_Hwi_init__I                            
00024d9c  ti_sysbios_family_arm_v7r_vim_Hwi_intReqEnaSet__A                    
00024e64  ti_sysbios_family_arm_v7r_vim_Hwi_intReqEnaSet__C                    
00019fa1  ti_sysbios_family_arm_v7r_vim_Hwi_mapChannel__I                      
00024e68  ti_sysbios_family_arm_v7r_vim_Hwi_phantomFunc__C                     
0001e2f1  ti_sysbios_family_arm_v7r_vim_Hwi_phantomIntHandler__I               
000116e1  ti_sysbios_family_arm_v7r_vim_Hwi_reconfig__E                        
00022d51  ti_sysbios_family_arm_v7r_vim_Hwi_startup__E                         
00022cb1  ti_sysbios_family_arm_v7r_vim_Hwi_switchFromBootStack__E             
00024e6c  ti_sysbios_family_arm_v7r_vim_Hwi_taskDisable__C                     
00024e70  ti_sysbios_family_arm_v7r_vim_Hwi_taskRestoreHwi__C                  
00000000  ti_sysbios_family_arm_v7r_vim_Hwi_vectors                            
fffffdec  ti_sysbios_family_arm_v7r_vim_Hwi_vim                                
00024dac  ti_sysbios_family_arm_v7r_vim_Hwi_wakeEnaSet__A                      
00024e74  ti_sysbios_family_arm_v7r_vim_Hwi_wakeEnaSet__C                      
0001a424  ti_sysbios_family_xxx_Hwi_switchAndRunDispatchC                      
0001a3d8  ti_sysbios_family_xxx_Hwi_switchAndRunFunc                           
0002135d  ti_sysbios_gates_GateHwi_Handle__label__S                            
00022e11  ti_sysbios_gates_GateHwi_Instance_init__E                            
00024af8  ti_sysbios_gates_GateHwi_Module__FXNS__C                             
08024154  ti_sysbios_gates_GateHwi_Module__root__V                             
00024be8  ti_sysbios_gates_GateHwi_Object__DESC__C                             
00024ce0  ti_sysbios_gates_GateHwi_Object__PARAMS__C                           
00020f41  ti_sysbios_gates_GateHwi_Object__create__S                           
00021fb1  ti_sysbios_gates_GateHwi_Object__delete__S                           
080241f0  ti_sysbios_gates_GateHwi_Object__table__V                            
00022d41  ti_sysbios_gates_GateHwi_enter__E                                    
00022d61  ti_sysbios_gates_GateHwi_leave__E                                    
00022da1  ti_sysbios_gates_GateHwi_query__E                                    
00024e78  ti_sysbios_gates_GateMutex_A_badContext__C                           
00021389  ti_sysbios_gates_GateMutex_Handle__label__S                          
00024e7c  ti_sysbios_gates_GateMutex_Instance_State_sem__O                     
00022bd1  ti_sysbios_gates_GateMutex_Instance_finalize__E                      
00022301  ti_sysbios_gates_GateMutex_Instance_init__E                          
00024b1c  ti_sysbios_gates_GateMutex_Module__FXNS__C                           
00024e80  ti_sysbios_gates_GateMutex_Module__diagsEnabled__C                   
00024e84  ti_sysbios_gates_GateMutex_Module__diagsIncluded__C                  
00024e88  ti_sysbios_gates_GateMutex_Module__diagsMask__C                      
0002504e  ti_sysbios_gates_GateMutex_Module__id__C                             
0802415c  ti_sysbios_gates_GateMutex_Module__root__V                           
00024c08  ti_sysbios_gates_GateMutex_Object__DESC__C                           
00024cf8  ti_sysbios_gates_GateMutex_Object__PARAMS__C                         
00020f71  ti_sysbios_gates_GateMutex_Object__create__S                         
00021cfd  ti_sysbios_gates_GateMutex_Object__delete__S                         
08023d7c  ti_sysbios_gates_GateMutex_Object__table__V                          
000180b1  ti_sysbios_gates_GateMutex_enter__E                                  
00022321  ti_sysbios_gates_GateMutex_leave__E                                  
00022db1  ti_sysbios_gates_GateMutex_query__E                                  
00022b35  ti_sysbios_hal_Core_CoreProxy_getId__E                               
00024e8c  ti_sysbios_hal_Hwi_E_stackOverflow__C                                
00022705  ti_sysbios_hal_Hwi_HwiProxy_Module__startupDone__S                   
0002271d  ti_sysbios_hal_Hwi_HwiProxy_Params__init__S                          
000222e1  ti_sysbios_hal_Hwi_HwiProxy_clearInterrupt__E                        
00021f71  ti_sysbios_hal_Hwi_HwiProxy_disableInterrupt__E                      
00021f91  ti_sysbios_hal_Hwi_HwiProxy_enableInterrupt__E                       
0001f801  ti_sysbios_hal_Hwi_HwiProxy_getStackInfo__E                          
00022d51  ti_sysbios_hal_Hwi_HwiProxy_startup__E                               
00022cb1  ti_sysbios_hal_Hwi_HwiProxy_switchFromBootStack__E                   
00025050  ti_sysbios_hal_Hwi_Module__id__C                                     
00022a71  ti_sysbios_hal_Hwi_Module_startup__E                                 
08024164  ti_sysbios_hal_Hwi_Object__table__V                                  
000206f1  ti_sysbios_hal_Hwi_checkStack                                        
000222e1  ti_sysbios_hal_Hwi_clearInterrupt__E                                 
00021f71  ti_sysbios_hal_Hwi_disableInterrupt__E                               
00021f91  ti_sysbios_hal_Hwi_enableInterrupt__E                                
0001f801  ti_sysbios_hal_Hwi_getStackInfo__E                                   
00020d51  ti_sysbios_hal_Hwi_initStack                                         
00022d51  ti_sysbios_hal_Hwi_startup__E                                        
00022cb1  ti_sysbios_hal_Hwi_switchFromBootStack__E                            
00024e90  ti_sysbios_heaps_HeapBuf_Instance_State_freeList__O                  
080241f4  ti_sysbios_heaps_HeapBuf_Module__state__V                            
00015861  ti_sysbios_heaps_HeapBuf_Module_startup__E                           
00024e94  ti_sysbios_heaps_HeapBuf_Object__count__C                            
00022be1  ti_sysbios_heaps_HeapBuf_Object__get__S                              
00024e98  ti_sysbios_heaps_HeapBuf_numConstructedHeaps__C                      
00024e9c  ti_sysbios_heaps_HeapMem_A_align__C                                  
00024ea0  ti_sysbios_heaps_HeapMem_A_heapSize__C                               
00024ea4  ti_sysbios_heaps_HeapMem_A_invalidFree__C                            
00024ea8  ti_sysbios_heaps_HeapMem_A_zeroBlock__C                              
00024eac  ti_sysbios_heaps_HeapMem_E_memory__C                                 
000213b5  ti_sysbios_heaps_HeapMem_Handle__label__S                            
08000000  ti_sysbios_heaps_HeapMem_Instance_State_0_buf__A                     
000126c1  ti_sysbios_heaps_HeapMem_Instance_init__E                            
00021389  ti_sysbios_heaps_HeapMem_Module_GateProxy_Handle__label__S           
000222dd  ti_sysbios_heaps_HeapMem_Module_GateProxy_enter__E                   
000222fd  ti_sysbios_heaps_HeapMem_Module_GateProxy_leave__E                   
00022db1  ti_sysbios_heaps_HeapMem_Module_GateProxy_query__E                   
00024a60  ti_sysbios_heaps_HeapMem_Module__FXNS__C                             
00024eb0  ti_sysbios_heaps_HeapMem_Module__diagsEnabled__C                     
00024eb4  ti_sysbios_heaps_HeapMem_Module__diagsIncluded__C                    
00024eb8  ti_sysbios_heaps_HeapMem_Module__diagsMask__C                        
00024ebc  ti_sysbios_heaps_HeapMem_Module__gateObj__C                          
00025052  ti_sysbios_heaps_HeapMem_Module__id__C                               
0802416c  ti_sysbios_heaps_HeapMem_Module__root__V                             
00024c28  ti_sysbios_heaps_HeapMem_Object__DESC__C                             
00024b40  ti_sysbios_heaps_HeapMem_Object__PARAMS__C                           
00024ec0  ti_sysbios_heaps_HeapMem_Object__count__C                            
00020fa1  ti_sysbios_heaps_HeapMem_Object__create__S                           
00021fd1  ti_sysbios_heaps_HeapMem_Object__delete__S                           
000229c5  ti_sysbios_heaps_HeapMem_Object__get__S                              
08024054  ti_sysbios_heaps_HeapMem_Object__table__V                            
0000c5e1  ti_sysbios_heaps_HeapMem_allocUnprotected__E                         
0001e571  ti_sysbios_heaps_HeapMem_alloc__E                                    
0000afe1  ti_sysbios_heaps_HeapMem_freeUnprotected__E                          
00020fd1  ti_sysbios_heaps_HeapMem_free__E                                     
0001eff1  ti_sysbios_heaps_HeapMem_getStats__E                                 
00020731  ti_sysbios_heaps_HeapMem_init__I                                     
00022d71  ti_sysbios_heaps_HeapMem_isBlocking__E                               
00024ec4  ti_sysbios_heaps_HeapMem_reqAlign__C                                 
00024ec8  ti_sysbios_knl_Clock_LM_begin__C                                     
00024ecc  ti_sysbios_knl_Clock_LM_tick__C                                      
00024ed0  ti_sysbios_knl_Clock_LW_delayed__C                                   
00024ed4  ti_sysbios_knl_Clock_Module_State_clockQ__O                          
00024ed8  ti_sysbios_knl_Clock_Module__diagsEnabled__C                         
00024edc  ti_sysbios_knl_Clock_Module__diagsIncluded__C                        
00024ee0  ti_sysbios_knl_Clock_Module__diagsMask__C                            
00025054  ti_sysbios_knl_Clock_Module__id__C                                   
00025056  ti_sysbios_knl_Clock_Module__loggerDefined__C                        
00024ee4  ti_sysbios_knl_Clock_Module__loggerFxn1__C                           
00024ee8  ti_sysbios_knl_Clock_Module__loggerFxn2__C                           
00024eec  ti_sysbios_knl_Clock_Module__loggerObj__C                            
08023e88  ti_sysbios_knl_Clock_Module__state__V                                
00021d21  ti_sysbios_knl_Clock_Module_startup__E                               
08023f90  ti_sysbios_knl_Clock_Object__table__V                                
00022789  ti_sysbios_knl_Clock_TimerProxy_Module__startupDone__S               
0002231d  ti_sysbios_knl_Clock_TimerProxy_getMaxTicks__E                       
00017a21  ti_sysbios_knl_Clock_TimerProxy_startup__E                           
000213e1  ti_sysbios_knl_Clock_doTick__I                                       
0001e361  ti_sysbios_knl_Clock_logTick__E                                      
00012941  ti_sysbios_knl_Clock_workFunc__E                                     
00024dbc  ti_sysbios_knl_Idle_funcList__A                                      
00024dc8  ti_sysbios_knl_Idle_funcList__C                                      
00022811  ti_sysbios_knl_Idle_loop__E                                          
00021781  ti_sysbios_knl_Idle_run__E                                           
00018164  ti_sysbios_knl_Intrinsics_SupportProxy_maxbit__E                     
00018164  ti_sysbios_knl_Intrinsics_maxbit__E                                  
00022d81  ti_sysbios_knl_Queue_Instance_init__E                                
08024174  ti_sysbios_knl_Queue_Module__root__V                                 
00024c48  ti_sysbios_knl_Queue_Object__DESC__C                                 
00024d10  ti_sysbios_knl_Queue_Object__PARAMS__C                               
0001e435  ti_sysbios_knl_Queue_Object__get__S                                  
0002140d  ti_sysbios_knl_Queue_construct                                       
0002233d  ti_sysbios_knl_Queue_destruct                                        
00022c71  ti_sysbios_knl_Queue_empty__E                                        
00024ef0  ti_sysbios_knl_Semaphore_A_badContext__C                             
00024ef4  ti_sysbios_knl_Semaphore_A_noEvents__C                               
00024ef8  ti_sysbios_knl_Semaphore_A_overflow__C                               
00024efc  ti_sysbios_knl_Semaphore_A_pendTaskDisabled__C                       
00024f00  ti_sysbios_knl_Semaphore_Instance_State_pendQ__O                     
00022bf1  ti_sysbios_knl_Semaphore_Instance_finalize__E                        
0001a041  ti_sysbios_knl_Semaphore_Instance_init__E                            
00024f04  ti_sysbios_knl_Semaphore_LM_pend__C                                  
00024f08  ti_sysbios_knl_Semaphore_LM_post__C                                  
00024f0c  ti_sysbios_knl_Semaphore_Module__diagsEnabled__C                     
00024f10  ti_sysbios_knl_Semaphore_Module__diagsIncluded__C                    
00024f14  ti_sysbios_knl_Semaphore_Module__diagsMask__C                        
00025058  ti_sysbios_knl_Semaphore_Module__id__C                               
0002505a  ti_sysbios_knl_Semaphore_Module__loggerDefined__C                    
00024f18  ti_sysbios_knl_Semaphore_Module__loggerFxn2__C                       
00024f1c  ti_sysbios_knl_Semaphore_Module__loggerFxn4__C                       
00024f20  ti_sysbios_knl_Semaphore_Module__loggerObj__C                        
0802417c  ti_sysbios_knl_Semaphore_Module__root__V                             
00024c68  ti_sysbios_knl_Semaphore_Object__DESC__C                             
00024b64  ti_sysbios_knl_Semaphore_Object__PARAMS__C                           
00021d45  ti_sysbios_knl_Semaphore_Object__delete__S                           
00022735  ti_sysbios_knl_Semaphore_Params__init__S                             
00021001  ti_sysbios_knl_Semaphore_construct                                   
00020c45  ti_sysbios_knl_Semaphore_create                                      
00022359  ti_sysbios_knl_Semaphore_delete                                      
00021ff1  ti_sysbios_knl_Semaphore_destruct                                    
000210f1  ti_sysbios_knl_Semaphore_pendTimeout__I                              
00009971  ti_sysbios_knl_Semaphore_pend__E                                     
00011401  ti_sysbios_knl_Semaphore_post__E                                     
00024f24  ti_sysbios_knl_Task_A_badPriority__C                                 
00024f28  ti_sysbios_knl_Task_A_badTaskState__C                                
00024f2c  ti_sysbios_knl_Task_A_badThreadType__C                               
00024f30  ti_sysbios_knl_Task_A_badTimeout__C                                  
00024f34  ti_sysbios_knl_Task_A_noPendElem__C                                  
00024f38  ti_sysbios_knl_Task_A_sleepTaskDisabled__C                           
00024f3c  ti_sysbios_knl_Task_E_spOutOfBounds__C                               
00024f40  ti_sysbios_knl_Task_E_stackOverflow__C                               
080279a0  ti_sysbios_knl_Task_Instance_State_0_hookEnv__A                      
08026ff8  ti_sysbios_knl_Task_Instance_State_0_stack__A                        
00009f51  ti_sysbios_knl_Task_Instance_finalize__E                             
0000d891  ti_sysbios_knl_Task_Instance_init__E                                 
00024f44  ti_sysbios_knl_Task_LD_block__C                                      
00024f48  ti_sysbios_knl_Task_LD_exit__C                                       
00024f4c  ti_sysbios_knl_Task_LD_ready__C                                      
00024f50  ti_sysbios_knl_Task_LM_sleep__C                                      
00024f54  ti_sysbios_knl_Task_LM_switch__C                                     
080241f8  ti_sysbios_knl_Task_Module_State_0_idleTask__A                       
08023a48  ti_sysbios_knl_Task_Module_State_0_readyQ__A                         
00024f58  ti_sysbios_knl_Task_Module_State_inactiveQ__O                        
00024f5c  ti_sysbios_knl_Task_Module__diagsEnabled__C                          
00024f60  ti_sysbios_knl_Task_Module__diagsIncluded__C                         
00024f64  ti_sysbios_knl_Task_Module__diagsMask__C                             
0002505c  ti_sysbios_knl_Task_Module__id__C                                    
0002505e  ti_sysbios_knl_Task_Module__loggerDefined__C                         
00024f68  ti_sysbios_knl_Task_Module__loggerFxn2__C                            
00024f6c  ti_sysbios_knl_Task_Module__loggerFxn4__C                            
00024f70  ti_sysbios_knl_Task_Module__loggerObj__C                             
08024120  ti_sysbios_knl_Task_Module__root__V                                  
08023cf4  ti_sysbios_knl_Task_Module__state__V                                 
00018a71  ti_sysbios_knl_Task_Module_startup__E                                
00024c88  ti_sysbios_knl_Task_Object__DESC__C                                  
00024840  ti_sysbios_knl_Task_Object__PARAMS__C                                
00024f74  ti_sysbios_knl_Task_Object__count__C                                 
00022c01  ti_sysbios_knl_Task_Object__get__S                                   
00024f78  ti_sysbios_knl_Task_Object__heap__C                                  
08023ba0  ti_sysbios_knl_Task_Object__table__V                                 
0002274d  ti_sysbios_knl_Task_Params__init__S                                  
0002072d  ti_sysbios_knl_Task_SupportProxy_Module__startupDone__S              
00022c81  ti_sysbios_knl_Task_SupportProxy_checkStack__E                       
00022c91  ti_sysbios_knl_Task_SupportProxy_getStackAlignment__E                
00021ef1  ti_sysbios_knl_Task_SupportProxy_stackUsed__E                        
00020f11  ti_sysbios_knl_Task_SupportProxy_start__E                            
00022250  ti_sysbios_knl_Task_SupportProxy_swap__E                             
00024f7c  ti_sysbios_knl_Task_allBlockedFunc__C                                
0001fee1  ti_sysbios_knl_Task_allBlockedFunction__I                            
00019a11  ti_sysbios_knl_Task_blockI__E                                        
00016f31  ti_sysbios_knl_Task_checkStacks__E                                   
0001f84d  ti_sysbios_knl_Task_create                                           
00024f80  ti_sysbios_knl_Task_defaultStackHeap__C                              
00024f84  ti_sysbios_knl_Task_defaultStackSize__C                              
00022c11  ti_sysbios_knl_Task_disable__E                                       
00022771  ti_sysbios_knl_Task_enter__I                                         
000151b1  ti_sysbios_knl_Task_exit__E                                          
00024d28  ti_sysbios_knl_Task_hooks__A                                         
00024dd0  ti_sysbios_knl_Task_hooks__C                                         
00024f88  ti_sysbios_knl_Task_numConstructedTasks__C                           
00011841  ti_sysbios_knl_Task_postInit__I                                      
00022361  ti_sysbios_knl_Task_restoreHwi__E                                    
00014371  ti_sysbios_knl_Task_schedule__I                                      
00022831  ti_sysbios_knl_Task_sleepTimeout__I                                  
0000d281  ti_sysbios_knl_Task_sleep__E                                         
00015591  ti_sysbios_knl_Task_startCore__E                                     
00022dc1  ti_sysbios_knl_Task_startup__E                                       
0001f8a1  ti_sysbios_knl_Task_stat__E                                          
0001af61  ti_sysbios_knl_Task_unblockI__E                                      
00024f8c  ti_sysbios_timers_rti_Timer_E_cannotSupport__C                       
0802406c  ti_sysbios_timers_rti_Timer_Module_State_0_device__A                 
08024184  ti_sysbios_timers_rti_Timer_Module_State_0_handles__A                
080240dc  ti_sysbios_timers_rti_Timer_Module_State_0_intFreqs__A               
00024f90  ti_sysbios_timers_rti_Timer_Module__diagsEnabled__C                  
00024f94  ti_sysbios_timers_rti_Timer_Module__diagsIncluded__C                 
00024f98  ti_sysbios_timers_rti_Timer_Module__diagsMask__C                     
00025060  ti_sysbios_timers_rti_Timer_Module__id__C                            
00022789  ti_sysbios_timers_rti_Timer_Module__startupDone__F                   
00022789  ti_sysbios_timers_rti_Timer_Module__startupDone__S                   
080240ec  ti_sysbios_timers_rti_Timer_Module__state__V                         
0000c811  ti_sysbios_timers_rti_Timer_Module_startup__E                        
08023dbc  ti_sysbios_timers_rti_Timer_Object__table__V                         
00025062  ti_sysbios_timers_rti_Timer_continueOnSuspend__C                     
000149b1  ti_sysbios_timers_rti_Timer_getFreq__E                               
00022dd1  ti_sysbios_timers_rti_Timer_getMaxTicks__E                           
0001c521  ti_sysbios_timers_rti_Timer_initDevice__I                            
00024f9c  ti_sysbios_timers_rti_Timer_numTimerDevices__C                       
00021441  ti_sysbios_timers_rti_Timer_periodicStub__E                          
00024fa0  ti_sysbios_timers_rti_Timer_startupNeeded__C                         
00017a21  ti_sysbios_timers_rti_Timer_startup__E                               
00020251  ti_sysbios_timers_rti_Timer_stop__E                                  
00024fa4  ti_sysbios_utils_Load_LS_cpuLoad__C                                  
00024fa8  ti_sysbios_utils_Load_LS_taskLoad__C                                 
080241fc  ti_sysbios_utils_Load_Module_State_0_runningTask__A                  
08023ff0  ti_sysbios_utils_Load_Module_State_0_taskEnv__A                      
08024200  ti_sysbios_utils_Load_Module_State_0_taskStartTime__A                
00024fac  ti_sysbios_utils_Load_Module_State_taskList__O                       
00024fb0  ti_sysbios_utils_Load_Module__diagsEnabled__C                        
00024fb4  ti_sysbios_utils_Load_Module__diagsIncluded__C                       
00024fb8  ti_sysbios_utils_Load_Module__diagsMask__C                           
00025064  ti_sysbios_utils_Load_Module__id__C                                  
00025066  ti_sysbios_utils_Load_Module__loggerDefined__C                       
00024fbc  ti_sysbios_utils_Load_Module__loggerFxn1__C                          
00024fc0  ti_sysbios_utils_Load_Module__loggerFxn4__C                          
00024fc4  ti_sysbios_utils_Load_Module__loggerObj__C                           
080239b0  ti_sysbios_utils_Load_Module__state__V                               
00025068  ti_sysbios_utils_Load_autoAddTasks__C                                
00022cc1  ti_sysbios_utils_Load_getCPULoad__E                                  
00016a61  ti_sysbios_utils_Load_idleFxn__E                                     
0001e3d1  ti_sysbios_utils_Load_logCPULoad__I                                  
00016641  ti_sysbios_utils_Load_logLoads__I                                    
00024fc8  ti_sysbios_utils_Load_postUpdate__C                                  
00018b21  ti_sysbios_utils_Load_startup__E                                     
00015681  ti_sysbios_utils_Load_taskCreateHook__E                              
0001a471  ti_sysbios_utils_Load_taskDeleteHook__E                              
00022cd1  ti_sysbios_utils_Load_taskRegHook__E                                 
0001f8f1  ti_sysbios_utils_Load_taskSwitchHook__E                              
0001e8c1  ti_sysbios_utils_Load_updateCurrentThreadTime__E                     
0002506a  ti_sysbios_utils_Load_updateInIdle__C                                
00018661  ti_sysbios_utils_Load_updateLoads__E                                 
000132e1  ti_sysbios_utils_Load_updateThreadContexts__E                        
00018661  ti_sysbios_utils_Load_update__E                                      
00024fcc  ti_sysbios_utils_Load_windowInMs__C                                  
00021305  unlink                                                               
0001b9cd  vsnprintf                                                            
00021751  write                                                                
00000001  xdc_rov_runtime_Mon__checksum                                        
00000001  xdc_rov_runtime_Mon__write                                           
00024fd0  xdc_runtime_Assert_E_assertFailed__C                                 
0001e5d1  xdc_runtime_Assert_raise__I                                          
00024fd4  xdc_runtime_Core_A_initializedParams__C                              
00024fd8  xdc_runtime_Core_Module__diagsEnabled__C                             
00024fdc  xdc_runtime_Core_Module__diagsIncluded__C                            
00024fe0  xdc_runtime_Core_Module__diagsMask__C                                
0002506c  xdc_runtime_Core_Module__id__C                                       
0001f9d1  xdc_runtime_Core_assignParams__I                                     
00014481  xdc_runtime_Core_constructObject__I                                  
00012801  xdc_runtime_Core_createObject__I                                     
0001cb81  xdc_runtime_Core_deleteObject__I                                     
00024fe4  xdc_runtime_Error_E_memory__C                                        
08023fb0  xdc_runtime_Error_IgnoreBlock                                        
0002506e  xdc_runtime_Error_Module__loggerDefined__C                           
0802420c  xdc_runtime_Error_Module__state__V                                   
000227a1  xdc_runtime_Error_init__E                                            
00025070  xdc_runtime_Error_maxDepth__C                                        
00011ef1  xdc_runtime_Error_policyDefault__E                                   
00024fe8  xdc_runtime_Error_policyFxn__C                                       
00021031  xdc_runtime_Error_policyLog__I                                       
00024fec  xdc_runtime_Error_policy__C                                          
0001d3c1  xdc_runtime_Error_print__E                                           
00024ff0  xdc_runtime_Error_raiseHook__C                                       
00024ff4  xdc_runtime_IFilterLogger_Interface__BASE__C                         
00024ff8  xdc_runtime_IGateProvider_Interface__BASE__C                         
00024ffc  xdc_runtime_IHeap_Interface__BASE__C                                 
00025000  xdc_runtime_ILogger_Interface__BASE__C                               
00025004  xdc_runtime_IModule_Interface__BASE__C                               
00025008  xdc_runtime_LoggerBuf_E_badLevel__C                                  
0002146d  xdc_runtime_LoggerBuf_Handle__label__S                               
08024210  xdc_runtime_LoggerBuf_Instance_State_0_entryArr__A                   
00022381  xdc_runtime_LoggerBuf_Instance_finalize__E                           
00016b31  xdc_runtime_LoggerBuf_Instance_init__E                               
0002135d  xdc_runtime_LoggerBuf_Module_GateProxy_Handle__label__S              
0002235d  xdc_runtime_LoggerBuf_Module_GateProxy_enter__E                      
0002237d  xdc_runtime_LoggerBuf_Module_GateProxy_leave__E                      
00022da1  xdc_runtime_LoggerBuf_Module_GateProxy_query__E                      
00024900  xdc_runtime_LoggerBuf_Module__FXNS__C                                
0002500c  xdc_runtime_LoggerBuf_Module__gateObj__C                             
00025072  xdc_runtime_LoggerBuf_Module__id__C                                  
0802418c  xdc_runtime_LoggerBuf_Module__root__V                                
080241ac  xdc_runtime_LoggerBuf_Module__state__V                               
0001ff31  xdc_runtime_LoggerBuf_Module_startup__E                              
00024ca8  xdc_runtime_LoggerBuf_Object__DESC__C                                
00024a88  xdc_runtime_LoggerBuf_Object__PARAMS__C                              
00025010  xdc_runtime_LoggerBuf_Object__count__C                               
0001fbd5  xdc_runtime_LoggerBuf_Object__create__S                              
00022011  xdc_runtime_LoggerBuf_Object__delete__S                              
000229d9  xdc_runtime_LoggerBuf_Object__get__S                                 
08023f48  xdc_runtime_LoggerBuf_Object__table__V                               
000217d9  xdc_runtime_LoggerBuf_TimestampProxy_get32__E                        
00020c11  xdc_runtime_LoggerBuf_TimestampProxy_get64__E                        
00022b41  xdc_runtime_LoggerBuf_TimestampProxy_getFreq__E                      
00022d21  xdc_runtime_LoggerBuf_disable__E                                     
00022d31  xdc_runtime_LoggerBuf_enable__E                                      
00025074  xdc_runtime_LoggerBuf_filterByLevel__C                               
0001aff1  xdc_runtime_LoggerBuf_getFilterLevel__E                              
00018171  xdc_runtime_LoggerBuf_setFilterLevel__E                              
00025014  xdc_runtime_LoggerBuf_statusLogger__C                                
00022c21  xdc_runtime_LoggerBuf_write0__E                                      
00022a91  xdc_runtime_LoggerBuf_write1__E                                      
00022ab1  xdc_runtime_LoggerBuf_write2__E                                      
000139c1  xdc_runtime_LoggerBuf_write4__E                                      
00010c91  xdc_runtime_LoggerBuf_write8__E                                      
0002135d  xdc_runtime_Main_Module_GateProxy_Handle__label__S                   
00022da1  xdc_runtime_Main_Module_GateProxy_query__E                           
00025076  xdc_runtime_Main_Module__id__C                                       
000213b5  xdc_runtime_Memory_HeapProxy_Handle__label__S                        
00022cfd  xdc_runtime_Memory_HeapProxy_alloc__E                                
00022d07  xdc_runtime_Memory_HeapProxy_free__E                                 
00022d11  xdc_runtime_Memory_HeapProxy_getStats__E                             
00025078  xdc_runtime_Memory_Module__id__C                                     
08024208  xdc_runtime_Memory_Module__state__V                                  
0001b721  xdc_runtime_Memory_alloc__E                                          
00025018  xdc_runtime_Memory_defaultHeapInstance__C                            
00022c31  xdc_runtime_Memory_free__E                                           
00022c41  xdc_runtime_Memory_getStats__E                                       
08024194  xdc_runtime_Registry_Module__state__V                                
0802419c  xdc_runtime_Startup_Module__state__V                                 
00000001  xdc_runtime_Startup__EXECFXN__C                                      
00000001  xdc_runtime_Startup__RESETFXN__C                                     
0002501c  xdc_runtime_Startup_execImpl__C                                      
0001e441  xdc_runtime_Startup_exec__E                                          
00022ac3  xdc_runtime_Startup_exec__I                                          
00024dd8  xdc_runtime_Startup_firstFxns__A                                     
00024de0  xdc_runtime_Startup_firstFxns__C                                     
00024de8  xdc_runtime_Startup_lastFxns__C                                      
00025020  xdc_runtime_Startup_maxPasses__C                                     
000101c3  xdc_runtime_Startup_reset__I                                         
00022ce1  xdc_runtime_Startup_rtsDone__E                                       
00024d40  xdc_runtime_Startup_sfxnRts__A                                       
00025024  xdc_runtime_Startup_sfxnRts__C                                       
00024a08  xdc_runtime_Startup_sfxnTab__A                                       
00025028  xdc_runtime_Startup_sfxnTab__C                                       
00012cf1  xdc_runtime_Startup_startMods__I                                     
000217b1  xdc_runtime_SysStd_abort__E                                          
00022cf1  xdc_runtime_SysStd_exit__E                                           
00022de1  xdc_runtime_SysStd_putch__E                                          
00022df1  xdc_runtime_SysStd_ready__E                                          
0002135d  xdc_runtime_System_Module_GateProxy_Handle__label__S                 
00022a6b  xdc_runtime_System_Module_GateProxy_enter__E                         
00022c6d  xdc_runtime_System_Module_GateProxy_leave__E                         
00022da1  xdc_runtime_System_Module_GateProxy_query__E                         
08023fd0  xdc_runtime_System_Module_State_0_atexitHandlers__A                  
0002502c  xdc_runtime_System_Module__gateObj__C                                
080241a4  xdc_runtime_System_Module__state__V                                  
00022d91  xdc_runtime_System_Module_startup__E                                 
000217b1  xdc_runtime_System_SupportProxy_abort__E                             
00022cf1  xdc_runtime_System_SupportProxy_exit__E                              
00022de1  xdc_runtime_System_SupportProxy_putch__E                             
00022df1  xdc_runtime_System_SupportProxy_ready__E                             
00025030  xdc_runtime_System_abortFxn__C                                       
0001f4b1  xdc_runtime_System_abortStd__E                                       
000224ef  xdc_runtime_System_aprintf__E                                        
000217e1  xdc_runtime_System_aprintf_va__F                                     
0001ff81  xdc_runtime_System_atexit__E                                         
000060e1  xdc_runtime_System_doPrint__I                                        
00025034  xdc_runtime_System_exitFxn__C                                        
0001f4b9  xdc_runtime_System_exitStd__E                                        
0001f551  xdc_runtime_System_exit__E                                           
00025038  xdc_runtime_System_extendFxn__C                                      
0001bb71  xdc_runtime_System_formatNum__I                                      
0002503c  xdc_runtime_System_maxAtexitHandlers__C                              
0000e049  xdc_runtime_System_printfExtend__I                                   
00022509  xdc_runtime_System_printf__E                                         
00021a01  xdc_runtime_System_printf_va__F                                      
000245f9  xdc_runtime_Text_charTab__A                                          
00025040  xdc_runtime_Text_charTab__C                                          
0002507a  xdc_runtime_Text_isLoaded__C                                         
00021061  xdc_runtime_Text_printVisFxn__I                                      
0001e631  xdc_runtime_Text_putLab__E                                           
0001ba61  xdc_runtime_Text_putMod__E                                           
000182e1  xdc_runtime_Text_putSite__E                                          
0002507c  xdc_runtime_Text_registryModsLastId__C                               
0002507e  xdc_runtime_Text_unnamedModsLastId__C                                
00025044  xdc_runtime_Text_visitRopeFxn__C                                     
00019ef9  xdc_runtime_Text_visitRope__I                                        
0001fa21  xdc_runtime_Text_xprintf__I                                          
000217d9  xdc_runtime_Timestamp_SupportProxy_get32__E                          
00020c11  xdc_runtime_Timestamp_SupportProxy_get64__E                          
00022b41  xdc_runtime_Timestamp_SupportProxy_getFreq__E                        
000217d9  xdc_runtime_Timestamp_get32__E                                       
00020c11  xdc_runtime_Timestamp_get64__E                                       
00022b41  xdc_runtime_Timestamp_getFreq__E                                     


GLOBAL SYMBOLS: SORTED BY Symbol Address 

address   name                                                                 
-------   ----                                                                 
00000000  __ASM__                                                              
00000000  ti_sysbios_family_arm_v7r_vim_Hwi_vectors                            
00000001  xdc_rov_runtime_Mon__checksum                                        
00000001  xdc_rov_runtime_Mon__write                                           
00000001  xdc_runtime_Startup__EXECFXN__C                                      
00000001  xdc_runtime_Startup__RESETFXN__C                                     
00000085  __ISA__                                                              
00000097  __PLAT__                                                             
000000bb  __TARG__                                                             
000000e2  __TRDR__                                                             
00000800  __STACK_SIZE                                                         
000008c5  __TI_printfi                                                         
0000117b  ADCBUF_MMWave_init                                                   
0000117d  gtrack_unitUpdate                                                    
000028f1  Pcount3DDemo_CLIInit                                                 
000030d7  DMA_init                                                             
000037e5  HWA_configParamSet                                                   
00003e3d  __kernel_rem_pio2                                                    
00004439  gtrack_moduleAllocate                                                
0000500d  gtrack_create                                                        
000055ed  powf                                                                 
00005b7d  DPU_RangeProcHWA_process                                             
000060dd  HwiP_disableInterrupt                                                
000060e1  xdc_runtime_System_doPrint__I                                        
000065f7  HWA_init                                                             
00006add  ADCBUF_MMWave_control                                                
00006f85  DPU_RangeProcHWA_config                                              
00007409  gtrack_velocityStateHandling                                         
00007ca9  gtrack_unitScore                                                     
000084d9  cos                                                                  
000084d9  cosl                                                                 
00008ca5  gtrack_unitEvent                                                     
00009011  gtrack_matrixInv                                                     
00009343  __aeabi_idiv0                                                        
00009345  SOC_deviceInit                                                       
000096ad  tanf                                                                 
0000996d  HwiP_enableInterrupt                                                 
00009971  ti_sysbios_knl_Semaphore_pend__E                                     
00009f51  ti_sysbios_knl_Task_Instance_finalize__E                             
0000a7a9  HWA_configCommon                                                     
0000aa6c  __aeabi_uldivmod                                                     
0000ad25  DMA_open                                                             
0000afd5  EDMA3ChannelToParamMap                                               
0000afe1  ti_sysbios_heaps_HeapMem_freeUnprotected__E                          
0000b285  gtrack_step                                                          
0000b51d  MMWave_deviceExecuteFxn                                              
0000b7a1  ti_sysbios_family_arm_exc_Exception_excDumpContext__I                
0000bf01  Mailbox_open                                                         
0000c5e1  ti_sysbios_heaps_HeapMem_allocUnprotected__E                         
0000c809  HwiP_disable                                                         
0000c811  ti_sysbios_timers_rti_Timer_Module_startup__E                        
0000ca35  Pcount3DDemo_bpmConfig                                               
0000ce61  gtrack_unitPredict                                                   
0000d06f  ti_sysbios_BIOS_nullFunc__I                                          
0000d275  EDMAsetRegion                                                        
0000d281  ti_sysbios_knl_Task_sleep__E                                         
0000d485  CRC_open                                                             
0000d891  ti_sysbios_knl_Task_Instance_init__E                                 
0000da91  DMA_setChannelParams                                                 
0000dc81  logf                                                                 
0000de65  strtod                                                               
0000de65  strtold                                                              
0000e049  xdc_runtime_System_printfExtend__I                                   
0000e22d  gtrack_computeJacobian                                               
0000e5e9  Pcount3DDemo_startSensor                                             
0000e7c5  Pcount3DDemo_openSensor                                              
0000e999  gtrack_unitStart                                                     
0000eb69  MMWave_decodeErrorLevel                                              
0000eb71  ti_sysbios_family_arm_v7r_vim_Hwi_dispatchIRQC__I                    
0000ed3d  DPU_TrackerProc_process                                              
0000ef05  rlDriverRxHdrRead                                                    
0000f197  __TI_cleanup                                                         
0000f1c3  freopen                                                              
0000f1ed  fopen                                                                
0000f295  Pcount3DDemo_stopSensor                                              
0000f459  EDMA_open                                                            
0000f619  main                                                                 
0000f7d5  rlDriverMsgRead                                                      
0000fb31  gtrack_unitCreate                                                    
000101c3  xdc_runtime_Startup_reset__I                                         
000101c5  MMWave_openLink                                                      
00010359  rlDriverCmdInvoke                                                    
000104e9  gtrack_modulePresence                                                
00010675  EDMA_configChannel                                                   
000107fd  HWA_open                                                             
00010b0d  DPU_TrackerProc_config                                               
00010c91  xdc_runtime_LoggerBuf_write8__E                                      
00010e15  DPM_init                                                             
00010f95  DPM_msgRecv                                                          
00011115  MmwDemo_CLITrackingCfg                                               
00011289  GPIO_setConfig                                                       
00011401  ti_sysbios_knl_Semaphore_post__E                                     
00011571  ti_sysbios_family_arm_exc_Exception_excHandler__I                    
000116d9  MemoryP_getStats                                                     
000116e1  ti_sysbios_family_arm_v7r_vim_Hwi_reconfig__E                        
00011841  ti_sysbios_knl_Task_postInit__I                                      
00011c41  atanf                                                                
00011ee5  MMWave_osalMutexUnlock                                               
00011ef1  xdc_runtime_Error_policyDefault__E                                   
00012571  rlDriverCmdSendRetry                                                 
000126b9  SemaphoreP_Params_init                                               
000126c1  ti_sysbios_heaps_HeapMem_Instance_init__E                            
00012801  xdc_runtime_Core_createObject__I                                     
00012941  ti_sysbios_knl_Clock_workFunc__E                                     
00012a7d  Pcount3DDemo_configSensor                                            
00012bb5  fputs                                                                
00012cc5  puts                                                                 
00012cf1  xdc_runtime_Startup_startMods__I                                     
00012e29  ADCBUF_MMWave_open                                                   
00012f5d  gtrack_cartesian2spherical                                           
000131b9  mathUtils_genWindow                                                  
000132e1  ti_sysbios_utils_Load_updateThreadContexts__E                        
00013651  EDMA_init                                                            
00013775  MmwDemo_CLIBoundaryBoxCfg                                            
00013895  Pcount3DDemo_CfgUpdate                                               
000139b5  MMWave_osalSemSignal                                                 
000139c1  xdc_runtime_LoggerBuf_write4__E                                      
00013ae1  DPEDMAHWA_configTwoHotSignatureWithMinorMode                         
00013bfb  CycleprofilerP_getTimeStamp                                          
00013c01  ti_sysbios_family_arm_v7r_vim_Hwi_Instance_init__E                   
00013d19  EDMA_configErrorMonitoring                                           
00013f3d  DPEDMA_configSyncAB                                                  
00014261  MMWave_deviceInitFxn                                                 
0001436d  MMWave_listGetHead                                                   
00014371  ti_sysbios_knl_Task_schedule__I                                      
0001447d  MMWave_listGetNext                                                   
00014481  xdc_runtime_Core_constructObject__I                                  
0001458d  DMA_disableInterrupt                                                 
00014695  Mailbox_write                                                        
0001479d  DPEDMA_configSyncA_singleFrame                                       
000148a1  MMWave_startLink                                                     
000149a5  UART_Params_init                                                     
000149b1  ti_sysbios_timers_rti_Timer_getFreq__E                               
00014bb5  DMA_clearChannelInterruptFlag                                        
00014cb5  gtrack_spherical2cartesian                                           
00014db5  rlDriverInit                                                         
00014eb5  CRC_computeSignature                                                 
000151a9  gtrack_unitDelete                                                    
000151b1  ti_sysbios_knl_Task_exit__E                                          
000152ad  rlDriverRdVerifyMsg                                                  
000153a5  MmwDemo_CLISensorPositionCfg                                         
000154a1  ti_sysbios_family_arm_v7r_vim_Hwi_Module_startup__E                  
00015591  ti_sysbios_knl_Task_startCore__E                                     
00015681  ti_sysbios_utils_Load_taskCreateHook__E                              
00015771  ldexp                                                                
00015771  ldexpl                                                               
00015771  scalbn                                                               
00015771  scalbnl                                                              
00015861  ti_sysbios_heaps_HeapBuf_Module_startup__E                           
0001594d  DPEDMAHWA_configTwoHotSignature                                      
00015a39  rlRfPhShiftCalibDataRestore                                          
00015c01  CLI_open                                                             
00015ce1  DMA_enableInterrupt                                                  
00015dc1  floor                                                                
00015dc1  floorl                                                               
00015ea1  MMWave_init                                                          
00015f7d  rlDriverMsgCmdReply                                                  
00016059  ceil                                                                 
00016059  ceill                                                                
00016135  setvbuf                                                              
00016211  MmwDemo_CLIPresenceParamCfg                                          
000162e9  Mailbox_read                                                         
00016491  rlSetMultiBpmChirpConfig                                             
00016565  ldexpf                                                               
00016565  scalbnf                                                              
00016639  rlDriverConstructOutMsg                                              
00016641  ti_sysbios_utils_Load_logLoads__I                                    
00016715  gtrack_matrixPrint2                                                  
000167e9  DPU_RangeProcHWA_control                                             
00016988  ti_sysbios_family_arm_exc_Exception_excHandlerAsm__I                 
000169f0  ti_sysbios_family_arm_exc_Exception_excHandlerDataAsm__I             
00016a59  rlDriverGetHandle                                                    
00016a61  ti_sysbios_utils_Load_idleFxn__E                                     
00016b31  xdc_runtime_LoggerBuf_Instance_init__E                               
00016c01  HWA_enableParamSetInterrupt                                          
00016ccd  rlRfCalibDataRestore                                                 
00016d99  rlSetChirpConfig                                                     
00016e65  __TI_doflush                                                         
00016eb1  fflush                                                               
00016f31  ti_sysbios_knl_Task_checkStacks__E                                   
000170c9  MMWave_addChirp                                                      
00017191  MMWave_configBPM                                                     
00017259  MMWave_flushCfg                                                      
00017321  MMWave_getChirpHandle                                                
000173e9  SOC_ungateClock                                                      
000174b1  gtrack_delete                                                        
00017579  rlSetFrameConfig                                                     
00017641  DPM_deinit                                                           
00017705  DPM_ioctl                                                            
000177c8  ti_sysbios_family_arm_v7a_Pmu_getEnabled__E                          
000177d1  ti_sysbios_family_arm_v7a_Pmu_configureCounter__E                    
00017895  DPU_RangeProcHWA_init                                                
00017955  rlDriverMsgWrite                                                     
00017a15  UartSci_isDMAEnabled                                                 
00017a21  ti_sysbios_knl_Clock_TimerProxy_startup__E                           
00017a21  ti_sysbios_timers_rti_Timer_startup__E                               
00017b9d  GPIO_write                                                           
00017d15  open                                                                 
00017dd1  DMA_getChannelInterruptFlag                                          
00017e89  __kernel_cos                                                         
00017f41  SOC_MPUEnable                                                        
00017f5f  SOC_MPUDisable                                                       
00017f7d  SOC_MPUEnableBackgroundRegion                                        
00017f93  SOC_MPUDisableBackgroundRegion                                       
00017fa9  SOC_MPUGetNumberOfRegions                                            
00017fb3  SOC_MPUAreRegionsSeparate                                            
00017fbb  SOC_MPUSetRegion                                                     
00017fc1  SOC_MPUGetRegion                                                     
00017fc7  SOC_MPUSetRegionBaseAddress                                          
00017fcd  SOC_MPUGetRegionBaseAddress                                          
00017fd3  SOC_MPUSetRegionTypeAndPermission                                    
00017fdd  SOC_MPUGetRegionType                                                 
00017fe7  SOC_MPUGetRegionPermission                                           
00017ff1  SOC_MPUSetRegionSizeRegister                                         
000180b1  ti_sysbios_gates_GateMutex_enter__E                                  
00018164  ti_sysbios_family_arm_IntrinsicsSupport_maxbitA__I                   
00018164  ti_sysbios_family_arm_IntrinsicsSupport_maxbit__E                    
00018164  ti_sysbios_knl_Intrinsics_SupportProxy_maxbit__E                     
00018164  ti_sysbios_knl_Intrinsics_maxbit__E                                  
00018171  xdc_runtime_LoggerBuf_setFilterLevel__E                              
00018225  UartSci_openDMA                                                      
000182d7  ADCBuf_control                                                       
000182e1  xdc_runtime_Text_putSite__E                                          
00018395  MMWave_addProfile                                                    
00018445  MmwDemo_CLIStaticBoundaryBoxCfg                                      
000184f5  gtrack_calcMeasurementLimits                                         
000185a5  rlSetProfileConfig                                                   
00018655  __TI_zero_init                                                       
00018661  ti_sysbios_utils_Load_updateLoads__E                                 
00018661  ti_sysbios_utils_Load_update__E                                      
00018711  MmwDemo_ADCBufConfig                                                 
000187bf  __TI_wrt_ok                                                          
00018823  __TI_rd_ok                                                           
0001886d  ESM_processInterrupt                                                 
00018a71  ti_sysbios_knl_Task_Module_startup__E                                
00018b21  ti_sysbios_utils_Load_startup__E                                     
00018bcd  ADCBUF_MMWave_getChanBufAddr                                         
00018c75  CLI_MMWaveExtensionHelp                                              
00018d1d  EDMA3Init                                                            
00018e6d  MMWave_getBpmChirpHandle                                             
00019065  Pinmux_Set_OverrideCtrl                                              
0001910d  SOC_deregisterSysIntListener                                         
000191b5  gtrack_calcMeasurementSpread                                         
0001925d  rlDriverWaitForResponse                                              
00019305  rlSetAdvFrameConfig                                                  
000193ad  gtrack_computeMahalanobis                                            
00019455  DMA_assignChannel                                                    
000194f9  ESM_init                                                             
0001959d  MMWave_addBpmChirp                                                   
00019641  MMWave_start                                                         
000196e5  MmwDemo_CLIAllocationParamCfg                                        
0001982d  __kernel_sin                                                         
000198d1  SOC_registerSysIntListener                                           
00019971  __TI_auto_init                                                       
00019a11  ti_sysbios_knl_Task_blockI__E                                        
00019ab1  gtrack_unitStop                                                      
00019b51  MMWave_configLink                                                    
00019bed  MMWave_getProfileHandle                                              
00019c89  MmwDemo_CLIGatingParamCfg                                            
00019d25  MmwDemo_RFParser_parseConfig                                         
00019e5d  __aeabi_memcpy                                                       
00019e5d  __aeabi_memcpy4                                                      
00019e5d  __aeabi_memcpy8                                                      
00019e5d  memcpy                                                               
00019ef9  xdc_runtime_Text_visitRope__I                                        
00019f01  ti_sysbios_family_arm_v7r_vim_Hwi_initIntController__I               
00019fa1  ti_sysbios_family_arm_v7r_vim_Hwi_mapChannel__I                      
0001a041  ti_sysbios_knl_Semaphore_Instance_init__E                            
0001a177  gtrack_matrixMakeSymmetrical                                         
0001a211  MMWave_getChirpCfg                                                   
0001a2a9  __TI_closefile                                                       
0001a30f  fclose                                                               
0001a341  fputc                                                                
0001a341  putc                                                                 
0001a3c7  putchar                                                              
0001a3d8  ti_sysbios_family_xxx_Hwi_switchAndRunFunc                           
0001a424  ti_sysbios_family_xxx_Hwi_switchAndRunDispatchC                      
0001a471  ti_sysbios_utils_Load_taskDeleteHook__E                              
0001a59f  HWA_configRam                                                        
0001a6cd  SOC_gateClock                                                        
0001a761  gtrack_calcDistance                                                  
0001a7f5  gtrack_matrixCovFilter                                               
0001a889  rlDriverDeInit                                                       
0001a91d  rlDriverMsgReadCmdCtx                                                
0001a9b1  rlDriverProcRdMsg                                                    
0001aa44  ti_sysbios_family_arm_v7r_vim_Hwi_dispatchIRQ__I                     
0001aad9  DPU_trackerProc_updateParamTables                                    
0001ab69  GPIO_init                                                            
0001abf9  Mailbox_close                                                        
0001ada9  UartSci_initiateTxDMA                                                
0001aed1  ti_sysbios_family_arm_v7a_Pmu_startCounter__E                        
0001af61  ti_sysbios_knl_Task_unblockI__E                                      
0001aff1  xdc_runtime_LoggerBuf_getFilterLevel__E                              
0001b081  gtrack_matrixComputePJT                                              
0001b2b5  SOC_init                                                             
0001b341  SOC_translateAddress                                                 
0001b3cd  UartSci_initiateRxDMA                                                
0001b459  gtrack_matrixMultiply                                                
0001b4e5  rlDevicePowerOn                                                      
0001b571  rlDriverMsgReadSpawnCtx                                              
0001b601  ti_sysbios_family_arm_v7a_Pmu_getCount__E                            
0001b68d  Pcount3DDemo_sleep                                                   
0001b691  ti_sysbios_family_arm_v7r_vim_Hwi_Instance_finalize__E               
0001b71d  gtrack_listGetFirst                                                  
0001b721  xdc_runtime_Memory_alloc__E                                          
0001b7ad  HWA_disableParamSetInterrupt                                         
0001b835  MMWave_getProfileCfg                                                 
0001b8bd  MmwDemo_CLIStateParamCfg                                             
0001b945  gtrack_matrixTransposeMultiply                                       
0001b9cd  vsnprintf                                                            
0001ba55  gtrack_unitGetMCenter                                                
0001ba61  xdc_runtime_Text_putMod__E                                           
0001bb71  xdc_runtime_System_formatNum__I                                      
0001bbf9  MMWave_deviceCfgAsyncEvent                                           
0001bc7d  MMWave_deviceEventFxn                                                
0001bd01  MMWave_getNumBpmChirp                                                
0001bd85  MMWave_open                                                          
0001be09  gtrack_isPointBehindTarget                                           
0001be8d  gtrack_sincosd                                                       
0001bf93  gtrack_matrixCovAcc                                                  
0001c115  MMWave_getBpmChirpCfg                                                
0001c295  SOC_getDeviceRFFreqScaleFactor                                       
0001c395  gtrack_moduleUpdate                                                  
0001c415  gtrack_sph2cart                                                      
0001c495  rlDriverExecuteGetApi                                                
0001c515  rlDriverGetPlatformId                                                
0001c521  ti_sysbios_timers_rti_Timer_initDevice__I                            
0001c5a1  HwiP_create                                                          
0001c621  gtrack_matrixPrint                                                   
0001c6a1  DPM_pipeSend                                                         
0001c799  MMWave_deviceOpenFxn                                                 
0001c815  Mailbox_init                                                         
0001c891  MmwDemoCLIMaxAccelerationParamCfg                                    
0001ca80  ti_sysbios_family_arm_TaskSupport_buildTaskStack                     
0001cafd  round                                                                
0001cafd  roundl                                                               
0001cb81  xdc_runtime_Core_deleteObject__I                                     
0001cc79  __aeabi_memclr                                                       
0001cc79  __aeabi_memclr4                                                      
0001cc79  __aeabi_memclr8                                                      
0001cc7b  __aeabi_memset                                                       
0001cc7b  __aeabi_memset4                                                      
0001cc7b  __aeabi_memset8                                                      
0001cc81  memset                                                               
0001cd6d  EDMA_configParamSet                                                  
0001cde5  MMWave_getNumChirps                                                  
0001ce5d  MMWave_config                                                        
0001ced1  MMWave_deviceStartFxn                                                
0001cf44  _c_int00                                                             
0001cfb9  rlDriverAsyncEventHandler                                            
0001d02d  finddevice                                                           
0001d05b  getdevice                                                            
0001d0a1  frexp                                                                
0001d0a1  frexpl                                                               
0001d115  gtrack_listRemoveElement                                             
0001d1f9  GPIO_toggle                                                          
0001d2d9  MMWave_deviceCfgFxn                                                  
0001d351  printf                                                               
0001d3b9  EDMA3ClrCCErr                                                        
0001d3c1  xdc_runtime_Error_print__E                                           
0001d4a1  DMA_disableChannel                                                   
0001d50d  DMA_enableChannel                                                    
0001d579  DPM_relayResult                                                      
0001d651  MMWave_stopLink                                                      
0001d6bd  Pinmux_Set_FuncSel                                                   
0001d729  __TI_decompress_lzss                                                 
0001d795  gtrack_matrixCovNormalize                                            
0001d801  __TI_writemsg                                                        
0001d833  C$$IO$$                                                              
0001d837  __TI_readmsg                                                         
0001daed  MMWave_deviceStopFxn                                                 
0001db55  Mailbox_readFlush                                                    
0001dbbd  gtrack_cart2sph                                                      
0001dc25  gtrack_isPointInsideBox                                              
0001dd5d  rlDriverExecuteSetApi                                                
0001ddc5  rlDriverHostIrqHandler                                               
0001de2d  HOSTlseek                                                            
0001de95  HOSTrename                                                           
0001defd  gtrack_computeMahalanobisPartial                                     
0001df63  rlDevicePowerOff                                                     
0001e091  EDMA_startDmaTransfer                                                
0001e0f5  HWA_getDMAChanIndex                                                  
0001e159  SemaphoreP_create                                                    
0001e1bd  fseek                                                                
0001e221  sprintf                                                              
0001e284  ti_sysbios_family_arm_exc_Exception_initCore0__I                     
0001e2e9  EDMA3ErrIntrHighStatusGet                                            
0001e2f1  ti_sysbios_family_arm_v7r_vim_Hwi_phantomIntHandler__I               
0001e354  ti_sysbios_family_arm_v7a_Pmu_configureCounterI__I                   
0001e361  ti_sysbios_knl_Clock_logTick__E                                      
0001e3c4  ti_sysbios_family_arm_v7a_Pmu_getCountI__E                           
0001e3d1  ti_sysbios_utils_Load_logCPULoad__I                                  
0001e435  ti_sysbios_knl_Queue_Object__get__S                                  
0001e441  xdc_runtime_Startup_exec__E                                          
0001e4a5  gtrack_unitReport                                                    
0001e509  CLI_MMWaveExtensionHandler                                           
0001e569  EDMA3GetCCErrStatus                                                  
0001e571  ti_sysbios_heaps_HeapMem_alloc__E                                    
0001e5d1  xdc_runtime_Assert_raise__I                                          
0001e631  xdc_runtime_Text_putLab__E                                           
0001e6ef  gtrack_unrollRadialVelocity                                          
0001e7a9  MMWave_stop                                                          
0001e805  HOSTopen                                                             
0001e861  HOSTread                                                             
0001e8bd  gtrack_listGetNext                                                   
0001e8c1  ti_sysbios_utils_Load_updateCurrentThreadTime__E                     
0001e977  rlDriverCalChkSum                                                    
0001e9d1  DPM_execute                                                          
0001ea81  EDMA3EnableChInShadowReg                                             
0001ead9  ESM_highpriority_FIQ                                                 
0001eb31  HWA_getDMAconfig                                                     
0001eb89  MMWave_execute                                                       
0001ec39  UartSci_closeDMA                                                     
0001ec91  gtrack_isInsideBoresightStaticZone                                   
0001ece9  close                                                                
0001ed41  HOSTwrite                                                            
0001edf1  CRC_getTransactionId                                                 
0001ee45  DMA_freeChannel                                                      
0001eeed  MMWave_initLink                                                      
0001ef41  ltoa                                                                 
0001ef95  ti_sysbios_family_arm_v7r_vim_Hwi_create                             
0001efe9  EDMA3GetErrIntrStatus                                                
0001eff1  ti_sysbios_heaps_HeapMem_getStats__E                                 
0001f045  DPEDMA_setup_shadow_link                                             
0001f097  gtrack_calcDim                                                       
0001f0e9  gtrack_censor2world                                                  
0001f13d  CRC_getSignature                                                     
0001f18d  DPM_synch                                                            
0001f1dd  EDMA3MapChToEvtQ                                                     
0001f22d  MMWave_sync                                                          
0001f2cd  gtrack_isInsideSolidAngle                                            
0001f31d  gtrack_modulePredict                                                 
0001f3bd  rlDeviceIdentifyCmdDir                                               
0001f40d  rlDriverVerifyCRC                                                    
0001f45d  atoi                                                                 
0001f4ad  C$$EXIT                                                              
0001f4b1  abort                                                                
0001f4b1  xdc_runtime_System_abortStd__E                                       
0001f4b9  exit                                                                 
0001f4b9  xdc_runtime_System_exitStd__E                                        
0001f4fc  __aeabi_uidiv                                                        
0001f4fc  __aeabi_uidivmod                                                     
0001f54d  ti_sysbios_BIOS_RtsGateProxy_enter__E                                
0001f551  xdc_runtime_System_exit__E                                           
0001f5a1  CLI_write                                                            
0001f5ed  EDMA_disableChannel                                                  
0001f639  EDMA_enableChannel                                                   
0001f685  HWA_enableDoneInterrupt                                              
0001f7b5  copy_in                                                              
0001f801  ti_sysbios_family_arm_v7r_vim_Hwi_getStackInfo__E                    
0001f801  ti_sysbios_hal_Hwi_HwiProxy_getStackInfo__E                          
0001f801  ti_sysbios_hal_Hwi_getStackInfo__E                                   
0001f84d  ti_sysbios_knl_Task_create                                           
0001f899  EDMA3QdmaGetErrIntrStatus                                            
0001f8a1  ti_sysbios_knl_Task_stat__E                                          
0001f8ed  ti_sysbios_BIOS_RtsGateProxy_leave__E                                
0001f8f1  ti_sysbios_utils_Load_taskSwitchHook__E                              
0001f9d1  xdc_runtime_Core_assignParams__I                                     
0001fa1b  HwiP_restore                                                         
0001fa21  xdc_runtime_Text_xprintf__I                                          
0001fa6b  DPM_pipeRecv                                                         
0001fafd  gtrack_moduleAssociate                                               
0001fb45  rlDeviceGetVersion                                                   
0001fb8d  rlDriverOsiInit                                                      
0001fbd5  xdc_runtime_LoggerBuf_Object__create__S                              
0001fc65  ADCBUF_MMWave_close                                                  
0001fced  DPM_start                                                            
0001fd31  DPM_stop                                                             
0001fdb9  SOC_resetDMA                                                         
0001fdfd  HOSTclose                                                            
0001fe41  HOSTunlink                                                           
0001fe91  ti_sysbios_family_arm_v7r_tms570_Core_Module_startup__E              
0001fee1  ti_sysbios_knl_Task_allBlockedFunction__I                            
0001ff25  MemoryP_ctrlFree                                                     
0001ff31  xdc_runtime_LoggerBuf_Module_startup__E                              
0001ff75  SemaphoreP_post                                                      
0001ff75  SemaphoreP_postFromClock                                             
0001ff75  SemaphoreP_postFromISR                                               
0001ff81  xdc_runtime_System_atexit__E                                         
00020007  HWA_reset                                                            
00020049  MMWave_executeLink                                                   
0002008b  gtrack_moduleReport                                                  
000200cd  rlGetSubBlock                                                        
00020111  EDMA_linkParamSets                                                   
00020151  HWA_getHWAMemInfo                                                    
00020191  gtrack_matrixSetDiag                                                 
000201d1  rlDriverValidateHdr                                                  
00020211  strtok                                                               
00020251  ti_sysbios_timers_rti_Timer_stop__E                                  
0002053b  HWA_enable                                                           
00020579  MMWave_decodeError                                                   
00020631  Mailbox_writeReset                                                   
0002066d  SOC_unhaltBSS                                                        
000206a8  ti_sysbios_family_arm_v7r_vim_Hwi_init__I                            
000206e5  UART_read                                                            
000206f1  ti_sysbios_hal_Hwi_checkStack                                        
0002072d  ti_sysbios_family_arm_TaskSupport_Module__startupDone__S             
0002072d  ti_sysbios_knl_Task_SupportProxy_Module__startupDone__S              
00020731  ti_sysbios_heaps_HeapMem_init__I                                     
0002076d  HWA_setDMA2ACCManualTrig                                             
000207a9  HwiP_delete                                                          
000207e5  CLI_MMWaveExtensionInit                                              
00020855  DPM_notifyExecute                                                    
0002088d  EDMA3ClrMissEvt                                                      
000208c5  UART_init                                                            
000208fd  rlAppendSubBlock                                                     
00020933  strncpy                                                              
00020969  __aeabi_ul2f                                                         
000209a1  ADCBuf_open                                                          
00020a09  HWA_disableDoneInterrupt                                             
00020a71  Pcount3DDemo_isAllCfgInNonPendingState                               
00020aa5  Pcount3DDemo_isAllCfgInPendingState                                  
00020ad9  SOC_enableHWA                                                        
00020b0d  SOC_hasDSPCore                                                       
00020b41  SOC_setMMWaveDSSLinkState                                            
00020b75  SOC_setMMWaveMSSLinkState                                            
00020ba9  SOC_setMSSLinkState                                                  
00020bdd  UART_open                                                            
00020c11  ti_sysbios_family_arm_a15_TimestampProvider_get64__E                 
00020c11  xdc_runtime_LoggerBuf_TimestampProxy_get64__E                        
00020c11  xdc_runtime_Timestamp_SupportProxy_get64__E                          
00020c11  xdc_runtime_Timestamp_get64__E                                       
00020c45  ti_sysbios_knl_Semaphore_create                                      
00020d43  SemaphoreP_delete                                                    
00020d51  ti_sysbios_hal_Hwi_initStack                                         
00020d85  ADCBuf_init                                                          
00020db5  MMWave_listRemoveNode                                                
00020de5  Pcount3DDemo_resetStaticCfgPendingState                              
00020e15  SOC_getDevicePartNumber                                              
00020e45  gtrack_matrixAdd                                                     
00020e75  gtrack_matrixSub                                                     
00020ea5  rlSensorStart                                                        
00020ed5  ti_sysbios_BIOS_startFunc__I                                         
00020f05  UART_write                                                           
00020f11  ti_sysbios_family_arm_TaskSupport_start__E                           
00020f11  ti_sysbios_knl_Task_SupportProxy_start__E                            
00020f41  ti_sysbios_gates_GateHwi_Object__create__S                           
00020f71  ti_sysbios_gates_GateMutex_Object__create__S                         
00020fa1  ti_sysbios_heaps_HeapMem_Object__create__S                           
00020fd1  ti_sysbios_heaps_HeapMem_free__E                                     
00021001  ti_sysbios_knl_Semaphore_construct                                   
00021031  xdc_runtime_Error_policyLog__I                                       
00021061  xdc_runtime_Text_printVisFxn__I                                      
000210bf  _DPC_Objdet_Assert                                                   
000210ed  ti_sysbios_family_arm_v7r_vim_Hwi_delete                             
000210f1  ti_sysbios_knl_Semaphore_pendTimeout__I                              
0002111f  malloc                                                               
0002114d  DPM_pipeInit                                                         
00021179  DPU_TrackerProc_init                                                 
00021229  MMWave_osalMutexCreate                                               
00021255  MMWave_osalSemCreate                                                 
00021281  SOC_waitBSSPowerUp                                                   
000212ad  rlDeviceGetMssVersion                                                
000212d9  rlSensorStop                                                         
00021305  remove                                                               
00021305  unlink                                                               
00021331  ti_sysbios_BIOS_atExitFunc__I                                        
0002135d  ti_sysbios_gates_GateHwi_Handle__label__S                            
0002135d  xdc_runtime_LoggerBuf_Module_GateProxy_Handle__label__S              
0002135d  xdc_runtime_Main_Module_GateProxy_Handle__label__S                   
0002135d  xdc_runtime_System_Module_GateProxy_Handle__label__S                 
00021389  ti_sysbios_BIOS_RtsGateProxy_Handle__label__S                        
00021389  ti_sysbios_gates_GateMutex_Handle__label__S                          
00021389  ti_sysbios_heaps_HeapMem_Module_GateProxy_Handle__label__S           
000213b5  ti_sysbios_heaps_HeapMem_Handle__label__S                            
000213b5  xdc_runtime_Memory_HeapProxy_Handle__label__S                        
000213e1  ti_sysbios_knl_Clock_doTick__I                                       
0002140d  ti_sysbios_knl_Queue_construct                                       
00021439  gtrack_log                                                           
00021441  ti_sysbios_timers_rti_Timer_periodicStub__E                          
0002146d  xdc_runtime_LoggerBuf_Handle__label__S                               
000214c3  DPM_pipeDeinit                                                       
00021517  MmwDemo_ADCBufOpen                                                   
00021541  SOC_SystemISR                                                        
0002156b  rlDeviceGetMmWaveLinkVersion                                         
00021595  strspn                                                               
00021611  DPM_msgInitHeader                                                    
00021639  DPU_RangeProcHWA_deinit                                              
00021661  Mailbox_Config_init                                                  
000216d9  rlDriverConstructInMsg                                               
00021701  sqrtf                                                                
00021729  lseek                                                                
00021751  write                                                                
00021779  rlGetSubBlockId                                                      
00021781  ti_sysbios_knl_Idle_run__E                                           
000217a9  rlGetSubBlockLen                                                     
000217b1  xdc_runtime_SysStd_abort__E                                          
000217b1  xdc_runtime_System_SupportProxy_abort__E                             
000217d9  ti_sysbios_family_arm_a15_TimestampProvider_get32__E                 
000217d9  xdc_runtime_LoggerBuf_TimestampProxy_get32__E                        
000217d9  xdc_runtime_Timestamp_SupportProxy_get32__E                          
000217d9  xdc_runtime_Timestamp_get32__E                                       
000217e1  xdc_runtime_System_aprintf_va__F                                     
00021809  gtrack_listEnqueue                                                   
0002182f  gtrack_vectorAdd                                                     
00021855  gtrack_vectorSub                                                     
0002187b  rlRfInitCalibConfig                                                  
000218a1  rlRfRunTimeCalibConfig                                               
000218c7  rlRfSetCalMonFreqLimitConfig                                         
000218ed  rlRfSetDeviceCfg                                                     
00021913  rlRfSetLdoBypassConfig                                               
00021939  rlSetAdcOutConfig                                                    
0002195f  rlSetBpmCommonConfig                                                 
00021985  rlSetChannelConfig                                                   
000219ab  rlSetContModeConfig                                                  
000219d1  memcmp                                                               
000219f7  UART_writePolling                                                    
00021a01  xdc_runtime_System_printf_va__F                                      
00021a29  _Pcount3DDemo_debugAssert                                            
00021a75  EDMA3ClrEvt                                                          
00021a99  EDMA3ClrIntr                                                         
00021abd  EDMA3DisableDmaEvt                                                   
00021ae1  EDMA3DisableEvtIntr                                                  
00021b05  EDMA3EnableDmaEvt                                                    
00021b29  EDMA3EnableEvtIntr                                                   
00021b4d  EDMA3SetEvt                                                          
00021bb9  SOC_isDSSOperational                                                 
00021bdd  SOC_isMMWaveDSSOperational                                           
00021c01  SOC_isMMWaveMSSOperational                                           
00021c25  gtrack_listDequeue                                                   
00021c49  rlEnableContMode                                                     
00021c6d  rlRfSetCalMonTimeUnitConfig                                          
00021c91  rlSetLowPowerModeConfig                                              
00021cb5  ti_sysbios_BIOS_registerRTSLock__I                                   
00021cd9  ti_sysbios_BIOS_removeRTSLock__I                                     
00021cfd  ti_sysbios_gates_GateMutex_Object__delete__S                         
00021d21  ti_sysbios_knl_Clock_Module_startup__E                               
00021d45  ti_sysbios_knl_Semaphore_Object__delete__S                           
00021d69  UartSci_disableRxDMA                                                 
00021d8b  UartSci_enableRxDMA                                                  
00021dad  strcspn                                                              
00021dcf  DPM_listCat                                                          
00021df1  EDMA3QdmaClrMissEvt                                                  
00021e11  ESM_lowpriority_IRQ                                                  
00021e31  MMWave_listCat                                                       
00021e51  MmwDemo_RFParser_getChirpEndIdx                                      
00021e91  gtrack_vectorScalarMulAcc                                            
00021eb1  rlRfInit                                                             
00021ed1  memchr                                                               
00021ef1  ti_sysbios_family_arm_TaskSupport_stackUsed__E                       
00021ef1  ti_sysbios_knl_Task_SupportProxy_stackUsed__E                        
00021f11  ti_sysbios_family_arm_a15_TimestampProvider_autoRefreshFxn__I        
00021f31  ti_sysbios_family_arm_v7a_Pmu_Module_startup__E                      
00021f51  ti_sysbios_family_arm_v7r_vim_Hwi_Object__delete__S                  
00021f71  ti_sysbios_family_arm_v7r_vim_Hwi_disableInterrupt__E                
00021f71  ti_sysbios_hal_Hwi_HwiProxy_disableInterrupt__E                      
00021f71  ti_sysbios_hal_Hwi_disableInterrupt__E                               
00021f91  ti_sysbios_family_arm_v7r_vim_Hwi_enableInterrupt__E                 
00021f91  ti_sysbios_hal_Hwi_HwiProxy_enableInterrupt__E                       
00021f91  ti_sysbios_hal_Hwi_enableInterrupt__E                                
00021fb1  ti_sysbios_gates_GateHwi_Object__delete__S                           
00021fd1  ti_sysbios_heaps_HeapMem_Object__delete__S                           
00021ff1  ti_sysbios_knl_Semaphore_destruct                                    
00022011  xdc_runtime_LoggerBuf_Object__delete__S                              
0002206d  SOC_getOutAddr_LUTType                                               
0002208b  gtrack_matrixInit                                                    
000220a9  ti_sysbios_BIOS_errorRaiseHook__I                                    
000221c3  DPM_listRemove                                                       
000221df  MMWave_listRemove                                                    
00022219  SOC_getInAddr_LUTType                                                
00022234  ti_sysbios_family_arm_TaskSupport_glue                               
00022250  ti_sysbios_family_arm_TaskSupport_swap__E                            
00022250  ti_sysbios_knl_Task_SupportProxy_swap__E                             
0002226d  gtrack_matrixGetDiag                                                 
00022289  gtrack_vectorScalarMul                                               
000222a5  memccpy                                                              
000222c1  ti_sysbios_BIOS_rtsLock__I                                           
000222dd  ti_sysbios_heaps_HeapMem_Module_GateProxy_enter__E                   
000222e1  ti_sysbios_family_arm_v7r_vim_Hwi_clearInterrupt__E                  
000222e1  ti_sysbios_hal_Hwi_HwiProxy_clearInterrupt__E                        
000222e1  ti_sysbios_hal_Hwi_clearInterrupt__E                                 
000222fd  ti_sysbios_heaps_HeapMem_Module_GateProxy_leave__E                   
00022301  ti_sysbios_gates_GateMutex_Instance_init__E                          
0002231d  ti_sysbios_knl_Clock_TimerProxy_getMaxTicks__E                       
00022321  ti_sysbios_gates_GateMutex_leave__E                                  
0002233d  ti_sysbios_knl_Queue_destruct                                        
00022359  ti_sysbios_knl_Semaphore_delete                                      
0002235d  xdc_runtime_LoggerBuf_Module_GateProxy_enter__E                      
00022361  ti_sysbios_knl_Task_restoreHwi__E                                    
0002237d  xdc_runtime_LoggerBuf_Module_GateProxy_leave__E                      
00022381  xdc_runtime_LoggerBuf_Instance_finalize__E                           
000223b7  DPM_listAdd                                                          
0002241f  EDMA3SetPaRAM                                                        
00022439  MMWave_deviceSyncFxn                                                 
00022453  MMWave_encodeError                                                   
0002246d  MMWave_listAdd                                                       
00022487  free                                                                 
000224a1  rlGetRfDieId                                                         
000224bb  copysign                                                             
000224bb  copysignl                                                            
000224d5  ti_sysbios_family_arm_a15_TimestampProvider_initCCNT__I              
000224ef  xdc_runtime_System_aprintf__E                                        
00022509  xdc_runtime_System_printf__E                                         
0002253d  CLI_getMMWaveExtensionOpenConfig                                     
0002256d  EDMA3DisableQdmaEvt                                                  
00022585  EDMA3EnableQdmaEvt                                                   
0002259d  MMWave_osalMutexLock                                                 
000225b5  MMWave_osalSemWait                                                   
00022615  MmwDemo_RFParser_getChirpStartIdx                                    
00022645  gtrack_alloc                                                         
0002265d  rlDeviceGetRfVersion                                                 
00022675  rlDriverCalCRC                                                       
0002268d  rlDriverFillPayload                                                  
000226a5  _args_main                                                           
000226bd  strcmp                                                               
000226d5  ti_sysbios_BIOS_rtsUnlock__I                                         
000226ec  ti_sysbios_family_arm_v7a_Pmu_initCounters__I                        
00022705  ti_sysbios_family_arm_v7r_vim_Hwi_Module__startupDone__F             
00022705  ti_sysbios_family_arm_v7r_vim_Hwi_Module__startupDone__S             
00022705  ti_sysbios_hal_Hwi_HwiProxy_Module__startupDone__S                   
0002271d  ti_sysbios_family_arm_v7r_vim_Hwi_Params__init__S                    
0002271d  ti_sysbios_hal_Hwi_HwiProxy_Params__init__S                          
00022735  ti_sysbios_knl_Semaphore_Params__init__S                             
0002274d  ti_sysbios_knl_Task_Params__init__S                                  
00022765  gtrack_listInit                                                      
00022771  ti_sysbios_knl_Task_enter__I                                         
00022789  ti_sysbios_knl_Clock_TimerProxy_Module__startupDone__S               
00022789  ti_sysbios_timers_rti_Timer_Module__startupDone__F                   
00022789  ti_sysbios_timers_rti_Timer_Module__startupDone__S                   
000227a1  xdc_runtime_Error_init__E                                            
000227cf  strchr                                                               
000227e5  strlen                                                               
000227fb  ti_sysbios_BIOS_exitFunc__I                                          
00022811  ti_sysbios_knl_Idle_loop__E                                          
00022827  mathUtils_floorLog2                                                  
00022831  ti_sysbios_knl_Task_sleepTimeout__I                                  
00022847  CycleprofilerP_init                                                  
0002285d  EDMA3GetIntrStatus                                                   
00022871  EDMA3IntrStatusHighGet                                               
00022885  EDMA3MapQdmaChToPaRAM                                                
00022899  HwiP_Params_init                                                     
000228d5  MMWave_osalMutexDelete                                               
000228e9  MMWave_osalSemDelete                                                 
000228fd  MmwDemo_RFParser_getNumSubFrames                                     
00022925  UartSci_disableTxDMA                                                 
00022939  UartSci_enableTxDMA                                                  
0002294d  _DebugP_assert                                                       
00022961  mathUtils_ceilLog2                                                   
00022975  rlAppendDummy                                                        
00022989  rlDriverIsDeviceMapValid                                             
0002299d  _register_unlock                                                     
000229a3  _register_lock                                                       
000229ab  _nop                                                                 
000229b1  strcpy                                                               
000229c5  ti_sysbios_heaps_HeapMem_Object__get__S                              
000229d9  xdc_runtime_LoggerBuf_Object__get__S                                 
000229ed  CRC_initConfigParams                                                 
000229ff  EDMA3SetQdmaTrigWord                                                 
00022a11  MMWave_deviceGetDeviceInfo                                           
00022a23  MemoryP_ctrlAlloc                                                    
00022a35  SemaphoreP_pend                                                      
00022a47  mathUtils_pow2roundup                                                
00022a59  copysignf                                                            
00022a6b  xdc_runtime_System_Module_GateProxy_enter__E                         
00022a71  ti_sysbios_hal_Hwi_Module_startup__E                                 
00022a83  __TI_decompress_none                                                 
00022a91  xdc_runtime_LoggerBuf_write1__E                                      
00022aa3  gtrack_unitGetC                                                      
00022ab1  xdc_runtime_LoggerBuf_write2__E                                      
00022ac3  xdc_runtime_Startup_exec__I                                          
00022ad5  ADCBuf_Params_init                                                   
00022ae5  CLI_getMMWaveExtensionConfig                                         
00022b05  DMA_Params_init                                                      
00022b15  gtrack_free                                                          
00022b25  gtrack_vectorInit                                                    
00022b35  ti_sysbios_family_arm_v7r_tms570_Core_getId__E                       
00022b35  ti_sysbios_hal_Core_CoreProxy_getId__E                               
00022b41  ti_sysbios_BIOS_getCpuFreq__E                                        
00022b41  ti_sysbios_family_arm_a15_TimestampProvider_getFreq__E               
00022b41  xdc_runtime_LoggerBuf_TimestampProxy_getFreq__E                      
00022b41  xdc_runtime_Timestamp_SupportProxy_getFreq__E                        
00022b41  xdc_runtime_Timestamp_getFreq__E                                     
00022b51  ti_sysbios_BIOS_setThreadType__E                                     
00022b61  ti_sysbios_BIOS_start__E                                             
00022b71  ti_sysbios_family_arm_a15_TimestampProvider_Module_startup__E        
00022b80  ti_sysbios_family_arm_v7a_Pmu_disableInterruptI__E                   
00022b90  ti_sysbios_family_arm_v7a_Pmu_enableInterruptI__E                    
00022ba0  ti_sysbios_family_arm_v7a_Pmu_getNumCounters__E                      
00022bb0  ti_sysbios_family_arm_v7a_Pmu_startCounterI__E                       
00022bc0  ti_sysbios_family_arm_v7a_Pmu_stopCounterI__E                        
00022bd1  ti_sysbios_gates_GateMutex_Instance_finalize__E                      
00022be1  ti_sysbios_heaps_HeapBuf_Object__get__S                              
00022bf1  ti_sysbios_knl_Semaphore_Instance_finalize__E                        
00022c01  ti_sysbios_knl_Task_Object__get__S                                   
00022c11  ti_sysbios_knl_Task_disable__E                                       
00022c21  xdc_runtime_LoggerBuf_write0__E                                      
00022c31  xdc_runtime_Memory_free__E                                           
00022c41  xdc_runtime_Memory_getStats__E                                       
00022c51  gtrack_unitGetSpread                                                 
00022c5f  ti_sysbios_family_arm_a15_TimestampProvider_getOverflowCCNT__I       
00022c6d  xdc_runtime_System_Module_GateProxy_leave__E                         
00022c71  ti_sysbios_knl_Queue_empty__E                                        
00022c81  ti_sysbios_family_arm_TaskSupport_checkStack__E                      
00022c81  ti_sysbios_knl_Task_SupportProxy_checkStack__E                       
00022c91  ti_sysbios_family_arm_TaskSupport_getStackAlignment__E               
00022c91  ti_sysbios_knl_Task_SupportProxy_getStackAlignment__E                
00022ca1  ti_sysbios_family_arm_exc_Exception_Module_startup__E                
00022cb1  ti_sysbios_family_arm_v7r_vim_Hwi_switchFromBootStack__E             
00022cb1  ti_sysbios_hal_Hwi_HwiProxy_switchFromBootStack__E                   
00022cb1  ti_sysbios_hal_Hwi_switchFromBootStack__E                            
00022cc1  ti_sysbios_utils_Load_getCPULoad__E                                  
00022cd1  ti_sysbios_utils_Load_taskRegHook__E                                 
00022ce1  xdc_runtime_Startup_rtsDone__E                                       
00022cf1  xdc_runtime_SysStd_exit__E                                           
00022cf1  xdc_runtime_System_SupportProxy_exit__E                              
00022cfd  xdc_runtime_Memory_HeapProxy_alloc__E                                
00022d07  xdc_runtime_Memory_HeapProxy_free__E                                 
00022d11  xdc_runtime_Memory_HeapProxy_getStats__E                             
00022d21  xdc_runtime_LoggerBuf_disable__E                                     
00022d31  xdc_runtime_LoggerBuf_enable__E                                      
00022d41  ti_sysbios_gates_GateHwi_enter__E                                    
00022d51  ti_sysbios_family_arm_v7r_vim_Hwi_startup__E                         
00022d51  ti_sysbios_hal_Hwi_HwiProxy_startup__E                               
00022d51  ti_sysbios_hal_Hwi_startup__E                                        
00022d61  ti_sysbios_gates_GateHwi_leave__E                                    
00022d71  ti_sysbios_heaps_HeapMem_isBlocking__E                               
00022d81  ti_sysbios_knl_Queue_Instance_init__E                                
00022d91  xdc_runtime_System_Module_startup__E                                 
00022da1  ti_sysbios_gates_GateHwi_query__E                                    
00022da1  xdc_runtime_LoggerBuf_Module_GateProxy_query__E                      
00022da1  xdc_runtime_Main_Module_GateProxy_query__E                           
00022da1  xdc_runtime_System_Module_GateProxy_query__E                         
00022db1  ti_sysbios_BIOS_RtsGateProxy_query__E                                
00022db1  ti_sysbios_gates_GateMutex_query__E                                  
00022db1  ti_sysbios_heaps_HeapMem_Module_GateProxy_query__E                   
00022dc1  ti_sysbios_knl_Task_startup__E                                       
00022dd1  ti_sysbios_timers_rti_Timer_getMaxTicks__E                           
00022de1  xdc_runtime_SysStd_putch__E                                          
00022de1  xdc_runtime_System_SupportProxy_putch__E                             
00022df1  xdc_runtime_SysStd_ready__E                                          
00022df1  xdc_runtime_System_SupportProxy_ready__E                             
00022e01  ti_sysbios_BIOS_linkedWithIncorrectBootLibrary__E                    
00022e11  ti_sysbios_gates_GateHwi_Instance_init__E                            
00023968  defaultStateParams                                                   
00023974  defaultGatingParams                                                  
00023988  defaultAllocationParams                                              
000239a0  defaultPresenceParams                                                
000239dc  defaultSceneryParams                                                 
000240e6  ti_sysbios_family_arm_exc_Exception_Module__id__C                    
000244f8  _ctypes_                                                             
000245f9  xdc_runtime_Text_charTab__A                                          
000245fa  ti_sysbios_family_arm_v7a_Pmu_Module__id__C                          
000247c0  ti_sysbios_family_arm_v7r_vim_Hwi_channelMap__A                      
00024840  ti_sysbios_knl_Task_Object__PARAMS__C                                
000248c4  UART_defaultParams                                                   
00024900  xdc_runtime_LoggerBuf_Module__FXNS__C                                
0002493c  gEdmaHwAttrs                                                         
000249d8  ti_sysbios_family_arm_v7r_vim_Hwi_Object__PARAMS__C                  
00024a08  xdc_runtime_Startup_sfxnTab__A                                       
00024a38  gDPMMessageFxnTable                                                  
00024a60  ti_sysbios_heaps_HeapMem_Module__FXNS__C                             
00024a88  xdc_runtime_LoggerBuf_Object__PARAMS__C                              
00024ab0  Mailbox_defaultCfg                                                   
00024ad4  pInit                                                                
00024af8  ti_sysbios_gates_GateHwi_Module__FXNS__C                             
00024b1c  ti_sysbios_gates_GateMutex_Module__FXNS__C                           
00024b40  ti_sysbios_heaps_HeapMem_Object__PARAMS__C                           
00024b64  ti_sysbios_knl_Semaphore_Object__PARAMS__C                           
00024bc8  ti_sysbios_family_arm_v7r_vim_Hwi_Object__DESC__C                    
00024be8  ti_sysbios_gates_GateHwi_Object__DESC__C                             
00024c08  ti_sysbios_gates_GateMutex_Object__DESC__C                           
00024c28  ti_sysbios_heaps_HeapMem_Object__DESC__C                             
00024c48  ti_sysbios_knl_Queue_Object__DESC__C                                 
00024c68  ti_sysbios_knl_Semaphore_Object__DESC__C                             
00024c88  ti_sysbios_knl_Task_Object__DESC__C                                  
00024ca8  xdc_runtime_LoggerBuf_Object__DESC__C                                
00024ce0  ti_sysbios_gates_GateHwi_Object__PARAMS__C                           
00024cf8  ti_sysbios_gates_GateMutex_Object__PARAMS__C                         
00024d10  ti_sysbios_knl_Queue_Object__PARAMS__C                               
00024d28  ti_sysbios_knl_Task_hooks__A                                         
00024d40  xdc_runtime_Startup_sfxnRts__A                                       
00024d58  gADCBufFxnTable                                                      
00024d6c  ADCBuf_defaultParams                                                 
00024d8c  gADCBufHwCfg                                                         
00024d9c  ti_sysbios_family_arm_v7r_vim_Hwi_intReqEnaSet__A                    
00024dac  ti_sysbios_family_arm_v7r_vim_Hwi_wakeEnaSet__A                      
00024dbc  ti_sysbios_knl_Idle_funcList__A                                      
00024dc8  ti_sysbios_knl_Idle_funcList__C                                      
00024dd0  ti_sysbios_knl_Task_hooks__C                                         
00024dd8  xdc_runtime_Startup_firstFxns__A                                     
00024de0  xdc_runtime_Startup_firstFxns__C                                     
00024de8  xdc_runtime_Startup_lastFxns__C                                      
00024df0  ti_sysbios_family_arm_TaskSupport_stackAlignment__C                  
00024df4  ti_sysbios_family_arm_exc_Exception_E_dataAbort__C                   
00024df8  ti_sysbios_family_arm_exc_Exception_E_prefetchAbort__C               
00024dfc  ti_sysbios_family_arm_exc_Exception_E_swi__C                         
00024e00  ti_sysbios_family_arm_exc_Exception_E_undefinedInstruction__C        
00024e04  ti_sysbios_family_arm_exc_Exception_excHookFuncs__A                  
00024e08  ti_sysbios_family_arm_exc_Exception_excHookFuncs__C                  
00024e0c  ti_sysbios_family_arm_v7a_Pmu_A_invalidCounterId__C                  
00024e10  ti_sysbios_family_arm_v7a_Pmu_Module__diagsEnabled__C                
00024e14  ti_sysbios_family_arm_v7a_Pmu_Module__diagsIncluded__C               
00024e18  ti_sysbios_family_arm_v7a_Pmu_Module__diagsMask__C                   
00024e1c  ti_sysbios_family_arm_v7r_tms570_Core_E_mismatchedIds__C             
00024e20  ti_sysbios_family_arm_v7r_tms570_Core_id__C                          
00024e24  ti_sysbios_family_arm_v7r_vim_Hwi_A_badChannelId__C                  
00024e28  ti_sysbios_family_arm_v7r_vim_Hwi_E_alreadyDefined__C                
00024e2c  ti_sysbios_family_arm_v7r_vim_Hwi_E_badIntNum__C                     
00024e30  ti_sysbios_family_arm_v7r_vim_Hwi_E_phantomInterrupt__C              
00024e34  ti_sysbios_family_arm_v7r_vim_Hwi_E_undefined__C                     
00024e38  ti_sysbios_family_arm_v7r_vim_Hwi_E_unsupportedMaskingOption__C      
00024e3c  ti_sysbios_family_arm_v7r_vim_Hwi_LD_end__C                          
00024e40  ti_sysbios_family_arm_v7r_vim_Hwi_LM_begin__C                        
00024e44  ti_sysbios_family_arm_v7r_vim_Hwi_Module__diagsEnabled__C            
00024e48  ti_sysbios_family_arm_v7r_vim_Hwi_Module__diagsIncluded__C           
00024e4c  ti_sysbios_family_arm_v7r_vim_Hwi_Module__diagsMask__C               
00024e50  ti_sysbios_family_arm_v7r_vim_Hwi_Module__loggerFxn1__C              
00024e54  ti_sysbios_family_arm_v7r_vim_Hwi_Module__loggerFxn8__C              
00024e58  ti_sysbios_family_arm_v7r_vim_Hwi_Module__loggerObj__C               
00024e5c  ti_sysbios_family_arm_v7r_vim_Hwi_NUM_INTERRUPTS__C                  
00024e60  ti_sysbios_family_arm_v7r_vim_Hwi_channelMap__C                      
00024e64  ti_sysbios_family_arm_v7r_vim_Hwi_intReqEnaSet__C                    
00024e68  ti_sysbios_family_arm_v7r_vim_Hwi_phantomFunc__C                     
00024e6c  ti_sysbios_family_arm_v7r_vim_Hwi_taskDisable__C                     
00024e70  ti_sysbios_family_arm_v7r_vim_Hwi_taskRestoreHwi__C                  
00024e74  ti_sysbios_family_arm_v7r_vim_Hwi_wakeEnaSet__C                      
00024e78  ti_sysbios_gates_GateMutex_A_badContext__C                           
00024e7c  ti_sysbios_gates_GateMutex_Instance_State_sem__O                     
00024e80  ti_sysbios_gates_GateMutex_Module__diagsEnabled__C                   
00024e84  ti_sysbios_gates_GateMutex_Module__diagsIncluded__C                  
00024e88  ti_sysbios_gates_GateMutex_Module__diagsMask__C                      
00024e8c  ti_sysbios_hal_Hwi_E_stackOverflow__C                                
00024e90  ti_sysbios_heaps_HeapBuf_Instance_State_freeList__O                  
00024e94  ti_sysbios_heaps_HeapBuf_Object__count__C                            
00024e98  ti_sysbios_heaps_HeapBuf_numConstructedHeaps__C                      
00024e9c  ti_sysbios_heaps_HeapMem_A_align__C                                  
00024ea0  ti_sysbios_heaps_HeapMem_A_heapSize__C                               
00024ea4  ti_sysbios_heaps_HeapMem_A_invalidFree__C                            
00024ea8  ti_sysbios_heaps_HeapMem_A_zeroBlock__C                              
00024eac  ti_sysbios_heaps_HeapMem_E_memory__C                                 
00024eb0  ti_sysbios_heaps_HeapMem_Module__diagsEnabled__C                     
00024eb4  ti_sysbios_heaps_HeapMem_Module__diagsIncluded__C                    
00024eb8  ti_sysbios_heaps_HeapMem_Module__diagsMask__C                        
00024ebc  ti_sysbios_heaps_HeapMem_Module__gateObj__C                          
00024ec0  ti_sysbios_heaps_HeapMem_Object__count__C                            
00024ec4  ti_sysbios_heaps_HeapMem_reqAlign__C                                 
00024ec8  ti_sysbios_knl_Clock_LM_begin__C                                     
00024ecc  ti_sysbios_knl_Clock_LM_tick__C                                      
00024ed0  ti_sysbios_knl_Clock_LW_delayed__C                                   
00024ed4  ti_sysbios_knl_Clock_Module_State_clockQ__O                          
00024ed8  ti_sysbios_knl_Clock_Module__diagsEnabled__C                         
00024edc  ti_sysbios_knl_Clock_Module__diagsIncluded__C                        
00024ee0  ti_sysbios_knl_Clock_Module__diagsMask__C                            
00024ee4  ti_sysbios_knl_Clock_Module__loggerFxn1__C                           
00024ee8  ti_sysbios_knl_Clock_Module__loggerFxn2__C                           
00024eec  ti_sysbios_knl_Clock_Module__loggerObj__C                            
00024ef0  ti_sysbios_knl_Semaphore_A_badContext__C                             
00024ef4  ti_sysbios_knl_Semaphore_A_noEvents__C                               
00024ef8  ti_sysbios_knl_Semaphore_A_overflow__C                               
00024efc  ti_sysbios_knl_Semaphore_A_pendTaskDisabled__C                       
00024f00  ti_sysbios_knl_Semaphore_Instance_State_pendQ__O                     
00024f04  ti_sysbios_knl_Semaphore_LM_pend__C                                  
00024f08  ti_sysbios_knl_Semaphore_LM_post__C                                  
00024f0c  ti_sysbios_knl_Semaphore_Module__diagsEnabled__C                     
00024f10  ti_sysbios_knl_Semaphore_Module__diagsIncluded__C                    
00024f14  ti_sysbios_knl_Semaphore_Module__diagsMask__C                        
00024f18  ti_sysbios_knl_Semaphore_Module__loggerFxn2__C                       
00024f1c  ti_sysbios_knl_Semaphore_Module__loggerFxn4__C                       
00024f20  ti_sysbios_knl_Semaphore_Module__loggerObj__C                        
00024f24  ti_sysbios_knl_Task_A_badPriority__C                                 
00024f28  ti_sysbios_knl_Task_A_badTaskState__C                                
00024f2c  ti_sysbios_knl_Task_A_badThreadType__C                               
00024f30  ti_sysbios_knl_Task_A_badTimeout__C                                  
00024f34  ti_sysbios_knl_Task_A_noPendElem__C                                  
00024f38  ti_sysbios_knl_Task_A_sleepTaskDisabled__C                           
00024f3c  ti_sysbios_knl_Task_E_spOutOfBounds__C                               
00024f40  ti_sysbios_knl_Task_E_stackOverflow__C                               
00024f44  ti_sysbios_knl_Task_LD_block__C                                      
00024f48  ti_sysbios_knl_Task_LD_exit__C                                       
00024f4c  ti_sysbios_knl_Task_LD_ready__C                                      
00024f50  ti_sysbios_knl_Task_LM_sleep__C                                      
00024f54  ti_sysbios_knl_Task_LM_switch__C                                     
00024f58  ti_sysbios_knl_Task_Module_State_inactiveQ__O                        
00024f5c  ti_sysbios_knl_Task_Module__diagsEnabled__C                          
00024f60  ti_sysbios_knl_Task_Module__diagsIncluded__C                         
00024f64  ti_sysbios_knl_Task_Module__diagsMask__C                             
00024f68  ti_sysbios_knl_Task_Module__loggerFxn2__C                            
00024f6c  ti_sysbios_knl_Task_Module__loggerFxn4__C                            
00024f70  ti_sysbios_knl_Task_Module__loggerObj__C                             
00024f74  ti_sysbios_knl_Task_Object__count__C                                 
00024f78  ti_sysbios_knl_Task_Object__heap__C                                  
00024f7c  ti_sysbios_knl_Task_allBlockedFunc__C                                
00024f80  ti_sysbios_knl_Task_defaultStackHeap__C                              
00024f84  ti_sysbios_knl_Task_defaultStackSize__C                              
00024f88  ti_sysbios_knl_Task_numConstructedTasks__C                           
00024f8c  ti_sysbios_timers_rti_Timer_E_cannotSupport__C                       
00024f90  ti_sysbios_timers_rti_Timer_Module__diagsEnabled__C                  
00024f94  ti_sysbios_timers_rti_Timer_Module__diagsIncluded__C                 
00024f98  ti_sysbios_timers_rti_Timer_Module__diagsMask__C                     
00024f9c  ti_sysbios_timers_rti_Timer_numTimerDevices__C                       
00024fa0  ti_sysbios_timers_rti_Timer_startupNeeded__C                         
00024fa4  ti_sysbios_utils_Load_LS_cpuLoad__C                                  
00024fa8  ti_sysbios_utils_Load_LS_taskLoad__C                                 
00024fac  ti_sysbios_utils_Load_Module_State_taskList__O                       
00024fb0  ti_sysbios_utils_Load_Module__diagsEnabled__C                        
00024fb4  ti_sysbios_utils_Load_Module__diagsIncluded__C                       
00024fb8  ti_sysbios_utils_Load_Module__diagsMask__C                           
00024fbc  ti_sysbios_utils_Load_Module__loggerFxn1__C                          
00024fc0  ti_sysbios_utils_Load_Module__loggerFxn4__C                          
00024fc4  ti_sysbios_utils_Load_Module__loggerObj__C                           
00024fc8  ti_sysbios_utils_Load_postUpdate__C                                  
00024fcc  ti_sysbios_utils_Load_windowInMs__C                                  
00024fd0  xdc_runtime_Assert_E_assertFailed__C                                 
00024fd4  xdc_runtime_Core_A_initializedParams__C                              
00024fd8  xdc_runtime_Core_Module__diagsEnabled__C                             
00024fdc  xdc_runtime_Core_Module__diagsIncluded__C                            
00024fe0  xdc_runtime_Core_Module__diagsMask__C                                
00024fe4  xdc_runtime_Error_E_memory__C                                        
00024fe8  xdc_runtime_Error_policyFxn__C                                       
00024fec  xdc_runtime_Error_policy__C                                          
00024ff0  xdc_runtime_Error_raiseHook__C                                       
00024ff4  xdc_runtime_IFilterLogger_Interface__BASE__C                         
00024ff8  xdc_runtime_IGateProvider_Interface__BASE__C                         
00024ffc  xdc_runtime_IHeap_Interface__BASE__C                                 
00025000  xdc_runtime_ILogger_Interface__BASE__C                               
00025004  xdc_runtime_IModule_Interface__BASE__C                               
00025008  xdc_runtime_LoggerBuf_E_badLevel__C                                  
0002500c  xdc_runtime_LoggerBuf_Module__gateObj__C                             
00025010  xdc_runtime_LoggerBuf_Object__count__C                               
00025014  xdc_runtime_LoggerBuf_statusLogger__C                                
00025018  xdc_runtime_Memory_defaultHeapInstance__C                            
0002501c  xdc_runtime_Startup_execImpl__C                                      
00025020  xdc_runtime_Startup_maxPasses__C                                     
00025024  xdc_runtime_Startup_sfxnRts__C                                       
00025028  xdc_runtime_Startup_sfxnTab__C                                       
0002502c  xdc_runtime_System_Module__gateObj__C                                
00025030  xdc_runtime_System_abortFxn__C                                       
00025034  xdc_runtime_System_exitFxn__C                                        
00025038  xdc_runtime_System_extendFxn__C                                      
0002503c  xdc_runtime_System_maxAtexitHandlers__C                              
00025040  xdc_runtime_Text_charTab__C                                          
00025044  xdc_runtime_Text_visitRopeFxn__C                                     
00025048  ti_sysbios_family_arm_v7r_tms570_Core_Module__id__C                  
0002504a  ti_sysbios_family_arm_v7r_vim_Hwi_Module__id__C                      
0002504c  ti_sysbios_family_arm_v7r_vim_Hwi_Module__loggerDefined__C           
0002504e  ti_sysbios_gates_GateMutex_Module__id__C                             
00025050  ti_sysbios_hal_Hwi_Module__id__C                                     
00025052  ti_sysbios_heaps_HeapMem_Module__id__C                               
00025054  ti_sysbios_knl_Clock_Module__id__C                                   
00025056  ti_sysbios_knl_Clock_Module__loggerDefined__C                        
00025058  ti_sysbios_knl_Semaphore_Module__id__C                               
0002505a  ti_sysbios_knl_Semaphore_Module__loggerDefined__C                    
0002505c  ti_sysbios_knl_Task_Module__id__C                                    
0002505e  ti_sysbios_knl_Task_Module__loggerDefined__C                         
00025060  ti_sysbios_timers_rti_Timer_Module__id__C                            
00025062  ti_sysbios_timers_rti_Timer_continueOnSuspend__C                     
00025064  ti_sysbios_utils_Load_Module__id__C                                  
00025066  ti_sysbios_utils_Load_Module__loggerDefined__C                       
00025068  ti_sysbios_utils_Load_autoAddTasks__C                                
0002506a  ti_sysbios_utils_Load_updateInIdle__C                                
0002506c  xdc_runtime_Core_Module__id__C                                       
0002506e  xdc_runtime_Error_Module__loggerDefined__C                           
00025070  xdc_runtime_Error_maxDepth__C                                        
00025072  xdc_runtime_LoggerBuf_Module__id__C                                  
00025074  xdc_runtime_LoggerBuf_filterByLevel__C                               
00025076  xdc_runtime_Main_Module__id__C                                       
00025078  xdc_runtime_Memory_Module__id__C                                     
0002507a  xdc_runtime_Text_isLoaded__C                                         
0002507c  xdc_runtime_Text_registryModsLastId__C                               
0002507e  xdc_runtime_Text_unnamedModsLastId__C                                
00025080  __TI_static_base__                                                   
000255b0  __TI_Handler_Table_Base                                              
000255bc  __TI_Handler_Table_Limit                                             
000255e8  __TI_CINIT_Base                                                      
00025618  __TI_CINIT_Limit                                                     
08000000  ti_sysbios_heaps_HeapMem_Instance_State_0_buf__A                     
08020800  gRFLdoBypassCfg                                                      
08020808  gMmwMssMCB                                                           
08022bb0  rl_txMsg                                                             
08022cb0  rl_rxMsg                                                             
08022f98  appStateParamTable                                                   
08022fc8  appGatingParamTable                                                  
08023018  appAllocationParamTable                                              
08023078  appPresenceParamTable                                                
08023168  appSceneryParamTable                                                 
08023358  gCLI_mmwave_freq_scale_factor                                        
08023360  gCLIMMWaveOpenCfg                                                    
08023388  gCLIMMWaveExtensionTable                                             
08023430  gCLIMMWaveControlCfg                                                 
080234fc  partInfoStringArray                                                  
080236c0  ti_sysbios_family_arm_v7r_vim_Hwi_Module_State_0_dispatchTable__A    
080238c0  _ftable                                                              
080239b0  ti_sysbios_utils_Load_Module__state__V                               
08023a48  ti_sysbios_knl_Task_Module_State_0_readyQ__A                         
08023ac8  _device                                                              
08023b40  gDMAHwCfg                                                            
08023ba0  ti_sysbios_knl_Task_Object__table__V                                 
08023bfc  gUartSciHwCfg                                                        
08023c54  _stream                                                              
08023ca4  gMailboxMCB                                                          
08023cf4  ti_sysbios_knl_Task_Module__state__V                                 
08023d3c  SOC_TranslateAddr_LUT                                                
08023d7c  ti_sysbios_gates_GateMutex_Object__table__V                          
08023dbc  ti_sysbios_timers_rti_Timer_Object__table__V                         
08023df8  ti_sysbios_family_arm_v7r_vim_Hwi_Module__state__V                   
08023e2c  gHWAHwCfg                                                            
08023e5c  ti_sysbios_family_arm_v7r_vim_Hwi_Object__table__V                   
08023e88  ti_sysbios_knl_Clock_Module__state__V                                
08023eb4  gUartSciFxnTable                                                     
08023edc  UART_config                                                          
08023f00  gDPC_ObjDetRangeHWACfg                                               
08023f24  ti_sysbios_BIOS_Module__state__V                                     
08023f48  xdc_runtime_LoggerBuf_Object__table__V                               
08023f6c  gHWADriverPtr                                                        
08023f70  gSOCHwAttrib                                                         
08023f90  ti_sysbios_knl_Clock_Object__table__V                                
08023fb0  xdc_runtime_Error_IgnoreBlock                                        
08023fd0  xdc_runtime_System_Module_State_0_atexitHandlers__A                  
08023ff0  ti_sysbios_utils_Load_Module_State_0_taskEnv__A                      
0802400c  ADCBuf_config                                                        
08024024  gMailboxMssBssHwCfg                                                  
0802403c  gMailboxMssDssHwCfg                                                  
08024054  ti_sysbios_heaps_HeapMem_Object__table__V                            
0802406c  ti_sysbios_timers_rti_Timer_Module_State_0_device__A                 
08024084  gDPMRemoteTable                                                      
08024098  ti_sysbios_family_arm_exc_Exception_Module__state__V                 
080240ac  DMA_defaultParams                                                    
080240bc  gHwaEDMAChanMapping                                                  
080240cc  __TI_ft_end                                                          
080240d0  __aeabi_stdin                                                        
080240d4  __aeabi_stdout                                                       
080240d8  __aeabi_stderr                                                       
080240dc  ti_sysbios_timers_rti_Timer_Module_State_0_intFreqs__A               
080240ec  ti_sysbios_timers_rti_Timer_Module__state__V                         
080240fc  __TI_cleanup_ptr                                                     
08024100  __TI_dtors_ptr                                                       
08024104  __TI_enable_exit_profile_output                                      
08024108  gESMHwCfgAttrs                                                       
08024114  ti_sysbios_family_arm_v7a_Pmu_Module__state__V                       
08024120  ti_sysbios_knl_Task_Module__root__V                                  
0802412c  _lock                                                                
08024130  _unlock                                                              
08024134  MmwDemo_RFParserHwCfg                                                
0802413c  gDPMHwAttrib                                                         
08024144  gGPIOHwAtrrib                                                        
0802414c  ti_sysbios_family_arm_v7r_vim_Hwi_Module__root__V                    
08024154  ti_sysbios_gates_GateHwi_Module__root__V                             
0802415c  ti_sysbios_gates_GateMutex_Module__root__V                           
08024164  ti_sysbios_hal_Hwi_Object__table__V                                  
0802416c  ti_sysbios_heaps_HeapMem_Module__root__V                             
08024174  ti_sysbios_knl_Queue_Module__root__V                                 
0802417c  ti_sysbios_knl_Semaphore_Module__root__V                             
08024184  ti_sysbios_timers_rti_Timer_Module_State_0_handles__A                
0802418c  xdc_runtime_LoggerBuf_Module__root__V                                
08024194  xdc_runtime_Registry_Module__state__V                                
0802419c  xdc_runtime_Startup_Module__state__V                                 
080241a4  xdc_runtime_System_Module__state__V                                  
080241ac  xdc_runtime_LoggerBuf_Module__state__V                               
080241b2  ti_sysbios_family_arm_exc_Exception_Module_State_0_excActive__A      
080241b8  gCRCRegister                                                         
080241bc  gDPM                                                                 
080241c0  regionId                                                             
080241c4  gPinmuxRegs                                                          
080241cc  errno                                                                
080241d8  main_func_sp                                                         
080241e0  ti_sysbios_family_arm_a15_TimestampProvider_Module__state__V         
080241e4  ti_sysbios_family_arm_exc_Exception_Module_State_0_excContext__A     
080241e8  ti_sysbios_family_arm_exc_Exception_Module_State_0_excStackBuffers__A
080241ec  ti_sysbios_family_arm_exc_Exception_Module_State_0_excStack__A       
080241f0  ti_sysbios_gates_GateHwi_Object__table__V                            
080241f4  ti_sysbios_heaps_HeapBuf_Module__state__V                            
080241f8  ti_sysbios_knl_Task_Module_State_0_idleTask__A                       
080241fc  ti_sysbios_utils_Load_Module_State_0_runningTask__A                  
08024200  ti_sysbios_utils_Load_Module_State_0_taskStartTime__A                
08024204  gGtrackMemoryUsed                                                    
08024208  xdc_runtime_Memory_Module__state__V                                  
0802420c  xdc_runtime_Error_Module__state__V                                   
08024210  xdc_runtime_LoggerBuf_Instance_State_0_entryArr__A                   
08025b10  ti_sysbios_family_arm_exc_Exception_Module_State_0_excStack_0__A     
08026b10  edmaDbg                                                              
08026ff8  ti_sysbios_knl_Task_Instance_State_0_stack__A                        
08027318  gCLI                                                                 
080274c0  gGPIOMCB                                                             
08027654  __CIOBUF_                                                            
08027774  gMMWave_MCB                                                          
08027874  __TI_tmpnams                                                         
08027914  gEsmMCB                                                              
08027984  gDMADriverPtr                                                        
0802798c  gMMWave_DualcoreMCB                                                  
08027994  parmbuf                                                              
0802799c  gObjDetObj                                                           
080279a0  ti_sysbios_knl_Task_Instance_State_0_hookEnv__A                      
080279a4  gDPCTCM                                                              
080299a8  ti_sysbios_family_arm_v7r_vim_Hwi_Module_State_0_fiqStack__A         
0802a1a8  __stack                                                              
0802a9a8  __STACK_END                                                          
51000000  gMmwL3                                                               
fffffdec  ti_sysbios_family_arm_v7r_vim_Hwi_vim                                
ffffffff  __TI_pprof_out_hndl                                                  
ffffffff  __TI_prof_data_size                                                  
ffffffff  __TI_prof_data_start                                                 
ffffffff  __binit__                                                            
ffffffff  __c_args__                                                           
ffffffff  binit                                                                
UNDEFED   SHT$$INIT_ARRAY$$Base                                                
UNDEFED   SHT$$INIT_ARRAY$$Limit                                               

[1196 symbols]
